ARM GAS  C:\Users\MICKKI~1\AppData\Local\Temp\ccnbVy68.s 			page 1


   1              		.cpu cortex-m0
   2              		.fpu softvfp
   3              		.eabi_attribute 20, 1
   4              		.eabi_attribute 21, 1
   5              		.eabi_attribute 23, 3
   6              		.eabi_attribute 24, 1
   7              		.eabi_attribute 25, 1
   8              		.eabi_attribute 26, 1
   9              		.eabi_attribute 30, 6
  10              		.eabi_attribute 34, 0
  11              		.eabi_attribute 18, 4
  12              		.code	16
  13              		.file	"humiSensor.c"
  14              		.text
  15              	.Ltext0:
  16              		.cfi_sections	.debug_frame
  17              		.section	.text.humiSensor_init,"ax",%progbits
  18              		.align	2
  19              		.global	humiSensor_init
  20              		.code	16
  21              		.thumb_func
  22              		.type	humiSensor_init, %function
  23              	humiSensor_init:
  24              	.LFB33:
  25              		.file 1 ".\\humiSensor.c"
   1:.\humiSensor.c **** //humiSensor.c
   2:.\humiSensor.c **** //
   3:.\humiSensor.c **** //Author: Jakob Schmidt
   4:.\humiSensor.c **** //Version: 1.1
   5:.\humiSensor.c **** //Date: 14-11-14
   6:.\humiSensor.c **** 
   7:.\humiSensor.c **** #include "humiSensor.h"
   8:.\humiSensor.c **** 
   9:.\humiSensor.c **** #define vin_max 3.3
  10:.\humiSensor.c **** 
  11:.\humiSensor.c **** //Constructor implementation
  12:.\humiSensor.c **** void humiSensor_init()
  13:.\humiSensor.c **** {
  26              		.loc 1 13 0
  27              		.cfi_startproc
  28 0000 80B5     		push	{r7, lr}
  29              	.LCFI0:
  30              		.cfi_def_cfa_offset 8
  31              		.cfi_offset 7, -8
  32              		.cfi_offset 14, -4
  33 0002 00AF     		add	r7, sp, #0
  34              	.LCFI1:
  35              		.cfi_def_cfa_register 7
  14:.\humiSensor.c ****     //Do nothing
  15:.\humiSensor.c **** }
  36              		.loc 1 15 0
  37 0004 BD46     		mov	sp, r7
  38              		@ sp needed for prologue
  39 0006 80BD     		pop	{r7, pc}
  40              		.cfi_endproc
  41              	.LFE33:
  42              		.size	humiSensor_init, .-humiSensor_init
ARM GAS  C:\Users\MICKKI~1\AppData\Local\Temp\ccnbVy68.s 			page 2


  43              		.section	.text.humiSensor_exit,"ax",%progbits
  44              		.align	2
  45              		.global	humiSensor_exit
  46              		.code	16
  47              		.thumb_func
  48              		.type	humiSensor_exit, %function
  49              	humiSensor_exit:
  50              	.LFB34:
  16:.\humiSensor.c **** 
  17:.\humiSensor.c **** 
  18:.\humiSensor.c **** //Destructor implementation
  19:.\humiSensor.c **** void humiSensor_exit()
  20:.\humiSensor.c **** {
  51              		.loc 1 20 0
  52              		.cfi_startproc
  53 0000 80B5     		push	{r7, lr}
  54              	.LCFI2:
  55              		.cfi_def_cfa_offset 8
  56              		.cfi_offset 7, -8
  57              		.cfi_offset 14, -4
  58 0002 00AF     		add	r7, sp, #0
  59              	.LCFI3:
  60              		.cfi_def_cfa_register 7
  21:.\humiSensor.c ****     //Do nothing
  22:.\humiSensor.c **** }
  61              		.loc 1 22 0
  62 0004 BD46     		mov	sp, r7
  63              		@ sp needed for prologue
  64 0006 80BD     		pop	{r7, pc}
  65              		.cfi_endproc
  66              	.LFE34:
  67              		.size	humiSensor_exit, .-humiSensor_exit
  68              		.global	__aeabi_f2d
  69              		.global	__aeabi_ddiv
  70              		.global	__aeabi_d2f
  71              		.global	__aeabi_fmul
  72              		.global	__aeabi_fsub
  73              		.section	.text.humiSensor_getValue,"ax",%progbits
  74              		.align	2
  75              		.global	humiSensor_getValue
  76              		.code	16
  77              		.thumb_func
  78              		.type	humiSensor_getValue, %function
  79              	humiSensor_getValue:
  80              	.LFB35:
  23:.\humiSensor.c **** 
  24:.\humiSensor.c **** 
  25:.\humiSensor.c **** //Public methods implementation
  26:.\humiSensor.c **** int humiSensor_getValue(float *val)
  27:.\humiSensor.c **** {   
  81              		.loc 1 27 0
  82              		.cfi_startproc
  83 0000 90B5     		push	{r4, r7, lr}
  84              	.LCFI4:
  85              		.cfi_def_cfa_offset 12
  86              		.cfi_offset 4, -12
  87              		.cfi_offset 7, -8
ARM GAS  C:\Users\MICKKI~1\AppData\Local\Temp\ccnbVy68.s 			page 3


  88              		.cfi_offset 14, -4
  89 0002 87B0     		sub	sp, sp, #28
  90              	.LCFI5:
  91              		.cfi_def_cfa_offset 40
  92 0004 00AF     		add	r7, sp, #0
  93              	.LCFI6:
  94              		.cfi_def_cfa_register 7
  95 0006 7860     		str	r0, [r7, #4]
  28:.\humiSensor.c ****     //Varibles 
  29:.\humiSensor.c ****     int16 ADCresult;
  30:.\humiSensor.c ****     uint8 ADC_Channel = 0;
  96              		.loc 1 30 0
  97 0008 3B1C     		mov	r3, r7
  98 000a 1733     		add	r3, r3, #23
  99 000c 0022     		mov	r2, #0
 100 000e 1A70     		strb	r2, [r3]
  31:.\humiSensor.c ****     uint8 select = 1;
 101              		.loc 1 31 0
 102 0010 3B1C     		mov	r3, r7
 103 0012 1633     		add	r3, r3, #22
 104 0014 0122     		mov	r2, #1
 105 0016 1A70     		strb	r2, [r3]
  32:.\humiSensor.c ****     float vin_result;
  33:.\humiSensor.c ****     float pwm_result;
  34:.\humiSensor.c ****    
  35:.\humiSensor.c ****     //Set SCL high for humi data out
  36:.\humiSensor.c ****     P_FT2_Write(select);
 106              		.loc 1 36 0
 107 0018 3B1C     		mov	r3, r7
 108 001a 1633     		add	r3, r3, #22
 109 001c 1B78     		ldrb	r3, [r3]
 110 001e 181C     		mov	r0, r3
 111 0020 FFF7FEFF 		bl	P_FT2_Write
  37:.\humiSensor.c ****     
  38:.\humiSensor.c ****     //Start conversion
  39:.\humiSensor.c ****     ADC_SAR_Seq_0_StartConvert();
 112              		.loc 1 39 0
 113 0024 FFF7FEFF 		bl	ADC_SAR_Seq_0_StartConvert
  40:.\humiSensor.c ****    
  41:.\humiSensor.c ****     //Wait until conversion is done
  42:.\humiSensor.c ****     ADC_SAR_Seq_0_IsEndConversion(ADC_SAR_Seq_0_WAIT_FOR_RESULT);
 114              		.loc 1 42 0
 115 0028 0220     		mov	r0, #2
 116 002a FFF7FEFF 		bl	ADC_SAR_Seq_0_IsEndConversion
  43:.\humiSensor.c ****     
  44:.\humiSensor.c ****     //Read value from ADC register
  45:.\humiSensor.c ****     ADCresult = ADC_SAR_Seq_0_GetResult16(ADC_Channel);
 117              		.loc 1 45 0
 118 002e 3B1C     		mov	r3, r7
 119 0030 1733     		add	r3, r3, #23
 120 0032 1B78     		ldrb	r3, [r3]
 121 0034 3C1C     		mov	r4, r7
 122 0036 1434     		add	r4, r4, #20
 123 0038 181C     		mov	r0, r3
 124 003a FFF7FEFF 		bl	ADC_SAR_Seq_0_GetResult16
 125 003e 031C     		mov	r3, r0
 126 0040 2380     		strh	r3, [r4]
ARM GAS  C:\Users\MICKKI~1\AppData\Local\Temp\ccnbVy68.s 			page 4


  46:.\humiSensor.c **** 
  47:.\humiSensor.c ****     //Convert to voltage
  48:.\humiSensor.c ****     vin_result = ADC_SAR_Seq_0_CountsTo_Volts(ADC_Channel, ADCresult);
 127              		.loc 1 48 0
 128 0042 3B1C     		mov	r3, r7
 129 0044 1733     		add	r3, r3, #23
 130 0046 1A78     		ldrb	r2, [r3]
 131 0048 3B1C     		mov	r3, r7
 132 004a 1433     		add	r3, r3, #20
 133 004c 0021     		mov	r1, #0
 134 004e 5B5E     		ldrsh	r3, [r3, r1]
 135 0050 101C     		mov	r0, r2
 136 0052 191C     		mov	r1, r3
 137 0054 FFF7FEFF 		bl	ADC_SAR_Seq_0_CountsTo_Volts
 138 0058 031C     		add	r3, r0, #0
 139 005a 3B61     		str	r3, [r7, #16]
  49:.\humiSensor.c **** 
  50:.\humiSensor.c ****     //Conver from voltage to PWM
  51:.\humiSensor.c ****     pwm_result = (vin_result/vin_max);
 140              		.loc 1 51 0
 141 005c 3869     		ldr	r0, [r7, #16]
 142 005e FFF7FEFF 		bl	__aeabi_f2d
 143 0062 031C     		mov	r3, r0
 144 0064 0C1C     		mov	r4, r1
 145 0066 181C     		mov	r0, r3
 146 0068 211C     		mov	r1, r4
 147 006a 104B     		ldr	r3, .L5+4
 148 006c 0E4A     		ldr	r2, .L5
 149 006e FFF7FEFF 		bl	__aeabi_ddiv
 150 0072 031C     		mov	r3, r0
 151 0074 0C1C     		mov	r4, r1
 152 0076 181C     		mov	r0, r3
 153 0078 211C     		mov	r1, r4
 154 007a FFF7FEFF 		bl	__aeabi_d2f
 155 007e 031C     		add	r3, r0, #0
 156 0080 FB60     		str	r3, [r7, #12]
  52:.\humiSensor.c **** 
  53:.\humiSensor.c ****     //Store trueData in val pointer
  54:.\humiSensor.c ****     *val = -6+125*(pwm_result);
 157              		.loc 1 54 0
 158 0082 F868     		ldr	r0, [r7, #12]
 159 0084 0A49     		ldr	r1, .L5+8
 160 0086 FFF7FEFF 		bl	__aeabi_fmul
 161 008a 031C     		add	r3, r0, #0
 162 008c 181C     		add	r0, r3, #0
 163 008e 0949     		ldr	r1, .L5+12
 164 0090 FFF7FEFF 		bl	__aeabi_fsub
 165 0094 031C     		add	r3, r0, #0
 166 0096 1A1C     		add	r2, r3, #0
 167 0098 7B68     		ldr	r3, [r7, #4]
 168 009a 1A60     		str	r2, [r3]
  55:.\humiSensor.c **** 
  56:.\humiSensor.c ****     return 0;
 169              		.loc 1 56 0
 170 009c 0023     		mov	r3, #0
  57:.\humiSensor.c **** }
 171              		.loc 1 57 0
ARM GAS  C:\Users\MICKKI~1\AppData\Local\Temp\ccnbVy68.s 			page 5


 172 009e 181C     		mov	r0, r3
 173 00a0 BD46     		mov	sp, r7
 174 00a2 07B0     		add	sp, sp, #28
 175              		@ sp needed for prologue
 176 00a4 90BD     		pop	{r4, r7, pc}
 177              	.L6:
 178 00a6 C046     		.align	3
 179              	.L5:
 180 00a8 66666666 		.word	1717986918
 181 00ac 66660A40 		.word	1074423398
 182 00b0 0000FA42 		.word	1123680256
 183 00b4 0000C040 		.word	1086324736
 184              		.cfi_endproc
 185              	.LFE35:
 186              		.size	humiSensor_getValue, .-humiSensor_getValue
 187              		.text
 188              	.Letext0:
 189              		.file 2 "./Generated_Source/PSoC4/cytypes.h"