ARM GAS  C:\Users\JAKOB-~1\AppData\Local\Temp\ccnaf9iw.s 			page 1


   1              		.cpu cortex-m0
   2              		.fpu softvfp
   3              		.eabi_attribute 20, 1
   4              		.eabi_attribute 21, 1
   5              		.eabi_attribute 23, 3
   6              		.eabi_attribute 24, 1
   7              		.eabi_attribute 25, 1
   8              		.eabi_attribute 26, 1
   9              		.eabi_attribute 30, 6
  10              		.eabi_attribute 34, 0
  11              		.eabi_attribute 18, 4
  12              		.code	16
  13              		.file	"sensorPackage.c"
  14              		.text
  15              	.Ltext0:
  16              		.cfi_sections	.debug_frame
  17              		.section	.text.sensorPackage_init,"ax",%progbits
  18              		.align	2
  19              		.global	sensorPackage_init
  20              		.code	16
  21              		.thumb_func
  22              		.type	sensorPackage_init, %function
  23              	sensorPackage_init:
  24              	.LFB33:
  25              		.file 1 ".\\sensorPackage.c"
   1:.\sensorPackage.c **** 
   2:.\sensorPackage.c **** //sensorPackage.c
   3:.\sensorPackage.c **** //
   4:.\sensorPackage.c **** //Author: Jakob Schmidt
   5:.\sensorPackage.c **** //Version: 1.3
   6:.\sensorPackage.c **** //Date: 17-14-11
   7:.\sensorPackage.c **** 
   8:.\sensorPackage.c **** #include "sensorPackage.h"
   9:.\sensorPackage.c **** 
  10:.\sensorPackage.c **** //Private attributes
  11:.\sensorPackage.c **** 
  12:.\sensorPackage.c **** //Private operations
  13:.\sensorPackage.c **** 
  14:.\sensorPackage.c **** //Implementations
  15:.\sensorPackage.c **** void sensorPackage_init()
  16:.\sensorPackage.c **** {
  26              		.loc 1 16 0
  27              		.cfi_startproc
  28 0000 80B5     		push	{r7, lr}
  29              	.LCFI0:
  30              		.cfi_def_cfa_offset 8
  31              		.cfi_offset 7, -8
  32              		.cfi_offset 14, -4
  33 0002 00AF     		add	r7, sp, #0
  34              	.LCFI1:
  35              		.cfi_def_cfa_register 7
  17:.\sensorPackage.c ****     //Start components
  18:.\sensorPackage.c ****     ADC_SAR_Seq_0_Start();
  36              		.loc 1 18 0
  37 0004 FFF7FEFF 		bl	ADC_SAR_Seq_0_Start
  19:.\sensorPackage.c ****     
  20:.\sensorPackage.c ****     //initialize "objects"
ARM GAS  C:\Users\JAKOB-~1\AppData\Local\Temp\ccnaf9iw.s 			page 2


  21:.\sensorPackage.c ****     sprinkler_init();
  38              		.loc 1 21 0
  39 0008 FFF7FEFF 		bl	sprinkler_init
  22:.\sensorPackage.c ****     tempSensor_init();
  40              		.loc 1 22 0
  41 000c FFF7FEFF 		bl	tempSensor_init
  23:.\sensorPackage.c ****     humiSensor_init();
  42              		.loc 1 23 0
  43 0010 FFF7FEFF 		bl	humiSensor_init
  24:.\sensorPackage.c ****     
  25:.\sensorPackage.c **** }
  44              		.loc 1 25 0
  45 0014 BD46     		mov	sp, r7
  46              		@ sp needed for prologue
  47 0016 80BD     		pop	{r7, pc}
  48              		.cfi_endproc
  49              	.LFE33:
  50              		.size	sensorPackage_init, .-sensorPackage_init
  51              		.section	.text.sensorPackage_exit,"ax",%progbits
  52              		.align	2
  53              		.global	sensorPackage_exit
  54              		.code	16
  55              		.thumb_func
  56              		.type	sensorPackage_exit, %function
  57              	sensorPackage_exit:
  58              	.LFB34:
  26:.\sensorPackage.c **** 
  27:.\sensorPackage.c **** void sensorPackage_exit()
  28:.\sensorPackage.c **** {
  59              		.loc 1 28 0
  60              		.cfi_startproc
  61 0000 80B5     		push	{r7, lr}
  62              	.LCFI2:
  63              		.cfi_def_cfa_offset 8
  64              		.cfi_offset 7, -8
  65              		.cfi_offset 14, -4
  66 0002 00AF     		add	r7, sp, #0
  67              	.LCFI3:
  68              		.cfi_def_cfa_register 7
  29:.\sensorPackage.c ****     //Stop components
  30:.\sensorPackage.c ****     ADC_SAR_Seq_0_Stop();
  69              		.loc 1 30 0
  70 0004 FFF7FEFF 		bl	ADC_SAR_Seq_0_Stop
  31:.\sensorPackage.c **** }
  71              		.loc 1 31 0
  72 0008 BD46     		mov	sp, r7
  73              		@ sp needed for prologue
  74 000a 80BD     		pop	{r7, pc}
  75              		.cfi_endproc
  76              	.LFE34:
  77              		.size	sensorPackage_exit, .-sensorPackage_exit
  78              		.section	.text.sensorPackage_getData,"ax",%progbits
  79              		.align	2
  80              		.global	sensorPackage_getData
  81              		.code	16
  82              		.thumb_func
  83              		.type	sensorPackage_getData, %function
ARM GAS  C:\Users\JAKOB-~1\AppData\Local\Temp\ccnaf9iw.s 			page 3


  84              	sensorPackage_getData:
  85              	.LFB35:
  32:.\sensorPackage.c **** 
  33:.\sensorPackage.c **** //Public methods implementations
  34:.\sensorPackage.c **** int sensorPackage_getData(float *temp_, float *humi_)
  35:.\sensorPackage.c **** {
  86              		.loc 1 35 0
  87              		.cfi_startproc
  88 0000 80B5     		push	{r7, lr}
  89              	.LCFI4:
  90              		.cfi_def_cfa_offset 8
  91              		.cfi_offset 7, -8
  92              		.cfi_offset 14, -4
  93 0002 82B0     		sub	sp, sp, #8
  94              	.LCFI5:
  95              		.cfi_def_cfa_offset 16
  96 0004 00AF     		add	r7, sp, #0
  97              	.LCFI6:
  98              		.cfi_def_cfa_register 7
  99 0006 7860     		str	r0, [r7, #4]
 100 0008 3960     		str	r1, [r7]
  36:.\sensorPackage.c ****     tempSensor_getValue(temp_);
 101              		.loc 1 36 0
 102 000a 7B68     		ldr	r3, [r7, #4]
 103 000c 181C     		mov	r0, r3
 104 000e FFF7FEFF 		bl	tempSensor_getValue
  37:.\sensorPackage.c ****     humiSensor_getValue(humi_);
 105              		.loc 1 37 0
 106 0012 3B68     		ldr	r3, [r7]
 107 0014 181C     		mov	r0, r3
 108 0016 FFF7FEFF 		bl	humiSensor_getValue
  38:.\sensorPackage.c ****     
  39:.\sensorPackage.c ****     return 0; 
 109              		.loc 1 39 0
 110 001a 0023     		mov	r3, #0
  40:.\sensorPackage.c **** }
 111              		.loc 1 40 0
 112 001c 181C     		mov	r0, r3
 113 001e BD46     		mov	sp, r7
 114 0020 02B0     		add	sp, sp, #8
 115              		@ sp needed for prologue
 116 0022 80BD     		pop	{r7, pc}
 117              		.cfi_endproc
 118              	.LFE35:
 119              		.size	sensorPackage_getData, .-sensorPackage_getData
 120              		.section	.text.sensorPackage_water,"ax",%progbits
 121              		.align	2
 122              		.global	sensorPackage_water
 123              		.code	16
 124              		.thumb_func
 125              		.type	sensorPackage_water, %function
 126              	sensorPackage_water:
 127              	.LFB36:
  41:.\sensorPackage.c **** 
  42:.\sensorPackage.c **** int sensorPackage_water(unsigned char water)
  43:.\sensorPackage.c **** {
 128              		.loc 1 43 0
ARM GAS  C:\Users\JAKOB-~1\AppData\Local\Temp\ccnaf9iw.s 			page 4


 129              		.cfi_startproc
 130 0000 80B5     		push	{r7, lr}
 131              	.LCFI7:
 132              		.cfi_def_cfa_offset 8
 133              		.cfi_offset 7, -8
 134              		.cfi_offset 14, -4
 135 0002 82B0     		sub	sp, sp, #8
 136              	.LCFI8:
 137              		.cfi_def_cfa_offset 16
 138 0004 00AF     		add	r7, sp, #0
 139              	.LCFI9:
 140              		.cfi_def_cfa_register 7
 141 0006 021C     		mov	r2, r0
 142 0008 FB1D     		add	r3, r7, #7
 143 000a 1A70     		strb	r2, [r3]
  44:.\sensorPackage.c ****     sprinkler_setValue(water);
 144              		.loc 1 44 0
 145 000c FB1D     		add	r3, r7, #7
 146 000e 1B78     		ldrb	r3, [r3]
 147 0010 181C     		mov	r0, r3
 148 0012 FFF7FEFF 		bl	sprinkler_setValue
  45:.\sensorPackage.c ****     
  46:.\sensorPackage.c ****     return 0;
 149              		.loc 1 46 0
 150 0016 0023     		mov	r3, #0
  47:.\sensorPackage.c **** }...
 151              		.loc 1 47 0
 152 0018 181C     		mov	r0, r3
 153 001a BD46     		mov	sp, r7
 154 001c 02B0     		add	sp, sp, #8
 155              		@ sp needed for prologue
 156 001e 80BD     		pop	{r7, pc}
 157              		.cfi_endproc
 158              	.LFE36:
 159              		.size	sensorPackage_water, .-sensorPackage_water
 160              		.text
 161              	.Letext0: