ARM GAS  C:\Users\JAKOB-~1\AppData\Local\Temp\ccrH0gX5.s 			page 1


   1              		.cpu cortex-m0
   2              		.fpu softvfp
   3              		.eabi_attribute 20, 1
   4              		.eabi_attribute 21, 1
   5              		.eabi_attribute 23, 3
   6              		.eabi_attribute 24, 1
   7              		.eabi_attribute 25, 1
   8              		.eabi_attribute 26, 1
   9              		.eabi_attribute 30, 6
  10              		.eabi_attribute 34, 0
  11              		.eabi_attribute 18, 4
  12              		.code	16
  13              		.file	"tempSensor.c"
  14              		.text
  15              	.Ltext0:
  16              		.cfi_sections	.debug_frame
  17              		.section	.text.tempSensor_init,"ax",%progbits
  18              		.align	2
  19              		.global	tempSensor_init
  20              		.code	16
  21              		.thumb_func
  22              		.type	tempSensor_init, %function
  23              	tempSensor_init:
  24              	.LFB33:
  25              		.file 1 "X:\\3.Semester\\PRJ3\\psoc_api_2\\psoc_api_2.cydsn\\tempSensor.c"
   1:X:\3.Semester\PRJ3\psoc_api_2\psoc_api_2.cydsn\tempSensor.c **** //tempSensor.c
   2:X:\3.Semester\PRJ3\psoc_api_2\psoc_api_2.cydsn\tempSensor.c **** //
   3:X:\3.Semester\PRJ3\psoc_api_2\psoc_api_2.cydsn\tempSensor.c **** //Author: Jakob Schmidt
   4:X:\3.Semester\PRJ3\psoc_api_2\psoc_api_2.cydsn\tempSensor.c **** //Version: 1.2
   5:X:\3.Semester\PRJ3\psoc_api_2\psoc_api_2.cydsn\tempSensor.c **** //Date: 14-11-14
   6:X:\3.Semester\PRJ3\psoc_api_2\psoc_api_2.cydsn\tempSensor.c **** 
   7:X:\3.Semester\PRJ3\psoc_api_2\psoc_api_2.cydsn\tempSensor.c **** #include "tempSensor.h"
   8:X:\3.Semester\PRJ3\psoc_api_2\psoc_api_2.cydsn\tempSensor.c **** #include "sensorPackage.h"
   9:X:\3.Semester\PRJ3\psoc_api_2\psoc_api_2.cydsn\tempSensor.c **** 
  10:X:\3.Semester\PRJ3\psoc_api_2\psoc_api_2.cydsn\tempSensor.c **** #define CHANNEL_1 0
  11:X:\3.Semester\PRJ3\psoc_api_2\psoc_api_2.cydsn\tempSensor.c **** 
  12:X:\3.Semester\PRJ3\psoc_api_2\psoc_api_2.cydsn\tempSensor.c **** void tempSensor_init()
  13:X:\3.Semester\PRJ3\psoc_api_2\psoc_api_2.cydsn\tempSensor.c **** {
  26              		.loc 1 13 0
  27              		.cfi_startproc
  28 0000 80B5     		push	{r7, lr}
  29              	.LCFI0:
  30              		.cfi_def_cfa_offset 8
  31              		.cfi_offset 7, -8
  32              		.cfi_offset 14, -4
  33 0002 00AF     		add	r7, sp, #0
  34              	.LCFI1:
  35              		.cfi_def_cfa_register 7
  14:X:\3.Semester\PRJ3\psoc_api_2\psoc_api_2.cydsn\tempSensor.c ****    //Do nothing
  15:X:\3.Semester\PRJ3\psoc_api_2\psoc_api_2.cydsn\tempSensor.c **** }
  36              		.loc 1 15 0
  37 0004 BD46     		mov	sp, r7
  38              		@ sp needed for prologue
  39 0006 80BD     		pop	{r7, pc}
  40              		.cfi_endproc
  41              	.LFE33:
  42              		.size	tempSensor_init, .-tempSensor_init
ARM GAS  C:\Users\JAKOB-~1\AppData\Local\Temp\ccrH0gX5.s 			page 2


  43              		.section	.text.tempSensor_exit,"ax",%progbits
  44              		.align	2
  45              		.global	tempSensor_exit
  46              		.code	16
  47              		.thumb_func
  48              		.type	tempSensor_exit, %function
  49              	tempSensor_exit:
  50              	.LFB34:
  16:X:\3.Semester\PRJ3\psoc_api_2\psoc_api_2.cydsn\tempSensor.c **** 
  17:X:\3.Semester\PRJ3\psoc_api_2\psoc_api_2.cydsn\tempSensor.c **** 
  18:X:\3.Semester\PRJ3\psoc_api_2\psoc_api_2.cydsn\tempSensor.c **** void tempSensor_exit()
  19:X:\3.Semester\PRJ3\psoc_api_2\psoc_api_2.cydsn\tempSensor.c **** {
  51              		.loc 1 19 0
  52              		.cfi_startproc
  53 0000 80B5     		push	{r7, lr}
  54              	.LCFI2:
  55              		.cfi_def_cfa_offset 8
  56              		.cfi_offset 7, -8
  57              		.cfi_offset 14, -4
  58 0002 00AF     		add	r7, sp, #0
  59              	.LCFI3:
  60              		.cfi_def_cfa_register 7
  20:X:\3.Semester\PRJ3\psoc_api_2\psoc_api_2.cydsn\tempSensor.c ****     //Do nothing
  21:X:\3.Semester\PRJ3\psoc_api_2\psoc_api_2.cydsn\tempSensor.c **** }
  61              		.loc 1 21 0
  62 0004 BD46     		mov	sp, r7
  63              		@ sp needed for prologue
  64 0006 80BD     		pop	{r7, pc}
  65              		.cfi_endproc
  66              	.LFE34:
  67              		.size	tempSensor_exit, .-tempSensor_exit
  68              		.global	__aeabi_f2d
  69              		.global	__aeabi_ddiv
  70              		.global	__aeabi_d2f
  71              		.global	__aeabi_dmul
  72              		.global	__aeabi_dsub
  73              		.section	.text.tempSensor_getValue,"ax",%progbits
  74              		.align	2
  75              		.global	tempSensor_getValue
  76              		.code	16
  77              		.thumb_func
  78              		.type	tempSensor_getValue, %function
  79              	tempSensor_getValue:
  80              	.LFB35:
  22:X:\3.Semester\PRJ3\psoc_api_2\psoc_api_2.cydsn\tempSensor.c **** 
  23:X:\3.Semester\PRJ3\psoc_api_2\psoc_api_2.cydsn\tempSensor.c **** 
  24:X:\3.Semester\PRJ3\psoc_api_2\psoc_api_2.cydsn\tempSensor.c **** //Public methods implementation
  25:X:\3.Semester\PRJ3\psoc_api_2\psoc_api_2.cydsn\tempSensor.c **** int tempSensor_getValue(float *val)
  26:X:\3.Semester\PRJ3\psoc_api_2\psoc_api_2.cydsn\tempSensor.c **** {
  81              		.loc 1 26 0
  82              		.cfi_startproc
  83 0000 90B5     		push	{r4, r7, lr}
  84              	.LCFI4:
  85              		.cfi_def_cfa_offset 12
  86              		.cfi_offset 4, -12
  87              		.cfi_offset 7, -8
  88              		.cfi_offset 14, -4
ARM GAS  C:\Users\JAKOB-~1\AppData\Local\Temp\ccrH0gX5.s 			page 3


  89 0002 87B0     		sub	sp, sp, #28
  90              	.LCFI5:
  91              		.cfi_def_cfa_offset 40
  92 0004 00AF     		add	r7, sp, #0
  93              	.LCFI6:
  94              		.cfi_def_cfa_register 7
  95 0006 7860     		str	r0, [r7, #4]
  27:X:\3.Semester\PRJ3\psoc_api_2\psoc_api_2.cydsn\tempSensor.c ****     //Varibles
  28:X:\3.Semester\PRJ3\psoc_api_2\psoc_api_2.cydsn\tempSensor.c ****     int16 ADCresult;
  29:X:\3.Semester\PRJ3\psoc_api_2\psoc_api_2.cydsn\tempSensor.c ****     //uint8 ADC_Channel = 0;
  30:X:\3.Semester\PRJ3\psoc_api_2\psoc_api_2.cydsn\tempSensor.c ****     uint8 select = 0;
  96              		.loc 1 30 0
  97 0008 3B1C     		mov	r3, r7
  98 000a 1733     		add	r3, r3, #23
  99 000c 0022     		mov	r2, #0
 100 000e 1A70     		strb	r2, [r3]
  31:X:\3.Semester\PRJ3\psoc_api_2\psoc_api_2.cydsn\tempSensor.c ****     float vin_result;
  32:X:\3.Semester\PRJ3\psoc_api_2\psoc_api_2.cydsn\tempSensor.c ****     float pwm_result;
  33:X:\3.Semester\PRJ3\psoc_api_2\psoc_api_2.cydsn\tempSensor.c ****     
  34:X:\3.Semester\PRJ3\psoc_api_2\psoc_api_2.cydsn\tempSensor.c ****     //Set SCL low for temp data out
  35:X:\3.Semester\PRJ3\psoc_api_2\psoc_api_2.cydsn\tempSensor.c ****     P_FT2_Write(select);
 101              		.loc 1 35 0
 102 0010 3B1C     		mov	r3, r7
 103 0012 1733     		add	r3, r3, #23
 104 0014 1B78     		ldrb	r3, [r3]
 105 0016 181C     		mov	r0, r3
 106 0018 FFF7FEFF 		bl	P_FT2_Write
  36:X:\3.Semester\PRJ3\psoc_api_2\psoc_api_2.cydsn\tempSensor.c ****     
  37:X:\3.Semester\PRJ3\psoc_api_2\psoc_api_2.cydsn\tempSensor.c ****     //Start conversion
  38:X:\3.Semester\PRJ3\psoc_api_2\psoc_api_2.cydsn\tempSensor.c ****     ADC_SAR_Seq_0_StartConvert();
 107              		.loc 1 38 0
 108 001c FFF7FEFF 		bl	ADC_SAR_Seq_0_StartConvert
  39:X:\3.Semester\PRJ3\psoc_api_2\psoc_api_2.cydsn\tempSensor.c ****     
  40:X:\3.Semester\PRJ3\psoc_api_2\psoc_api_2.cydsn\tempSensor.c ****     //Wait until conversion is done
  41:X:\3.Semester\PRJ3\psoc_api_2\psoc_api_2.cydsn\tempSensor.c ****     ADC_SAR_Seq_0_IsEndConversion(ADC_SAR_Seq_0_WAIT_FOR_RESULT);
 109              		.loc 1 41 0
 110 0020 0220     		mov	r0, #2
 111 0022 FFF7FEFF 		bl	ADC_SAR_Seq_0_IsEndConversion
  42:X:\3.Semester\PRJ3\psoc_api_2\psoc_api_2.cydsn\tempSensor.c ****     
  43:X:\3.Semester\PRJ3\psoc_api_2\psoc_api_2.cydsn\tempSensor.c ****     //Read value from ADC register
  44:X:\3.Semester\PRJ3\psoc_api_2\psoc_api_2.cydsn\tempSensor.c ****     ADCresult = ADC_SAR_Seq_0_GetResult16(CHANNEL_1);
 112              		.loc 1 44 0
 113 0026 3C1C     		mov	r4, r7
 114 0028 1434     		add	r4, r4, #20
 115 002a 0020     		mov	r0, #0
 116 002c FFF7FEFF 		bl	ADC_SAR_Seq_0_GetResult16
 117 0030 031C     		mov	r3, r0
 118 0032 2380     		strh	r3, [r4]
  45:X:\3.Semester\PRJ3\psoc_api_2\psoc_api_2.cydsn\tempSensor.c **** 
  46:X:\3.Semester\PRJ3\psoc_api_2\psoc_api_2.cydsn\tempSensor.c ****     //Convert to voltage
  47:X:\3.Semester\PRJ3\psoc_api_2\psoc_api_2.cydsn\tempSensor.c ****     vin_result = ADC_SAR_Seq_0_CountsTo_Volts(CHANNEL_1, ADCresult);
 119              		.loc 1 47 0
 120 0034 3B1C     		mov	r3, r7
 121 0036 1433     		add	r3, r3, #20
 122 0038 0022     		mov	r2, #0
 123 003a 9B5E     		ldrsh	r3, [r3, r2]
 124 003c 0020     		mov	r0, #0
ARM GAS  C:\Users\JAKOB-~1\AppData\Local\Temp\ccrH0gX5.s 			page 4


 125 003e 191C     		mov	r1, r3
 126 0040 FFF7FEFF 		bl	ADC_SAR_Seq_0_CountsTo_Volts
 127 0044 031C     		add	r3, r0, #0
 128 0046 3B61     		str	r3, [r7, #16]
  48:X:\3.Semester\PRJ3\psoc_api_2\psoc_api_2.cydsn\tempSensor.c **** 
  49:X:\3.Semester\PRJ3\psoc_api_2\psoc_api_2.cydsn\tempSensor.c ****     //Conver from voltage to PWM
  50:X:\3.Semester\PRJ3\psoc_api_2\psoc_api_2.cydsn\tempSensor.c ****     pwm_result = (vin_result/vin_max);
 129              		.loc 1 50 0
 130 0048 3869     		ldr	r0, [r7, #16]
 131 004a FFF7FEFF 		bl	__aeabi_f2d
 132 004e 031C     		mov	r3, r0
 133 0050 0C1C     		mov	r4, r1
 134 0052 181C     		mov	r0, r3
 135 0054 211C     		mov	r1, r4
 136 0056 174B     		ldr	r3, .L5+4
 137 0058 154A     		ldr	r2, .L5
 138 005a FFF7FEFF 		bl	__aeabi_ddiv
 139 005e 031C     		mov	r3, r0
 140 0060 0C1C     		mov	r4, r1
 141 0062 181C     		mov	r0, r3
 142 0064 211C     		mov	r1, r4
 143 0066 FFF7FEFF 		bl	__aeabi_d2f
 144 006a 031C     		add	r3, r0, #0
 145 006c FB60     		str	r3, [r7, #12]
  51:X:\3.Semester\PRJ3\psoc_api_2\psoc_api_2.cydsn\tempSensor.c ****     
  52:X:\3.Semester\PRJ3\psoc_api_2\psoc_api_2.cydsn\tempSensor.c ****     //Store trueData in val pointer
  53:X:\3.Semester\PRJ3\psoc_api_2\psoc_api_2.cydsn\tempSensor.c ****     *val = -46.85+175.72*(pwm_result);
 146              		.loc 1 53 0
 147 006e F868     		ldr	r0, [r7, #12]
 148 0070 FFF7FEFF 		bl	__aeabi_f2d
 149 0074 031C     		mov	r3, r0
 150 0076 0C1C     		mov	r4, r1
 151 0078 181C     		mov	r0, r3
 152 007a 211C     		mov	r1, r4
 153 007c 0E4A     		ldr	r2, .L5+8
 154 007e 0F4B     		ldr	r3, .L5+12
 155 0080 FFF7FEFF 		bl	__aeabi_dmul
 156 0084 031C     		mov	r3, r0
 157 0086 0C1C     		mov	r4, r1
 158 0088 181C     		mov	r0, r3
 159 008a 211C     		mov	r1, r4
 160 008c 0C4A     		ldr	r2, .L5+16
 161 008e 0D4B     		ldr	r3, .L5+20
 162 0090 FFF7FEFF 		bl	__aeabi_dsub
 163 0094 031C     		mov	r3, r0
 164 0096 0C1C     		mov	r4, r1
 165 0098 181C     		mov	r0, r3
 166 009a 211C     		mov	r1, r4
 167 009c FFF7FEFF 		bl	__aeabi_d2f
 168 00a0 021C     		add	r2, r0, #0
 169 00a2 7B68     		ldr	r3, [r7, #4]
 170 00a4 1A60     		str	r2, [r3]
  54:X:\3.Semester\PRJ3\psoc_api_2\psoc_api_2.cydsn\tempSensor.c ****     
  55:X:\3.Semester\PRJ3\psoc_api_2\psoc_api_2.cydsn\tempSensor.c ****     return 0;
 171              		.loc 1 55 0
 172 00a6 0023     		mov	r3, #0
  56:X:\3.Semester\PRJ3\psoc_api_2\psoc_api_2.cydsn\tempSensor.c **** }...
ARM GAS  C:\Users\JAKOB-~1\AppData\Local\Temp\ccrH0gX5.s 			page 5


 173              		.loc 1 56 0
 174 00a8 181C     		mov	r0, r3
 175 00aa BD46     		mov	sp, r7
 176 00ac 07B0     		add	sp, sp, #28
 177              		@ sp needed for prologue
 178 00ae 90BD     		pop	{r4, r7, pc}
 179              	.L6:
 180              		.align	3
 181              	.L5:
 182 00b0 66666666 		.word	1717986918
 183 00b4 66660A40 		.word	1074423398
 184 00b8 D7A3703D 		.word	1030792151
 185 00bc 0AF76540 		.word	1080424202
 186 00c0 CDCCCCCC 		.word	-858993459
 187 00c4 CC6C4740 		.word	1078422732
 188              		.cfi_endproc
 189              	.LFE35:
 190              		.size	tempSensor_getValue, .-tempSensor_getValue
 191              		.text
 192              	.Letext0:
 193              		.file 2 "./Generated_Source/PSoC4/cytypes.h"