ARM GAS  C:\Users\BJRN~1\AppData\Local\Temp\ccTiv3uN.s 			page 1


   1              		.cpu cortex-m0
   2              		.fpu softvfp
   3              		.eabi_attribute 20, 1
   4              		.eabi_attribute 21, 1
   5              		.eabi_attribute 23, 3
   6              		.eabi_attribute 24, 1
   7              		.eabi_attribute 25, 1
   8              		.eabi_attribute 26, 1
   9              		.eabi_attribute 30, 6
  10              		.eabi_attribute 34, 0
  11              		.eabi_attribute 18, 4
  12              		.code	16
  13              		.file	"buffer.c"
  14              		.text
  15              	.Ltext0:
  16              		.cfi_sections	.debug_frame
  17              		.section	.text.buffer_init,"ax",%progbits
  18              		.align	2
  19              		.global	buffer_init
  20              		.code	16
  21              		.thumb_func
  22              		.type	buffer_init, %function
  23              	buffer_init:
  24              	.LFB0:
  25              		.file 1 ".\\buffer.c"
   1:.\buffer.c    **** /*
   2:.\buffer.c    **** * File: buffer.c
   3:.\buffer.c    **** * Description: Implementation for EasyWater8000 class buffer
   4:.\buffer.c    **** * Project: PRJ3
   5:.\buffer.c    **** * 
   6:.\buffer.c    **** * Author: Bjørn Sørensen
   7:.\buffer.c    **** */
   8:.\buffer.c    **** 
   9:.\buffer.c    **** #include "buffer.h"
  10:.\buffer.c    **** 
  11:.\buffer.c    **** // Public methods:
  12:.\buffer.c    **** void buffer_init( buffer * const this )
  13:.\buffer.c    **** {
  26              		.loc 1 13 0
  27              		.cfi_startproc
  28 0000 80B5     		push	{r7, lr}
  29              	.LCFI0:
  30              		.cfi_def_cfa_offset 8
  31              		.cfi_offset 7, -8
  32              		.cfi_offset 14, -4
  33 0002 84B0     		sub	sp, sp, #16
  34              	.LCFI1:
  35              		.cfi_def_cfa_offset 24
  36 0004 00AF     		add	r7, sp, #0
  37              	.LCFI2:
  38              		.cfi_def_cfa_register 7
  39 0006 7860     		str	r0, [r7, #4]
  14:.\buffer.c    ****     // Initialize members
  15:.\buffer.c    ****     unsigned int i;
  16:.\buffer.c    ****     for(i = 0; i < BUFFER_LENGTH; i++)
  40              		.loc 1 16 0
  41 0008 0023     		mov	r3, #0
ARM GAS  C:\Users\BJRN~1\AppData\Local\Temp\ccTiv3uN.s 			page 2


  42 000a FB60     		str	r3, [r7, #12]
  43 000c 07E0     		b	.L2
  44              	.L3:
  17:.\buffer.c    ****         this->buffer_[i] = 0;
  45              		.loc 1 17 0 discriminator 2
  46 000e 7A68     		ldr	r2, [r7, #4]
  47 0010 FB68     		ldr	r3, [r7, #12]
  48 0012 D318     		add	r3, r2, r3
  49 0014 0022     		mov	r2, #0
  50 0016 1A70     		strb	r2, [r3]
  16:.\buffer.c    ****     for(i = 0; i < BUFFER_LENGTH; i++)
  51              		.loc 1 16 0 discriminator 2
  52 0018 FB68     		ldr	r3, [r7, #12]
  53 001a 0133     		add	r3, r3, #1
  54 001c FB60     		str	r3, [r7, #12]
  55              	.L2:
  16:.\buffer.c    ****     for(i = 0; i < BUFFER_LENGTH; i++)
  56              		.loc 1 16 0 is_stmt 0 discriminator 1
  57 001e FB68     		ldr	r3, [r7, #12]
  58 0020 322B     		cmp	r3, #50
  59 0022 F4D9     		bls	.L3
  18:.\buffer.c    ****     
  19:.\buffer.c    ****    this->cursor_ = 0;
  60              		.loc 1 19 0 is_stmt 1
  61 0024 7B68     		ldr	r3, [r7, #4]
  62 0026 0022     		mov	r2, #0
  63 0028 9A63     		str	r2, [r3, #56]
  20:.\buffer.c    ****    this->len_ = BUFFER_LENGTH;
  64              		.loc 1 20 0
  65 002a 7B68     		ldr	r3, [r7, #4]
  66 002c 3322     		mov	r2, #51
  67 002e 5A63     		str	r2, [r3, #52]
  21:.\buffer.c    **** }
  68              		.loc 1 21 0
  69 0030 BD46     		mov	sp, r7
  70 0032 04B0     		add	sp, sp, #16
  71              		@ sp needed for prologue
  72 0034 80BD     		pop	{r7, pc}
  73              		.cfi_endproc
  74              	.LFE0:
  75              		.size	buffer_init, .-buffer_init
  76 0036 C046     		.section	.text.buffer_saveData,"ax",%progbits
  77              		.align	2
  78              		.global	buffer_saveData
  79              		.code	16
  80              		.thumb_func
  81              		.type	buffer_saveData, %function
  82              	buffer_saveData:
  83              	.LFB1:
  22:.\buffer.c    **** 
  23:.\buffer.c    **** int buffer_saveData( buffer * const this, const char * buf, const unsigned int len )
  24:.\buffer.c    **** {
  84              		.loc 1 24 0
  85              		.cfi_startproc
  86 0000 80B5     		push	{r7, lr}
  87              	.LCFI3:
  88              		.cfi_def_cfa_offset 8
ARM GAS  C:\Users\BJRN~1\AppData\Local\Temp\ccTiv3uN.s 			page 3


  89              		.cfi_offset 7, -8
  90              		.cfi_offset 14, -4
  91 0002 86B0     		sub	sp, sp, #24
  92              	.LCFI4:
  93              		.cfi_def_cfa_offset 32
  94 0004 00AF     		add	r7, sp, #0
  95              	.LCFI5:
  96              		.cfi_def_cfa_register 7
  97 0006 F860     		str	r0, [r7, #12]
  98 0008 B960     		str	r1, [r7, #8]
  99 000a 7A60     		str	r2, [r7, #4]
  25:.\buffer.c    ****     if(len <= 0)    // If len <= 0
 100              		.loc 1 25 0
 101 000c 7B68     		ldr	r3, [r7, #4]
 102 000e 002B     		cmp	r3, #0
 103 0010 02D1     		bne	.L5
  26:.\buffer.c    ****         return -20;
 104              		.loc 1 26 0
 105 0012 1423     		mov	r3, #20
 106 0014 5B42     		neg	r3, r3
 107 0016 27E0     		b	.L6
 108              	.L5:
  27:.\buffer.c    ****     
  28:.\buffer.c    ****     // Get space left in buffer_
  29:.\buffer.c    ****     unsigned int spaceLeft;
  30:.\buffer.c    ****     spaceLeft = this->len_ - this->cursor_;
 109              		.loc 1 30 0
 110 0018 FB68     		ldr	r3, [r7, #12]
 111 001a 5A6B     		ldr	r2, [r3, #52]
 112 001c FB68     		ldr	r3, [r7, #12]
 113 001e 9B6B     		ldr	r3, [r3, #56]
 114 0020 D31A     		sub	r3, r2, r3
 115 0022 3B61     		str	r3, [r7, #16]
  31:.\buffer.c    ****     
  32:.\buffer.c    ****     if(len > spaceLeft) // If not enough room
 116              		.loc 1 32 0
 117 0024 7A68     		ldr	r2, [r7, #4]
 118 0026 3B69     		ldr	r3, [r7, #16]
 119 0028 9A42     		cmp	r2, r3
 120 002a 02D9     		bls	.L7
  33:.\buffer.c    ****         return -21;
 121              		.loc 1 33 0
 122 002c 1523     		mov	r3, #21
 123 002e 5B42     		neg	r3, r3
 124 0030 1AE0     		b	.L6
 125              	.L7:
  34:.\buffer.c    ****     
  35:.\buffer.c    ****     unsigned int i;
  36:.\buffer.c    ****     for(i = 0; i < len; i++)            // Insert data into buffer
 126              		.loc 1 36 0
 127 0032 0023     		mov	r3, #0
 128 0034 7B61     		str	r3, [r7, #20]
 129 0036 0CE0     		b	.L8
 130              	.L9:
  37:.\buffer.c    ****         this->buffer_[this->cursor_ + i] = buf[i];
 131              		.loc 1 37 0 discriminator 2
 132 0038 FB68     		ldr	r3, [r7, #12]
ARM GAS  C:\Users\BJRN~1\AppData\Local\Temp\ccTiv3uN.s 			page 4


 133 003a 9A6B     		ldr	r2, [r3, #56]
 134 003c 7B69     		ldr	r3, [r7, #20]
 135 003e D318     		add	r3, r2, r3
 136 0040 B968     		ldr	r1, [r7, #8]
 137 0042 7A69     		ldr	r2, [r7, #20]
 138 0044 8A18     		add	r2, r1, r2
 139 0046 1178     		ldrb	r1, [r2]
 140 0048 FA68     		ldr	r2, [r7, #12]
 141 004a D154     		strb	r1, [r2, r3]
  36:.\buffer.c    ****     for(i = 0; i < len; i++)            // Insert data into buffer
 142              		.loc 1 36 0 discriminator 2
 143 004c 7B69     		ldr	r3, [r7, #20]
 144 004e 0133     		add	r3, r3, #1
 145 0050 7B61     		str	r3, [r7, #20]
 146              	.L8:
  36:.\buffer.c    ****     for(i = 0; i < len; i++)            // Insert data into buffer
 147              		.loc 1 36 0 is_stmt 0 discriminator 1
 148 0052 7A69     		ldr	r2, [r7, #20]
 149 0054 7B68     		ldr	r3, [r7, #4]
 150 0056 9A42     		cmp	r2, r3
 151 0058 EED3     		bcc	.L9
  38:.\buffer.c    ****     
  39:.\buffer.c    ****     this->cursor_ += len;              // Update buffer cursor
 152              		.loc 1 39 0 is_stmt 1
 153 005a FB68     		ldr	r3, [r7, #12]
 154 005c 9A6B     		ldr	r2, [r3, #56]
 155 005e 7B68     		ldr	r3, [r7, #4]
 156 0060 D218     		add	r2, r2, r3
 157 0062 FB68     		ldr	r3, [r7, #12]
 158 0064 9A63     		str	r2, [r3, #56]
  40:.\buffer.c    **** 
  41:.\buffer.c    ****     return 0;
 159              		.loc 1 41 0
 160 0066 0023     		mov	r3, #0
 161              	.L6:
  42:.\buffer.c    **** }
 162              		.loc 1 42 0
 163 0068 181C     		mov	r0, r3
 164 006a BD46     		mov	sp, r7
 165 006c 06B0     		add	sp, sp, #24
 166              		@ sp needed for prologue
 167 006e 80BD     		pop	{r7, pc}
 168              		.cfi_endproc
 169              	.LFE1:
 170              		.size	buffer_saveData, .-buffer_saveData
 171              		.section	.text.buffer_getData,"ax",%progbits
 172              		.align	2
 173              		.global	buffer_getData
 174              		.code	16
 175              		.thumb_func
 176              		.type	buffer_getData, %function
 177              	buffer_getData:
 178              	.LFB2:
  43:.\buffer.c    **** 
  44:.\buffer.c    **** int buffer_getData( buffer * const this, char ** buf, unsigned int * len )
  45:.\buffer.c    **** {
 179              		.loc 1 45 0
ARM GAS  C:\Users\BJRN~1\AppData\Local\Temp\ccTiv3uN.s 			page 5


 180              		.cfi_startproc
 181 0000 80B5     		push	{r7, lr}
 182              	.LCFI6:
 183              		.cfi_def_cfa_offset 8
 184              		.cfi_offset 7, -8
 185              		.cfi_offset 14, -4
 186 0002 84B0     		sub	sp, sp, #16
 187              	.LCFI7:
 188              		.cfi_def_cfa_offset 24
 189 0004 00AF     		add	r7, sp, #0
 190              	.LCFI8:
 191              		.cfi_def_cfa_register 7
 192 0006 F860     		str	r0, [r7, #12]
 193 0008 B960     		str	r1, [r7, #8]
 194 000a 7A60     		str	r2, [r7, #4]
  46:.\buffer.c    ****     // Returns pointer and length of used space
  47:.\buffer.c    ****     *buf = this->buffer_;
 195              		.loc 1 47 0
 196 000c FA68     		ldr	r2, [r7, #12]
 197 000e BB68     		ldr	r3, [r7, #8]
 198 0010 1A60     		str	r2, [r3]
  48:.\buffer.c    ****     *len = this->cursor_;
 199              		.loc 1 48 0
 200 0012 FB68     		ldr	r3, [r7, #12]
 201 0014 9A6B     		ldr	r2, [r3, #56]
 202 0016 7B68     		ldr	r3, [r7, #4]
 203 0018 1A60     		str	r2, [r3]
  49:.\buffer.c    ****     this->cursor_ = 0;
 204              		.loc 1 49 0
 205 001a FB68     		ldr	r3, [r7, #12]
 206 001c 0022     		mov	r2, #0
 207 001e 9A63     		str	r2, [r3, #56]
  50:.\buffer.c    ****     
  51:.\buffer.c    ****     return 0;
 208              		.loc 1 51 0
 209 0020 0023     		mov	r3, #0
  52:.\buffer.c    **** }
 210              		.loc 1 52 0
 211 0022 181C     		mov	r0, r3
 212 0024 BD46     		mov	sp, r7
 213 0026 04B0     		add	sp, sp, #16
 214              		@ sp needed for prologue
 215 0028 80BD     		pop	{r7, pc}
 216              		.cfi_endproc
 217              	.LFE2:
 218              		.size	buffer_getData, .-buffer_getData
 219 002a C046     		.text
 220              	.Letext0:
 221              		.file 2 ".\\buffer.h"