ARM GAS  C:\Users\BJRN~1\AppData\Local\Temp\cc2N6SOl.s 			page 1


   1              		.cpu cortex-m0
   2              		.fpu softvfp
   3              		.eabi_attribute 20, 1
   4              		.eabi_attribute 21, 1
   5              		.eabi_attribute 23, 3
   6              		.eabi_attribute 24, 1
   7              		.eabi_attribute 25, 1
   8              		.eabi_attribute 26, 1
   9              		.eabi_attribute 30, 6
  10              		.eabi_attribute 34, 0
  11              		.eabi_attribute 18, 4
  12              		.code	16
  13              		.file	"config.c"
  14              		.text
  15              	.Ltext0:
  16              		.cfi_sections	.debug_frame
  17              		.bss
  18              		.align	2
  19              	parametersPtr_:
  20 0000 00000000 		.space	4
  21              		.align	2
  22              	bufferPtr_:
  23 0004 00000000 		.space	4
  24              		.section	.text.config_init,"ax",%progbits
  25              		.align	2
  26              		.global	config_init
  27              		.code	16
  28              		.thumb_func
  29              		.type	config_init, %function
  30              	config_init:
  31              	.LFB0:
  32              		.file 1 ".\\config.c"
   1:.\config.c    **** /*
   2:.\config.c    **** * File: config.c
   3:.\config.c    **** * Description: Implementation for EasyWater8000 controller class config
   4:.\config.c    **** * Project: PRJ3
   5:.\config.c    **** * 
   6:.\config.c    **** * Author: Bjørn Sørensen
   7:.\config.c    **** */
   8:.\config.c    **** 
   9:.\config.c    **** #include "config.h"
  10:.\config.c    **** 
  11:.\config.c    **** // Private data
  12:.\config.c    **** static parameters * parametersPtr_;
  13:.\config.c    **** static buffer * bufferPtr_;
  14:.\config.c    **** 
  15:.\config.c    **** // Public methods
  16:.\config.c    **** void config_init(parameters * parPtr, buffer * bufPtr)
  17:.\config.c    **** {
  33              		.loc 1 17 0
  34              		.cfi_startproc
  35 0000 80B5     		push	{r7, lr}
  36              	.LCFI0:
  37              		.cfi_def_cfa_offset 8
  38              		.cfi_offset 7, -8
  39              		.cfi_offset 14, -4
  40 0002 82B0     		sub	sp, sp, #8
ARM GAS  C:\Users\BJRN~1\AppData\Local\Temp\cc2N6SOl.s 			page 2


  41              	.LCFI1:
  42              		.cfi_def_cfa_offset 16
  43 0004 00AF     		add	r7, sp, #0
  44              	.LCFI2:
  45              		.cfi_def_cfa_register 7
  46 0006 7860     		str	r0, [r7, #4]
  47 0008 3960     		str	r1, [r7]
  18:.\config.c    ****     parametersPtr_ = parPtr;
  48              		.loc 1 18 0
  49 000a 044B     		ldr	r3, .L2
  50 000c 7A68     		ldr	r2, [r7, #4]
  51 000e 1A60     		str	r2, [r3]
  19:.\config.c    ****     bufferPtr_ = bufPtr;
  52              		.loc 1 19 0
  53 0010 034B     		ldr	r3, .L2+4
  54 0012 3A68     		ldr	r2, [r7]
  55 0014 1A60     		str	r2, [r3]
  20:.\config.c    **** }
  56              		.loc 1 20 0
  57 0016 BD46     		mov	sp, r7
  58 0018 02B0     		add	sp, sp, #8
  59              		@ sp needed for prologue
  60 001a 80BD     		pop	{r7, pc}
  61              	.L3:
  62              		.align	2
  63              	.L2:
  64 001c 00000000 		.word	parametersPtr_
  65 0020 04000000 		.word	bufferPtr_
  66              		.cfi_endproc
  67              	.LFE0:
  68              		.size	config_init, .-config_init
  69              		.section	.text.config_config,"ax",%progbits
  70              		.align	2
  71              		.global	config_config
  72              		.code	16
  73              		.thumb_func
  74              		.type	config_config, %function
  75              	config_config:
  76              	.LFB1:
  21:.\config.c    **** 
  22:.\config.c    **** int config_config(const float * temp, const float * humi)
  23:.\config.c    **** {
  77              		.loc 1 23 0
  78              		.cfi_startproc
  79 0000 80B5     		push	{r7, lr}
  80              	.LCFI3:
  81              		.cfi_def_cfa_offset 8
  82              		.cfi_offset 7, -8
  83              		.cfi_offset 14, -4
  84 0002 82B0     		sub	sp, sp, #8
  85              	.LCFI4:
  86              		.cfi_def_cfa_offset 16
  87 0004 00AF     		add	r7, sp, #0
  88              	.LCFI5:
  89              		.cfi_def_cfa_register 7
  90 0006 7860     		str	r0, [r7, #4]
  91 0008 3960     		str	r1, [r7]
ARM GAS  C:\Users\BJRN~1\AppData\Local\Temp\cc2N6SOl.s 			page 3


  24:.\config.c    ****     parameters_setTemp(parametersPtr_, *temp);
  92              		.loc 1 24 0
  93 000a 0A4B     		ldr	r3, .L6
  94 000c 1A68     		ldr	r2, [r3]
  95 000e 7B68     		ldr	r3, [r7, #4]
  96 0010 1B68     		ldr	r3, [r3]
  97 0012 101C     		mov	r0, r2
  98 0014 191C     		add	r1, r3, #0
  99 0016 FFF7FEFF 		bl	parameters_setTemp
  25:.\config.c    ****     parameters_setHumi(parametersPtr_, *humi);
 100              		.loc 1 25 0
 101 001a 064B     		ldr	r3, .L6
 102 001c 1A68     		ldr	r2, [r3]
 103 001e 3B68     		ldr	r3, [r7]
 104 0020 1B68     		ldr	r3, [r3]
 105 0022 101C     		mov	r0, r2
 106 0024 191C     		add	r1, r3, #0
 107 0026 FFF7FEFF 		bl	parameters_setHumi
  26:.\config.c    ****     
  27:.\config.c    ****     return 0;
 108              		.loc 1 27 0
 109 002a 0023     		mov	r3, #0
  28:.\config.c    **** }...
 110              		.loc 1 28 0
 111 002c 181C     		mov	r0, r3
 112 002e BD46     		mov	sp, r7
 113 0030 02B0     		add	sp, sp, #8
 114              		@ sp needed for prologue
 115 0032 80BD     		pop	{r7, pc}
 116              	.L7:
 117              		.align	2
 118              	.L6:
 119 0034 00000000 		.word	parametersPtr_
 120              		.cfi_endproc
 121              	.LFE1:
 122              		.size	config_config, .-config_config
 123              		.text
 124              	.Letext0:
 125              		.file 2 ".\\parameters.h"
 126              		.file 3 ".\\buffer.h"