ARM GAS  C:\Users\BJRN~1\AppData\Local\Temp\ccERvRjC.s 			page 1


   1              		.cpu cortex-m0
   2              		.fpu softvfp
   3              		.eabi_attribute 20, 1
   4              		.eabi_attribute 21, 1
   5              		.eabi_attribute 23, 3
   6              		.eabi_attribute 24, 1
   7              		.eabi_attribute 25, 1
   8              		.eabi_attribute 26, 1
   9              		.eabi_attribute 30, 6
  10              		.eabi_attribute 34, 0
  11              		.eabi_attribute 18, 4
  12              		.code	16
  13              		.file	"Enhed.c"
  14              		.text
  15              	.Ltext0:
  16              		.cfi_sections	.debug_frame
  17              		.section	.text.main,"ax",%progbits
  18              		.align	2
  19              		.global	main
  20              		.code	16
  21              		.thumb_func
  22              		.type	main, %function
  23              	main:
  24              	.LFB33:
  25              		.file 1 ".\\Enhed.c"
   1:.\Enhed.c     **** /*
   2:.\Enhed.c     **** * File: Enhed.c
   3:.\Enhed.c     **** * Description: Samlet application for EasyWater8000 enhed
   4:.\Enhed.c     **** * Project: PRJ3
   5:.\Enhed.c     **** * 
   6:.\Enhed.c     **** * Author: Bjørn Sørensen
   7:.\Enhed.c     **** */
   8:.\Enhed.c     **** 
   9:.\Enhed.c     **** 
  10:.\Enhed.c     **** #include <project.h>
  11:.\Enhed.c     **** 
  12:.\Enhed.c     **** // Controllers
  13:.\Enhed.c     **** #include "loadData.h"
  14:.\Enhed.c     **** #include "onOff.h"
  15:.\Enhed.c     **** #include "config.h"
  16:.\Enhed.c     **** #include "addRemove.h"
  17:.\Enhed.c     **** 
  18:.\Enhed.c     **** // Domain
  19:.\Enhed.c     **** #include "buffer.h"
  20:.\Enhed.c     **** #include "parameters.h"
  21:.\Enhed.c     **** 
  22:.\Enhed.c     **** // Boundary
  23:.\Enhed.c     **** #include "sensorPackage.h"
  24:.\Enhed.c     **** #include "spi_handler.h"
  25:.\Enhed.c     **** #include "movement.h"
  26:.\Enhed.c     **** 
  27:.\Enhed.c     **** int main()
  28:.\Enhed.c     **** {
  26              		.loc 1 28 0
  27              		.cfi_startproc
  28 0000 80B5     		push	{r7, lr}
  29              	.LCFI0:
ARM GAS  C:\Users\BJRN~1\AppData\Local\Temp\ccERvRjC.s 			page 2


  30              		.cfi_def_cfa_offset 8
  31              		.cfi_offset 7, -8
  32              		.cfi_offset 14, -4
  33 0002 94B0     		sub	sp, sp, #80
  34              	.LCFI1:
  35              		.cfi_def_cfa_offset 88
  36 0004 00AF     		add	r7, sp, #0
  37              	.LCFI2:
  38              		.cfi_def_cfa_register 7
  29:.\Enhed.c     ****     // Enable global interrupts (Used for SPI, PIR and timers)  
  30:.\Enhed.c     ****     CyGlobalIntEnable;
  39              		.loc 1 30 0
  40              	@ 30 ".\Enhed.c" 1
  41 0006 62B6     		CPSIE   i
  42              	@ 0 "" 2
  31:.\Enhed.c     ****     
  32:.\Enhed.c     ****     // Create objects
  33:.\Enhed.c     ****     buffer bufferObj;
  34:.\Enhed.c     ****     buffer_init(&bufferObj);
  43              		.loc 1 34 0
  44              		.code	16
  45 0008 3B1C     		mov	r3, r7
  46 000a 0C33     		add	r3, r3, #12
  47 000c 181C     		mov	r0, r3
  48 000e FFF7FEFF 		bl	buffer_init
  35:.\Enhed.c     ****     
  36:.\Enhed.c     ****     parameters paramObj;
  37:.\Enhed.c     ****     parameters_init(&paramObj);
  49              		.loc 1 37 0
  50 0012 3B1C     		mov	r3, r7
  51 0014 181C     		mov	r0, r3
  52 0016 FFF7FEFF 		bl	parameters_init
  38:.\Enhed.c     **** 
  39:.\Enhed.c     ****     // Init boundary
  40:.\Enhed.c     ****     sensorPackage_init();
  53              		.loc 1 40 0
  54 001a FFF7FEFF 		bl	sensorPackage_init
  41:.\Enhed.c     ****     movement_init();
  55              		.loc 1 41 0
  56 001e FFF7FEFF 		bl	movement_init
  42:.\Enhed.c     ****     
  43:.\Enhed.c     ****     // Init controllers
  44:.\Enhed.c     ****     addRemove_init();
  57              		.loc 1 44 0
  58 0022 FFF7FEFF 		bl	addRemove_init
  45:.\Enhed.c     ****     config_init(&paramObj, &bufferObj);
  59              		.loc 1 45 0
  60 0026 3A1C     		mov	r2, r7
  61 0028 3B1C     		mov	r3, r7
  62 002a 0C33     		add	r3, r3, #12
  63 002c 101C     		mov	r0, r2
  64 002e 191C     		mov	r1, r3
  65 0030 FFF7FEFF 		bl	config_init
  46:.\Enhed.c     ****     loadData_init(&paramObj, &bufferObj);
  66              		.loc 1 46 0
  67 0034 3A1C     		mov	r2, r7
  68 0036 3B1C     		mov	r3, r7
ARM GAS  C:\Users\BJRN~1\AppData\Local\Temp\ccERvRjC.s 			page 3


  69 0038 0C33     		add	r3, r3, #12
  70 003a 101C     		mov	r0, r2
  71 003c 191C     		mov	r1, r3
  72 003e FFF7FEFF 		bl	loadData_init
  47:.\Enhed.c     ****     onOff_init(&paramObj, &bufferObj);
  73              		.loc 1 47 0
  74 0042 3A1C     		mov	r2, r7
  75 0044 3B1C     		mov	r3, r7
  76 0046 0C33     		add	r3, r3, #12
  77 0048 101C     		mov	r0, r2
  78 004a 191C     		mov	r1, r3
  79 004c FFF7FEFF 		bl	onOff_init
  80              	.L2:
  48:.\Enhed.c     ****     
  49:.\Enhed.c     ****     // Stay here and wait for timer og SPI interrupts
  50:.\Enhed.c     ****     while(1);
  81              		.loc 1 50 0 discriminator 1
  82 0050 FEE7     		b	.L2
  83              		.cfi_endproc
  84              	.LFE33:
  85              		.size	main, .-main
  86 0052 C046     		.text
  87              	.Letext0:
  88              		.file 2 ".\\buffer.h"
  89              		.file 3 ".\\parameters.h"