ARM GAS  C:\Users\BJRN~1\AppData\Local\Temp\cci2lzJd.s 			page 1


   1              		.cpu cortex-m0
   2              		.fpu softvfp
   3              		.eabi_attribute 20, 1
   4              		.eabi_attribute 21, 1
   5              		.eabi_attribute 23, 3
   6              		.eabi_attribute 24, 1
   7              		.eabi_attribute 25, 1
   8              		.eabi_attribute 26, 1
   9              		.eabi_attribute 30, 6
  10              		.eabi_attribute 34, 0
  11              		.eabi_attribute 18, 4
  12              		.code	16
  13              		.file	"spi_handler.c"
  14              		.text
  15              	.Ltext0:
  16              		.cfi_sections	.debug_frame
  17              		.comm	spiBuffer,64,4
  18              		.comm	spiTxBuffer,256,4
  19              		.global	unitNo
  20              		.data
  21              		.type	unitNo, %object
  22              		.size	unitNo, 1
  23              	unitNo:
  24 0000 31       		.byte	49
  25              		.global	spiCounter
  26              		.bss
  27              		.align	2
  28              		.type	spiCounter, %object
  29              		.size	spiCounter, 4
  30              	spiCounter:
  31 0000 00000000 		.space	4
  32              		.global	spiReadCounter
  33              		.align	2
  34              		.type	spiReadCounter, %object
  35              		.size	spiReadCounter, 4
  36              	spiReadCounter:
  37 0004 00000000 		.space	4
  38              		.comm	len,4,4
  39              		.comm	tempBuffer,6,4
  40              		.comm	humiBuffer,4,4
  41              		.global	__aeabi_d2f
  42              		.section	.text.isr_spi_rx,"ax",%progbits
  43              		.align	2
  44              		.global	isr_spi_rx
  45              		.code	16
  46              		.thumb_func
  47              		.type	isr_spi_rx, %function
  48              	isr_spi_rx:
  49              	.LFB33:
  50              		.file 1 ".\\spi_handler.c"
   1:.\spi_handler.c **** /*
   2:.\spi_handler.c **** * File: spi_handler.c
   3:.\spi_handler.c **** * Description: Implementation for EasyWater8000 spi handler
   4:.\spi_handler.c **** * Project: PRJ3
   5:.\spi_handler.c **** * 
   6:.\spi_handler.c **** * Author: Mick Kirkegaard & Poul Overgaard
   7:.\spi_handler.c **** */
ARM GAS  C:\Users\BJRN~1\AppData\Local\Temp\cci2lzJd.s 			page 2


   8:.\spi_handler.c **** 
   9:.\spi_handler.c **** #include "SPI_handler.h"
  10:.\spi_handler.c **** 
  11:.\spi_handler.c **** char spiBuffer[64];
  12:.\spi_handler.c **** char spiTxBuffer[256]; 
  13:.\spi_handler.c **** //char testGetLog[] = "DTTT.TFFFVBEXXX"; // (D)ata+(E)rror: TTT.TFFFVB+EXXX
  14:.\spi_handler.c **** char unitNo = '1';
  15:.\spi_handler.c **** int spiCounter = 0;
  16:.\spi_handler.c **** int spiReadCounter = 0;
  17:.\spi_handler.c **** unsigned int len;// = sizeof(testGetLog);
  18:.\spi_handler.c **** char tempBuffer[6]; // T T T . T \0
  19:.\spi_handler.c **** char humiBuffer[4]; // F F F \0
  20:.\spi_handler.c **** 
  21:.\spi_handler.c **** /*
  22:.\spi_handler.c ****  * SPI RX ISR
  23:.\spi_handler.c ****  * Dekoder SPI RX data og udfører kommando iht. protokol
  24:.\spi_handler.c ****  */
  25:.\spi_handler.c **** CY_ISR(isr_spi_rx) {
  51              		.loc 1 25 0
  52              		.cfi_startproc
  53 0000 90B5     		push	{r4, r7, lr}
  54              	.LCFI0:
  55              		.cfi_def_cfa_offset 12
  56              		.cfi_offset 4, -12
  57              		.cfi_offset 7, -8
  58              		.cfi_offset 14, -4
  59 0002 87B0     		sub	sp, sp, #28
  60              	.LCFI1:
  61              		.cfi_def_cfa_offset 40
  62 0004 00AF     		add	r7, sp, #0
  63              	.LCFI2:
  64              		.cfi_def_cfa_register 7
  26:.\spi_handler.c **** 
  27:.\spi_handler.c **** 	char cmd = '0';
  65              		.loc 1 27 0
  66 0006 3B1C     		mov	r3, r7
  67 0008 0F33     		add	r3, r3, #15
  68 000a 3022     		mov	r2, #48
  69 000c 1A70     		strb	r2, [r3]
  28:.\spi_handler.c ****     int i;
  29:.\spi_handler.c ****     unsigned int c;
  30:.\spi_handler.c ****     
  31:.\spi_handler.c **** 	//TP_1_Write(1); // Til måling af ISR gennemløbstid
  32:.\spi_handler.c ****  
  33:.\spi_handler.c **** 	cmd = SPIS_1_SpiUartReadRxData(); 
  70              		.loc 1 33 0
  71 000e FFF7FEFF 		bl	SPIS_1_SpiUartReadRxData
  72 0012 021C     		mov	r2, r0
  73 0014 3B1C     		mov	r3, r7
  74 0016 0F33     		add	r3, r3, #15
  75 0018 1A70     		strb	r2, [r3]
  34:.\spi_handler.c ****     
  35:.\spi_handler.c ****     spiBuffer[spiCounter] = cmd;
  76              		.loc 1 35 0
  77 001a 854B     		ldr	r3, .L19
  78 001c 1B68     		ldr	r3, [r3]
  79 001e 854A     		ldr	r2, .L19+4
ARM GAS  C:\Users\BJRN~1\AppData\Local\Temp\cci2lzJd.s 			page 3


  80 0020 391C     		mov	r1, r7
  81 0022 0F31     		add	r1, r1, #15
  82 0024 0978     		ldrb	r1, [r1]
  83 0026 D154     		strb	r1, [r2, r3]
  36:.\spi_handler.c ****     spiCounter++;
  84              		.loc 1 36 0
  85 0028 814B     		ldr	r3, .L19
  86 002a 1B68     		ldr	r3, [r3]
  87 002c 5A1C     		add	r2, r3, #1
  88 002e 804B     		ldr	r3, .L19
  89 0030 1A60     		str	r2, [r3]
  37:.\spi_handler.c ****     
  38:.\spi_handler.c ****     /*
  39:.\spi_handler.c **** 	 * Her switches på cmd iht. dataprotokollen
  40:.\spi_handler.c ****      *
  41:.\spi_handler.c ****      *  ’A’   0x41     Aktiver Enhed
  42:.\spi_handler.c ****      *  ’D’   0x44     Deaktiver Enhed
  43:.\spi_handler.c ****      *  ’P’   0x50     Parametre sendes til Enhed
  44:.\spi_handler.c ****      *  ’V’   0x56     Verificer Enhed i systemet
  45:.\spi_handler.c ****      *  ’L’   0x4c     Forespørg logdata fra Enhed
  46:.\spi_handler.c ****      *
  47:.\spi_handler.c ****      *  'C'   0x43     Clear/write function char
  48:.\spi_handler.c ****      *  'R'   0x52     Read function char
  49:.\spi_handler.c **** 	 */
  50:.\spi_handler.c ****     
  51:.\spi_handler.c ****     if ((cmd == 'R') || (cmd == 'C') || (cmd == 'L') || (cmd == 'V')){
  90              		.loc 1 51 0
  91 0032 3B1C     		mov	r3, r7
  92 0034 0F33     		add	r3, r3, #15
  93 0036 1B78     		ldrb	r3, [r3]
  94 0038 522B     		cmp	r3, #82
  95 003a 0FD0     		beq	.L2
  96              		.loc 1 51 0 is_stmt 0 discriminator 1
  97 003c 3B1C     		mov	r3, r7
  98 003e 0F33     		add	r3, r3, #15
  99 0040 1B78     		ldrb	r3, [r3]
 100 0042 432B     		cmp	r3, #67
 101 0044 0AD0     		beq	.L2
 102 0046 3B1C     		mov	r3, r7
 103 0048 0F33     		add	r3, r3, #15
 104 004a 1B78     		ldrb	r3, [r3]
 105 004c 4C2B     		cmp	r3, #76
 106 004e 05D0     		beq	.L2
 107 0050 3B1C     		mov	r3, r7
 108 0052 0F33     		add	r3, r3, #15
 109 0054 1B78     		ldrb	r3, [r3]
 110 0056 562B     		cmp	r3, #86
 111 0058 00D0     		beq	.LCB56
 112 005a E2E0     		b	.L3	@long jump
 113              	.LCB56:
 114              	.L2:
  52:.\spi_handler.c ****     	switch (spiBuffer[0]) {
 115              		.loc 1 52 0 is_stmt 1
 116 005c 754B     		ldr	r3, .L19+4
 117 005e 1B78     		ldrb	r3, [r3]
 118 0060 413B     		sub	r3, r3, #65
 119 0062 152B     		cmp	r3, #21
ARM GAS  C:\Users\BJRN~1\AppData\Local\Temp\cci2lzJd.s 			page 4


 120 0064 00D9     		bls	.LCB62
 121 0066 DCE0     		b	.L3	@long jump
 122              	.LCB62:
 123 0068 9A00     		lsl	r2, r3, #2
 124 006a 734B     		ldr	r3, .L19+8
 125 006c D318     		add	r3, r2, r3
 126 006e 1B68     		ldr	r3, [r3]
 127 0070 9F46     		mov	pc, r3
 128              		.section	.rodata
 129              		.align	2
 130              	.L12:
 131 0000 72000000 		.word	.L5
 132 0004 22020000 		.word	.L3
 133 0008 18020000 		.word	.L6
 134 000c 96000000 		.word	.L7
 135 0010 22020000 		.word	.L3
 136 0014 22020000 		.word	.L3
 137 0018 22020000 		.word	.L3
 138 001c 22020000 		.word	.L3
 139 0020 22020000 		.word	.L3
 140 0024 22020000 		.word	.L3
 141 0028 22020000 		.word	.L3
 142 002c 92010000 		.word	.L8
 143 0030 22020000 		.word	.L3
 144 0034 22020000 		.word	.L3
 145 0038 22020000 		.word	.L3
 146 003c BA000000 		.word	.L9
 147 0040 22020000 		.word	.L3
 148 0044 F4010000 		.word	.L10
 149 0048 22020000 		.word	.L3
 150 004c 22020000 		.word	.L3
 151 0050 22020000 		.word	.L3
 152 0054 66010000 		.word	.L11
 153              		.section	.text.isr_spi_rx
 154              	.L5:
 155              	.LBB2:
  53:.\spi_handler.c ****             case 'A':
  54:.\spi_handler.c ****                     RED_LED_Write(1);
 156              		.loc 1 54 0
 157 0072 0120     		mov	r0, #1
 158 0074 FFF7FEFF 		bl	RED_LED_Write
  55:.\spi_handler.c ****                     GREEN_LED_Write(0);
 159              		.loc 1 55 0
 160 0078 0020     		mov	r0, #0
 161 007a FFF7FEFF 		bl	GREEN_LED_Write
  56:.\spi_handler.c ****                     BLUE_LED_Write(1);
 162              		.loc 1 56 0
 163 007e 0120     		mov	r0, #1
 164 0080 FFF7FEFF 		bl	BLUE_LED_Write
  57:.\spi_handler.c ****                     
  58:.\spi_handler.c ****                     /* Clear Buffer and Counter */
  59:.\spi_handler.c ****                     SPIS_1_SpiUartClearTxBuffer();
 165              		.loc 1 59 0
 166 0084 FFF7FEFF 		bl	SPIS_1_SpiUartClearTxBuffer
  60:.\spi_handler.c ****                     spiCounter = 0;
 167              		.loc 1 60 0
 168 0088 694B     		ldr	r3, .L19
ARM GAS  C:\Users\BJRN~1\AppData\Local\Temp\cci2lzJd.s 			page 5


 169 008a 0022     		mov	r2, #0
 170 008c 1A60     		str	r2, [r3]
  61:.\spi_handler.c ****                     
  62:.\spi_handler.c ****                     /*Call method*/
  63:.\spi_handler.c ****                     onOff_turnOnOff(1);
 171              		.loc 1 63 0
 172 008e 0120     		mov	r0, #1
 173 0090 FFF7FEFF 		bl	onOff_turnOnOff
 174 0094 C5E0     		b	.L3
 175              	.L7:
  64:.\spi_handler.c ****                     
  65:.\spi_handler.c ****                 break;
  66:.\spi_handler.c ****             case 'D':
  67:.\spi_handler.c ****                     GREEN_LED_Write(1);
 176              		.loc 1 67 0
 177 0096 0120     		mov	r0, #1
 178 0098 FFF7FEFF 		bl	GREEN_LED_Write
  68:.\spi_handler.c ****                     RED_LED_Write(0);
 179              		.loc 1 68 0
 180 009c 0020     		mov	r0, #0
 181 009e FFF7FEFF 		bl	RED_LED_Write
  69:.\spi_handler.c ****                     BLUE_LED_Write(1);
 182              		.loc 1 69 0
 183 00a2 0120     		mov	r0, #1
 184 00a4 FFF7FEFF 		bl	BLUE_LED_Write
  70:.\spi_handler.c ****                     
  71:.\spi_handler.c ****                     /* Clear Buffer and Counter */
  72:.\spi_handler.c ****                     SPIS_1_SpiUartClearTxBuffer();
 185              		.loc 1 72 0
 186 00a8 FFF7FEFF 		bl	SPIS_1_SpiUartClearTxBuffer
  73:.\spi_handler.c ****                     spiCounter = 0;
 187              		.loc 1 73 0
 188 00ac 604B     		ldr	r3, .L19
 189 00ae 0022     		mov	r2, #0
 190 00b0 1A60     		str	r2, [r3]
  74:.\spi_handler.c ****                     
  75:.\spi_handler.c ****                     /*Call method*/
  76:.\spi_handler.c ****                     onOff_turnOnOff(0);
 191              		.loc 1 76 0
 192 00b2 0020     		mov	r0, #0
 193 00b4 FFF7FEFF 		bl	onOff_turnOnOff
 194 00b8 B3E0     		b	.L3
 195              	.L9:
  77:.\spi_handler.c ****                     
  78:.\spi_handler.c ****                 break;
  79:.\spi_handler.c ****             case 'P':
  80:.\spi_handler.c ****                     /* Disable interrupt */
  81:.\spi_handler.c ****                     CyGlobalIntDisable;
 196              		.loc 1 81 0
 197              	@ 81 ".\spi_handler.c" 1
 198 00ba 72B6     		CPSID   i
 199              	@ 0 "" 2
  82:.\spi_handler.c ****                  
  83:.\spi_handler.c ****                     GREEN_LED_Write(0);
 200              		.loc 1 83 0
 201              		.code	16
 202 00bc 0020     		mov	r0, #0
ARM GAS  C:\Users\BJRN~1\AppData\Local\Temp\cci2lzJd.s 			page 6


 203 00be FFF7FEFF 		bl	GREEN_LED_Write
  84:.\spi_handler.c ****                     RED_LED_Write(0);
 204              		.loc 1 84 0
 205 00c2 0020     		mov	r0, #0
 206 00c4 FFF7FEFF 		bl	RED_LED_Write
  85:.\spi_handler.c ****                     BLUE_LED_Write(0);
 207              		.loc 1 85 0
 208 00c8 0020     		mov	r0, #0
 209 00ca FFF7FEFF 		bl	BLUE_LED_Write
  86:.\spi_handler.c ****                     
  87:.\spi_handler.c ****                     
  88:.\spi_handler.c ****                     
  89:.\spi_handler.c ****                     /* Read temp */
  90:.\spi_handler.c ****                     for(i = 0 ; i < 5 ; i++){
 210              		.loc 1 90 0
 211 00ce 0023     		mov	r3, #0
 212 00d0 7B61     		str	r3, [r7, #20]
 213 00d2 0AE0     		b	.L13
 214              	.L14:
  91:.\spi_handler.c ****                         tempBuffer[i] = spiBuffer[i+1];
 215              		.loc 1 91 0 discriminator 2
 216 00d4 7B69     		ldr	r3, [r7, #20]
 217 00d6 0133     		add	r3, r3, #1
 218 00d8 564A     		ldr	r2, .L19+4
 219 00da D25C     		ldrb	r2, [r2, r3]
 220 00dc 5749     		ldr	r1, .L19+12
 221 00de 7B69     		ldr	r3, [r7, #20]
 222 00e0 CB18     		add	r3, r1, r3
 223 00e2 1A70     		strb	r2, [r3]
  90:.\spi_handler.c ****                     for(i = 0 ; i < 5 ; i++){
 224              		.loc 1 90 0 discriminator 2
 225 00e4 7B69     		ldr	r3, [r7, #20]
 226 00e6 0133     		add	r3, r3, #1
 227 00e8 7B61     		str	r3, [r7, #20]
 228              	.L13:
  90:.\spi_handler.c ****                     for(i = 0 ; i < 5 ; i++){
 229              		.loc 1 90 0 is_stmt 0 discriminator 1
 230 00ea 7B69     		ldr	r3, [r7, #20]
 231 00ec 042B     		cmp	r3, #4
 232 00ee F1DD     		ble	.L14
  92:.\spi_handler.c ****                         //
  93:.\spi_handler.c ****                     }
  94:.\spi_handler.c ****                     for(i = 0 ; i < 3 ; i++){
 233              		.loc 1 94 0 is_stmt 1
 234 00f0 0023     		mov	r3, #0
 235 00f2 7B61     		str	r3, [r7, #20]
 236 00f4 0AE0     		b	.L15
 237              	.L16:
  95:.\spi_handler.c ****                         humiBuffer[i] = spiBuffer[i+6];
 238              		.loc 1 95 0 discriminator 2
 239 00f6 7B69     		ldr	r3, [r7, #20]
 240 00f8 0633     		add	r3, r3, #6
 241 00fa 4E4A     		ldr	r2, .L19+4
 242 00fc D25C     		ldrb	r2, [r2, r3]
 243 00fe 5049     		ldr	r1, .L19+16
 244 0100 7B69     		ldr	r3, [r7, #20]
 245 0102 CB18     		add	r3, r1, r3
ARM GAS  C:\Users\BJRN~1\AppData\Local\Temp\cci2lzJd.s 			page 7


 246 0104 1A70     		strb	r2, [r3]
  94:.\spi_handler.c ****                     for(i = 0 ; i < 3 ; i++){
 247              		.loc 1 94 0 discriminator 2
 248 0106 7B69     		ldr	r3, [r7, #20]
 249 0108 0133     		add	r3, r3, #1
 250 010a 7B61     		str	r3, [r7, #20]
 251              	.L15:
  94:.\spi_handler.c ****                     for(i = 0 ; i < 3 ; i++){
 252              		.loc 1 94 0 is_stmt 0 discriminator 1
 253 010c 7B69     		ldr	r3, [r7, #20]
 254 010e 022B     		cmp	r3, #2
 255 0110 F1DD     		ble	.L16
  96:.\spi_handler.c ****                     }
  97:.\spi_handler.c ****                     
  98:.\spi_handler.c ****                     float tempValue = 0;
 256              		.loc 1 98 0 is_stmt 1
 257 0112 0023     		mov	r3, #0
 258 0114 BB60     		str	r3, [r7, #8]
  99:.\spi_handler.c ****                     float humiValue = 0;
 259              		.loc 1 99 0
 260 0116 0023     		mov	r3, #0
 261 0118 7B60     		str	r3, [r7, #4]
 100:.\spi_handler.c ****                     
 101:.\spi_handler.c ****                     /* Parse charArray's to float's */
 102:.\spi_handler.c ****                     tempValue = (float)atof(tempBuffer);
 262              		.loc 1 102 0
 263 011a 484B     		ldr	r3, .L19+12
 264 011c 181C     		mov	r0, r3
 265 011e FFF7FEFF 		bl	atof
 266 0122 031C     		mov	r3, r0
 267 0124 0C1C     		mov	r4, r1
 268 0126 181C     		mov	r0, r3
 269 0128 211C     		mov	r1, r4
 270 012a FFF7FEFF 		bl	__aeabi_d2f
 271 012e 031C     		add	r3, r0, #0
 272 0130 BB60     		str	r3, [r7, #8]
 103:.\spi_handler.c ****                     humiValue = (float)atof(humiBuffer);
 273              		.loc 1 103 0
 274 0132 434B     		ldr	r3, .L19+16
 275 0134 181C     		mov	r0, r3
 276 0136 FFF7FEFF 		bl	atof
 277 013a 031C     		mov	r3, r0
 278 013c 0C1C     		mov	r4, r1
 279 013e 181C     		mov	r0, r3
 280 0140 211C     		mov	r1, r4
 281 0142 FFF7FEFF 		bl	__aeabi_d2f
 282 0146 031C     		add	r3, r0, #0
 283 0148 7B60     		str	r3, [r7, #4]
 104:.\spi_handler.c ****                     
 105:.\spi_handler.c ****                     /* Call method */
 106:.\spi_handler.c ****                     config_config(&tempValue, &humiValue);
 284              		.loc 1 106 0
 285 014a 3A1C     		mov	r2, r7
 286 014c 0832     		add	r2, r2, #8
 287 014e 3B1D     		add	r3, r7, #4
 288 0150 101C     		mov	r0, r2
 289 0152 191C     		mov	r1, r3
ARM GAS  C:\Users\BJRN~1\AppData\Local\Temp\cci2lzJd.s 			page 8


 290 0154 FFF7FEFF 		bl	config_config
 107:.\spi_handler.c ****                     
 108:.\spi_handler.c ****                     /* Clear Buffer and Counter */
 109:.\spi_handler.c ****                     SPIS_1_SpiUartClearTxBuffer();
 291              		.loc 1 109 0
 292 0158 FFF7FEFF 		bl	SPIS_1_SpiUartClearTxBuffer
 110:.\spi_handler.c ****                     spiCounter = 0;
 293              		.loc 1 110 0
 294 015c 344B     		ldr	r3, .L19
 295 015e 0022     		mov	r2, #0
 296 0160 1A60     		str	r2, [r3]
 111:.\spi_handler.c ****                     
 112:.\spi_handler.c ****                     /* Re-enable interrupt */
 113:.\spi_handler.c ****                     CyGlobalIntEnable;
 297              		.loc 1 113 0
 298              	@ 113 ".\spi_handler.c" 1
 299 0162 62B6     		CPSIE   i
 300              	@ 0 "" 2
 301              		.code	16
 302 0164 5DE0     		b	.L3
 303              	.L11:
 114:.\spi_handler.c ****                 break;
 115:.\spi_handler.c ****     		case 'V':
 116:.\spi_handler.c ****                     GREEN_LED_Write(1);
 304              		.loc 1 116 0
 305 0166 0120     		mov	r0, #1
 306 0168 FFF7FEFF 		bl	GREEN_LED_Write
 117:.\spi_handler.c ****                     RED_LED_Write(1);
 307              		.loc 1 117 0
 308 016c 0120     		mov	r0, #1
 309 016e FFF7FEFF 		bl	RED_LED_Write
 118:.\spi_handler.c ****                     BLUE_LED_Write(0);
 310              		.loc 1 118 0
 311 0172 0020     		mov	r0, #0
 312 0174 FFF7FEFF 		bl	BLUE_LED_Write
 119:.\spi_handler.c **** 
 120:.\spi_handler.c ****                     SPIS_1_SpiUartClearTxBuffer();
 313              		.loc 1 120 0
 314 0178 FFF7FEFF 		bl	SPIS_1_SpiUartClearTxBuffer
 121:.\spi_handler.c ****                     SPIS_1_SpiUartWriteTxData(unitNo);
 315              		.loc 1 121 0
 316 017c 314B     		ldr	r3, .L19+20
 317 017e 1B78     		ldrb	r3, [r3]
 318 0180 181C     		mov	r0, r3
 319 0182 FFF7FEFF 		bl	SPIS_1_SpiUartWriteTxData
 122:.\spi_handler.c ****                     spiCounter = 0;
 320              		.loc 1 122 0
 321 0186 2A4B     		ldr	r3, .L19
 322 0188 0022     		mov	r2, #0
 323 018a 1A60     		str	r2, [r3]
 123:.\spi_handler.c ****                     
 124:.\spi_handler.c ****                     /* Call method */
 125:.\spi_handler.c ****                     addRemove_verify();
 324              		.loc 1 125 0
 325 018c FFF7FEFF 		bl	addRemove_verify
 326 0190 47E0     		b	.L3
 327              	.L8:
ARM GAS  C:\Users\BJRN~1\AppData\Local\Temp\cci2lzJd.s 			page 9


 126:.\spi_handler.c ****                     
 127:.\spi_handler.c ****     			break;
 128:.\spi_handler.c ****             case 'L':
 129:.\spi_handler.c ****                     GREEN_LED_Write(1);
 328              		.loc 1 129 0
 329 0192 0120     		mov	r0, #1
 330 0194 FFF7FEFF 		bl	GREEN_LED_Write
 130:.\spi_handler.c ****                     RED_LED_Write(0);
 331              		.loc 1 130 0
 332 0198 0020     		mov	r0, #0
 333 019a FFF7FEFF 		bl	RED_LED_Write
 131:.\spi_handler.c ****                     BLUE_LED_Write(0);
 334              		.loc 1 131 0
 335 019e 0020     		mov	r0, #0
 336 01a0 FFF7FEFF 		bl	BLUE_LED_Write
 132:.\spi_handler.c ****                     
 133:.\spi_handler.c ****                     char * buf;
 134:.\spi_handler.c ****                     /* Call method */
 135:.\spi_handler.c ****                     loadData_getBuffer(&buf, &len);
 337              		.loc 1 135 0
 338 01a4 3A1C     		mov	r2, r7
 339 01a6 284B     		ldr	r3, .L19+24
 340 01a8 101C     		mov	r0, r2
 341 01aa 191C     		mov	r1, r3
 342 01ac FFF7FEFF 		bl	loadData_getBuffer
 136:.\spi_handler.c ****                     
 137:.\spi_handler.c ****                     for(c = 0 ; c < len ; c++)
 343              		.loc 1 137 0
 344 01b0 0023     		mov	r3, #0
 345 01b2 3B61     		str	r3, [r7, #16]
 346 01b4 0AE0     		b	.L17
 347              	.L18:
 138:.\spi_handler.c ****                     {
 139:.\spi_handler.c ****                         spiTxBuffer[c] = buf[c];
 348              		.loc 1 139 0 discriminator 2
 349 01b6 3A68     		ldr	r2, [r7]
 350 01b8 3B69     		ldr	r3, [r7, #16]
 351 01ba D318     		add	r3, r2, r3
 352 01bc 1A78     		ldrb	r2, [r3]
 353 01be 2349     		ldr	r1, .L19+28
 354 01c0 3B69     		ldr	r3, [r7, #16]
 355 01c2 CB18     		add	r3, r1, r3
 356 01c4 1A70     		strb	r2, [r3]
 137:.\spi_handler.c ****                     for(c = 0 ; c < len ; c++)
 357              		.loc 1 137 0 discriminator 2
 358 01c6 3B69     		ldr	r3, [r7, #16]
 359 01c8 0133     		add	r3, r3, #1
 360 01ca 3B61     		str	r3, [r7, #16]
 361              	.L17:
 137:.\spi_handler.c ****                     for(c = 0 ; c < len ; c++)
 362              		.loc 1 137 0 is_stmt 0 discriminator 1
 363 01cc 1E4B     		ldr	r3, .L19+24
 364 01ce 1B68     		ldr	r3, [r3]
 365 01d0 3A69     		ldr	r2, [r7, #16]
 366 01d2 9A42     		cmp	r2, r3
 367 01d4 EFD3     		bcc	.L18
 140:.\spi_handler.c ****                     }
ARM GAS  C:\Users\BJRN~1\AppData\Local\Temp\cci2lzJd.s 			page 10


 141:.\spi_handler.c ****                     
 142:.\spi_handler.c ****                     SPIS_1_SpiUartClearTxBuffer();
 368              		.loc 1 142 0 is_stmt 1
 369 01d6 FFF7FEFF 		bl	SPIS_1_SpiUartClearTxBuffer
 143:.\spi_handler.c ****                     SPIS_1_SpiUartWriteTxData((char)len);
 370              		.loc 1 143 0
 371 01da 1B4B     		ldr	r3, .L19+24
 372 01dc 1B68     		ldr	r3, [r3]
 373 01de DBB2     		uxtb	r3, r3
 374 01e0 181C     		mov	r0, r3
 375 01e2 FFF7FEFF 		bl	SPIS_1_SpiUartWriteTxData
 144:.\spi_handler.c ****                     spiCounter = 0;
 376              		.loc 1 144 0
 377 01e6 124B     		ldr	r3, .L19
 378 01e8 0022     		mov	r2, #0
 379 01ea 1A60     		str	r2, [r3]
 145:.\spi_handler.c ****                     spiReadCounter = 0;
 380              		.loc 1 145 0
 381 01ec 184B     		ldr	r3, .L19+32
 382 01ee 0022     		mov	r2, #0
 383 01f0 1A60     		str	r2, [r3]
 384 01f2 16E0     		b	.L3
 385              	.L10:
 146:.\spi_handler.c ****                 break;
 147:.\spi_handler.c ****             case 'R':
 148:.\spi_handler.c ****                     SPIS_1_SpiUartClearTxBuffer();
 386              		.loc 1 148 0
 387 01f4 FFF7FEFF 		bl	SPIS_1_SpiUartClearTxBuffer
 149:.\spi_handler.c ****                     SPIS_1_SpiUartWriteTxData(spiTxBuffer[spiReadCounter]);
 388              		.loc 1 149 0
 389 01f8 154B     		ldr	r3, .L19+32
 390 01fa 1B68     		ldr	r3, [r3]
 391 01fc 134A     		ldr	r2, .L19+28
 392 01fe D35C     		ldrb	r3, [r2, r3]
 393 0200 181C     		mov	r0, r3
 394 0202 FFF7FEFF 		bl	SPIS_1_SpiUartWriteTxData
 150:.\spi_handler.c ****                     spiCounter = 0;
 395              		.loc 1 150 0
 396 0206 0A4B     		ldr	r3, .L19
 397 0208 0022     		mov	r2, #0
 398 020a 1A60     		str	r2, [r3]
 151:.\spi_handler.c ****                     spiReadCounter++;
 399              		.loc 1 151 0
 400 020c 104B     		ldr	r3, .L19+32
 401 020e 1B68     		ldr	r3, [r3]
 402 0210 5A1C     		add	r2, r3, #1
 403 0212 0F4B     		ldr	r3, .L19+32
 404 0214 1A60     		str	r2, [r3]
 405 0216 04E0     		b	.L3
 406              	.L6:
 152:.\spi_handler.c ****                 break;
 153:.\spi_handler.c ****             case 'C':
 154:.\spi_handler.c ****                     SPIS_1_SpiUartClearRxBuffer();
 407              		.loc 1 154 0
 408 0218 FFF7FEFF 		bl	SPIS_1_SpiUartClearRxBuffer
 155:.\spi_handler.c ****                     spiCounter = 0;
 409              		.loc 1 155 0
ARM GAS  C:\Users\BJRN~1\AppData\Local\Temp\cci2lzJd.s 			page 11


 410 021c 044B     		ldr	r3, .L19
 411 021e 0022     		mov	r2, #0
 412 0220 1A60     		str	r2, [r3]
 413              	.L3:
 414              	.LBE2:
 156:.\spi_handler.c ****     		default:
 157:.\spi_handler.c ****     			break;
 158:.\spi_handler.c ****     	}
 159:.\spi_handler.c ****     }
 160:.\spi_handler.c **** 	
 161:.\spi_handler.c **** 	SPIS_1_ClearRxInterruptSource(SPIS_1_GetRxInterruptSource());
 415              		.loc 1 161 0
 416 0222 0C4B     		ldr	r3, .L19+36
 417 0224 0B4A     		ldr	r2, .L19+36
 418 0226 1268     		ldr	r2, [r2]
 419 0228 1A60     		str	r2, [r3]
 162:.\spi_handler.c **** 	//TP_1_Write(0); // Til måling af ISR gennemløbstid
 163:.\spi_handler.c **** }...
 420              		.loc 1 163 0
 421 022a BD46     		mov	sp, r7
 422 022c 07B0     		add	sp, sp, #28
 423              		@ sp needed for prologue
 424 022e 90BD     		pop	{r4, r7, pc}
 425              	.L20:
 426              		.align	2
 427              	.L19:
 428 0230 00000000 		.word	spiCounter
 429 0234 00000000 		.word	spiBuffer
 430 0238 00000000 		.word	.L12
 431 023c 00000000 		.word	tempBuffer
 432 0240 00000000 		.word	humiBuffer
 433 0244 00000000 		.word	unitNo
 434 0248 00000000 		.word	len
 435 024c 00000000 		.word	spiTxBuffer
 436 0250 00000000 		.word	spiReadCounter
 437 0254 C00F0740 		.word	1074204608
 438              		.cfi_endproc
 439              	.LFE33:
 440              		.size	isr_spi_rx, .-isr_spi_rx
 441              		.text
 442              	.Letext0:
 443              		.file 2 "./Generated_Source/PSoC4/cytypes.h"