ARM GAS  C:\Users\BJRN~1\AppData\Local\Temp\ccXHoJq9.s 			page 1


   1              		.cpu cortex-m0
   2              		.fpu softvfp
   3              		.eabi_attribute 20, 1
   4              		.eabi_attribute 21, 1
   5              		.eabi_attribute 23, 3
   6              		.eabi_attribute 24, 1
   7              		.eabi_attribute 25, 1
   8              		.eabi_attribute 26, 1
   9              		.eabi_attribute 30, 6
  10              		.eabi_attribute 34, 0
  11              		.eabi_attribute 18, 4
  12              		.code	16
  13              		.file	"buffer.c"
  14              		.text
  15              	.Ltext0:
  16              		.cfi_sections	.debug_frame
  17              		.bss
  18              		.align	2
  19              	buffer_:
  20 0000 00000000 		.space	51
  20      00000000 
  20      00000000 
  20      00000000 
  20      00000000 
  21 0033 00       		.align	2
  22              	len_:
  23 0034 00000000 		.space	4
  24              		.align	2
  25              	cursor_:
  26 0038 00000000 		.space	4
  27              		.section	.text.buffer_init,"ax",%progbits
  28              		.align	2
  29              		.global	buffer_init
  30              		.code	16
  31              		.thumb_func
  32              		.type	buffer_init, %function
  33              	buffer_init:
  34              	.LFB0:
  35              		.file 1 ".\\buffer.c"
   1:.\buffer.c    **** /*
   2:.\buffer.c    **** * File: buffer.c
   3:.\buffer.c    **** * Description: Implementation for EasyWater8000 class buffer
   4:.\buffer.c    **** * Project: PRJ3
   5:.\buffer.c    **** * 
   6:.\buffer.c    **** * Author: Bjørn Sørensen
   7:.\buffer.c    **** */
   8:.\buffer.c    **** 
   9:.\buffer.c    **** #include "buffer.h"
  10:.\buffer.c    **** 
  11:.\buffer.c    **** // Private members
  12:.\buffer.c    **** // Private:
  13:.\buffer.c    **** static char buffer_[BUFFER_LENGTH];    // Can hold 1 data reading and 10 errors
  14:.\buffer.c    **** static unsigned int len_;              // Length of buffer_[]
  15:.\buffer.c    **** static unsigned int cursor_;           // Points to next free index
  16:.\buffer.c    **** 
  17:.\buffer.c    **** 
  18:.\buffer.c    **** void buffer_init( )
ARM GAS  C:\Users\BJRN~1\AppData\Local\Temp\ccXHoJq9.s 			page 2


  19:.\buffer.c    **** {
  36              		.loc 1 19 0
  37              		.cfi_startproc
  38 0000 80B5     		push	{r7, lr}
  39              	.LCFI0:
  40              		.cfi_def_cfa_offset 8
  41              		.cfi_offset 7, -8
  42              		.cfi_offset 14, -4
  43 0002 82B0     		sub	sp, sp, #8
  44              	.LCFI1:
  45              		.cfi_def_cfa_offset 16
  46 0004 00AF     		add	r7, sp, #0
  47              	.LCFI2:
  48              		.cfi_def_cfa_register 7
  20:.\buffer.c    ****     // Initialize members
  21:.\buffer.c    ****     unsigned int i;
  22:.\buffer.c    ****     for(i = 0; i < BUFFER_LENGTH; i++)
  49              		.loc 1 22 0
  50 0006 0023     		mov	r3, #0
  51 0008 7B60     		str	r3, [r7, #4]
  52 000a 07E0     		b	.L2
  53              	.L3:
  23:.\buffer.c    ****         buffer_[i] = 0;
  54              		.loc 1 23 0 discriminator 2
  55 000c 094A     		ldr	r2, .L4
  56 000e 7B68     		ldr	r3, [r7, #4]
  57 0010 D318     		add	r3, r2, r3
  58 0012 0022     		mov	r2, #0
  59 0014 1A70     		strb	r2, [r3]
  22:.\buffer.c    ****     for(i = 0; i < BUFFER_LENGTH; i++)
  60              		.loc 1 22 0 discriminator 2
  61 0016 7B68     		ldr	r3, [r7, #4]
  62 0018 0133     		add	r3, r3, #1
  63 001a 7B60     		str	r3, [r7, #4]
  64              	.L2:
  22:.\buffer.c    ****     for(i = 0; i < BUFFER_LENGTH; i++)
  65              		.loc 1 22 0 is_stmt 0 discriminator 1
  66 001c 7B68     		ldr	r3, [r7, #4]
  67 001e 322B     		cmp	r3, #50
  68 0020 F4D9     		bls	.L3
  24:.\buffer.c    ****     
  25:.\buffer.c    ****    cursor_ = 0;
  69              		.loc 1 25 0 is_stmt 1
  70 0022 054B     		ldr	r3, .L4+4
  71 0024 0022     		mov	r2, #0
  72 0026 1A60     		str	r2, [r3]
  26:.\buffer.c    ****    len_ = BUFFER_LENGTH;
  73              		.loc 1 26 0
  74 0028 044B     		ldr	r3, .L4+8
  75 002a 3322     		mov	r2, #51
  76 002c 1A60     		str	r2, [r3]
  27:.\buffer.c    **** }
  77              		.loc 1 27 0
  78 002e BD46     		mov	sp, r7
  79 0030 02B0     		add	sp, sp, #8
  80              		@ sp needed for prologue
  81 0032 80BD     		pop	{r7, pc}
ARM GAS  C:\Users\BJRN~1\AppData\Local\Temp\ccXHoJq9.s 			page 3


  82              	.L5:
  83              		.align	2
  84              	.L4:
  85 0034 00000000 		.word	buffer_
  86 0038 38000000 		.word	cursor_
  87 003c 34000000 		.word	len_
  88              		.cfi_endproc
  89              	.LFE0:
  90              		.size	buffer_init, .-buffer_init
  91              		.section	.text.buffer_saveData,"ax",%progbits
  92              		.align	2
  93              		.global	buffer_saveData
  94              		.code	16
  95              		.thumb_func
  96              		.type	buffer_saveData, %function
  97              	buffer_saveData:
  98              	.LFB1:
  28:.\buffer.c    **** 
  29:.\buffer.c    **** int buffer_saveData( const char * buf, const unsigned int len )
  30:.\buffer.c    **** {
  99              		.loc 1 30 0
 100              		.cfi_startproc
 101 0000 80B5     		push	{r7, lr}
 102              	.LCFI3:
 103              		.cfi_def_cfa_offset 8
 104              		.cfi_offset 7, -8
 105              		.cfi_offset 14, -4
 106 0002 84B0     		sub	sp, sp, #16
 107              	.LCFI4:
 108              		.cfi_def_cfa_offset 24
 109 0004 00AF     		add	r7, sp, #0
 110              	.LCFI5:
 111              		.cfi_def_cfa_register 7
 112 0006 7860     		str	r0, [r7, #4]
 113 0008 3960     		str	r1, [r7]
  31:.\buffer.c    ****     if(len <= 0)    // If len <= 0
 114              		.loc 1 31 0
 115 000a 3B68     		ldr	r3, [r7]
 116 000c 002B     		cmp	r3, #0
 117 000e 02D1     		bne	.L7
  32:.\buffer.c    ****         return -20;
 118              		.loc 1 32 0
 119 0010 1423     		mov	r3, #20
 120 0012 5B42     		neg	r3, r3
 121 0014 27E0     		b	.L8
 122              	.L7:
  33:.\buffer.c    ****     
  34:.\buffer.c    ****     // Get space left in buffer_
  35:.\buffer.c    ****     unsigned int spaceLeft;
  36:.\buffer.c    ****     spaceLeft = len_ - cursor_;
 123              		.loc 1 36 0
 124 0016 164B     		ldr	r3, .L12
 125 0018 1A68     		ldr	r2, [r3]
 126 001a 164B     		ldr	r3, .L12+4
 127 001c 1B68     		ldr	r3, [r3]
 128 001e D31A     		sub	r3, r2, r3
 129 0020 BB60     		str	r3, [r7, #8]
ARM GAS  C:\Users\BJRN~1\AppData\Local\Temp\ccXHoJq9.s 			page 4


  37:.\buffer.c    ****     
  38:.\buffer.c    ****     if(len > spaceLeft) // If not enough room
 130              		.loc 1 38 0
 131 0022 3A68     		ldr	r2, [r7]
 132 0024 BB68     		ldr	r3, [r7, #8]
 133 0026 9A42     		cmp	r2, r3
 134 0028 02D9     		bls	.L9
  39:.\buffer.c    ****         return -21;
 135              		.loc 1 39 0
 136 002a 1523     		mov	r3, #21
 137 002c 5B42     		neg	r3, r3
 138 002e 1AE0     		b	.L8
 139              	.L9:
  40:.\buffer.c    ****     
  41:.\buffer.c    ****     unsigned int i;
  42:.\buffer.c    ****     for(i = 0; i < len; i++)            // Insert data into buffer
 140              		.loc 1 42 0
 141 0030 0023     		mov	r3, #0
 142 0032 FB60     		str	r3, [r7, #12]
 143 0034 0CE0     		b	.L10
 144              	.L11:
  43:.\buffer.c    ****         buffer_[cursor_ + i] = buf[i];
 145              		.loc 1 43 0 discriminator 2
 146 0036 0F4B     		ldr	r3, .L12+4
 147 0038 1A68     		ldr	r2, [r3]
 148 003a FB68     		ldr	r3, [r7, #12]
 149 003c D318     		add	r3, r2, r3
 150 003e 7968     		ldr	r1, [r7, #4]
 151 0040 FA68     		ldr	r2, [r7, #12]
 152 0042 8A18     		add	r2, r1, r2
 153 0044 1178     		ldrb	r1, [r2]
 154 0046 0C4A     		ldr	r2, .L12+8
 155 0048 D154     		strb	r1, [r2, r3]
  42:.\buffer.c    ****     for(i = 0; i < len; i++)            // Insert data into buffer
 156              		.loc 1 42 0 discriminator 2
 157 004a FB68     		ldr	r3, [r7, #12]
 158 004c 0133     		add	r3, r3, #1
 159 004e FB60     		str	r3, [r7, #12]
 160              	.L10:
  42:.\buffer.c    ****     for(i = 0; i < len; i++)            // Insert data into buffer
 161              		.loc 1 42 0 is_stmt 0 discriminator 1
 162 0050 FA68     		ldr	r2, [r7, #12]
 163 0052 3B68     		ldr	r3, [r7]
 164 0054 9A42     		cmp	r2, r3
 165 0056 EED3     		bcc	.L11
  44:.\buffer.c    ****     
  45:.\buffer.c    ****     cursor_ += len;              // Update buffer cursor
 166              		.loc 1 45 0 is_stmt 1
 167 0058 064B     		ldr	r3, .L12+4
 168 005a 1A68     		ldr	r2, [r3]
 169 005c 3B68     		ldr	r3, [r7]
 170 005e D218     		add	r2, r2, r3
 171 0060 044B     		ldr	r3, .L12+4
 172 0062 1A60     		str	r2, [r3]
  46:.\buffer.c    **** 
  47:.\buffer.c    ****     return 0;
 173              		.loc 1 47 0
ARM GAS  C:\Users\BJRN~1\AppData\Local\Temp\ccXHoJq9.s 			page 5


 174 0064 0023     		mov	r3, #0
 175              	.L8:
  48:.\buffer.c    **** }
 176              		.loc 1 48 0
 177 0066 181C     		mov	r0, r3
 178 0068 BD46     		mov	sp, r7
 179 006a 04B0     		add	sp, sp, #16
 180              		@ sp needed for prologue
 181 006c 80BD     		pop	{r7, pc}
 182              	.L13:
 183 006e C046     		.align	2
 184              	.L12:
 185 0070 34000000 		.word	len_
 186 0074 38000000 		.word	cursor_
 187 0078 00000000 		.word	buffer_
 188              		.cfi_endproc
 189              	.LFE1:
 190              		.size	buffer_saveData, .-buffer_saveData
 191              		.section	.text.buffer_getData,"ax",%progbits
 192              		.align	2
 193              		.global	buffer_getData
 194              		.code	16
 195              		.thumb_func
 196              		.type	buffer_getData, %function
 197              	buffer_getData:
 198              	.LFB2:
  49:.\buffer.c    **** 
  50:.\buffer.c    **** int buffer_getData( char ** buf, unsigned int * len )
  51:.\buffer.c    **** {
 199              		.loc 1 51 0
 200              		.cfi_startproc
 201 0000 80B5     		push	{r7, lr}
 202              	.LCFI6:
 203              		.cfi_def_cfa_offset 8
 204              		.cfi_offset 7, -8
 205              		.cfi_offset 14, -4
 206 0002 82B0     		sub	sp, sp, #8
 207              	.LCFI7:
 208              		.cfi_def_cfa_offset 16
 209 0004 00AF     		add	r7, sp, #0
 210              	.LCFI8:
 211              		.cfi_def_cfa_register 7
 212 0006 7860     		str	r0, [r7, #4]
 213 0008 3960     		str	r1, [r7]
  52:.\buffer.c    ****     // Returns pointer and length of used space
  53:.\buffer.c    ****     *buf = buffer_;
 214              		.loc 1 53 0
 215 000a 7B68     		ldr	r3, [r7, #4]
 216 000c 064A     		ldr	r2, .L16
 217 000e 1A60     		str	r2, [r3]
  54:.\buffer.c    ****     *len = cursor_;
 218              		.loc 1 54 0
 219 0010 064B     		ldr	r3, .L16+4
 220 0012 1A68     		ldr	r2, [r3]
 221 0014 3B68     		ldr	r3, [r7]
 222 0016 1A60     		str	r2, [r3]
  55:.\buffer.c    ****     cursor_ = 0;
ARM GAS  C:\Users\BJRN~1\AppData\Local\Temp\ccXHoJq9.s 			page 6


 223              		.loc 1 55 0
 224 0018 044B     		ldr	r3, .L16+4
 225 001a 0022     		mov	r2, #0
 226 001c 1A60     		str	r2, [r3]
  56:.\buffer.c    ****     
  57:.\buffer.c    ****     return 0;
 227              		.loc 1 57 0
 228 001e 0023     		mov	r3, #0
  58:.\buffer.c    **** }
 229              		.loc 1 58 0
 230 0020 181C     		mov	r0, r3
 231 0022 BD46     		mov	sp, r7
 232 0024 02B0     		add	sp, sp, #8
 233              		@ sp needed for prologue
 234 0026 80BD     		pop	{r7, pc}
 235              	.L17:
 236              		.align	2
 237              	.L16:
 238 0028 00000000 		.word	buffer_
 239 002c 38000000 		.word	cursor_
 240              		.cfi_endproc
 241              	.LFE2:
 242              		.size	buffer_getData, .-buffer_getData
 243              		.text
 244              	.Letext0: