ARM GAS  C:\Users\BJRN~1\AppData\Local\Temp\ccgjSXQY.s 			page 1


   1              		.cpu cortex-m0
   2              		.fpu softvfp
   3              		.eabi_attribute 20, 1
   4              		.eabi_attribute 21, 1
   5              		.eabi_attribute 23, 3
   6              		.eabi_attribute 24, 1
   7              		.eabi_attribute 25, 1
   8              		.eabi_attribute 26, 1
   9              		.eabi_attribute 30, 6
  10              		.eabi_attribute 34, 0
  11              		.eabi_attribute 18, 4
  12              		.code	16
  13              		.file	"main.c"
  14              		.text
  15              	.Ltext0:
  16              		.cfi_sections	.debug_frame
  17              		.section	.rodata
  18              		.align	2
  19              	.LC0:
  20 0000 45313332 		.ascii	"E132\000"
  20      00
  21 0005 000000   		.align	2
  22              	.LC2:
  23 0008 44303135 		.ascii	"D015.202011\000"
  23      2E323032 
  23      30313100 
  24              		.section	.text.main,"ax",%progbits
  25              		.align	2
  26              		.global	main
  27              		.code	16
  28              		.thumb_func
  29              		.type	main, %function
  30              	main:
  31              	.LFB33:
  32              		.file 1 ".\\main.c"
   1:.\main.c      **** /*
   2:.\main.c      **** * File: main.c
   3:.\main.c      **** * Description: Test of class buffer
   4:.\main.c      **** * Project: PRJ3
   5:.\main.c      **** * 
   6:.\main.c      **** * Author: Bjørn Sørensen
   7:.\main.c      **** */
   8:.\main.c      **** 
   9:.\main.c      **** 
  10:.\main.c      **** #include <project.h>
  11:.\main.c      **** #include "buffer.h"
  12:.\main.c      **** 
  13:.\main.c      **** int main()
  14:.\main.c      **** {
  33              		.loc 1 14 0
  34              		.cfi_startproc
  35 0000 90B5     		push	{r4, r7, lr}
  36              	.LCFI0:
  37              		.cfi_def_cfa_offset 12
  38              		.cfi_offset 4, -12
  39              		.cfi_offset 7, -8
  40              		.cfi_offset 14, -4
ARM GAS  C:\Users\BJRN~1\AppData\Local\Temp\ccgjSXQY.s 			page 2


  41 0002 8DB0     		sub	sp, sp, #52
  42              	.LCFI1:
  43              		.cfi_def_cfa_offset 64
  44 0004 00AF     		add	r7, sp, #0
  45              	.LCFI2:
  46              		.cfi_def_cfa_register 7
  15:.\main.c      ****     // Create buffer
  16:.\main.c      ****     buffer_init();
  47              		.loc 1 16 0
  48 0006 FFF7FEFF 		bl	buffer_init
  17:.\main.c      ****     
  18:.\main.c      ****     int ret;
  19:.\main.c      ****     
  20:.\main.c      ****     // Insert into buffer and read it out
  21:.\main.c      ****     char err[] = "E132";
  49              		.loc 1 21 0
  50 000a 3B1C     		mov	r3, r7
  51 000c 1833     		add	r3, r3, #24
  52 000e 254A     		ldr	r2, .L5
  53 0010 1168     		ldr	r1, [r2]
  54 0012 1960     		str	r1, [r3]
  55 0014 1279     		ldrb	r2, [r2, #4]
  56 0016 1A71     		strb	r2, [r3, #4]
  22:.\main.c      ****     unsigned int err_len = 4;
  57              		.loc 1 22 0
  58 0018 0423     		mov	r3, #4
  59 001a BB62     		str	r3, [r7, #40]
  23:.\main.c      ****     char data[] = "D015.202011";
  60              		.loc 1 23 0
  61 001c 3B1C     		mov	r3, r7
  62 001e 0C33     		add	r3, r3, #12
  63 0020 214A     		ldr	r2, .L5+4
  64 0022 13CA     		ldmia	r2!, {r0, r1, r4}
  65 0024 13C3     		stmia	r3!, {r0, r1, r4}
  24:.\main.c      ****     unsigned int data_len = 11;
  66              		.loc 1 24 0
  67 0026 0B23     		mov	r3, #11
  68 0028 7B62     		str	r3, [r7, #36]
  25:.\main.c      ****     
  26:.\main.c      ****     char * read = NULL;
  69              		.loc 1 26 0
  70 002a 0023     		mov	r3, #0
  71 002c BB60     		str	r3, [r7, #8]
  27:.\main.c      ****     unsigned int read_len;
  28:.\main.c      ****     
  29:.\main.c      ****     buffer_saveData(err, err_len);
  72              		.loc 1 29 0
  73 002e 3A1C     		mov	r2, r7
  74 0030 1832     		add	r2, r2, #24
  75 0032 BB6A     		ldr	r3, [r7, #40]
  76 0034 101C     		mov	r0, r2
  77 0036 191C     		mov	r1, r3
  78 0038 FFF7FEFF 		bl	buffer_saveData
  30:.\main.c      ****     
  31:.\main.c      ****     buffer_getData(&read, &read_len);
  79              		.loc 1 31 0
  80 003c 3A1C     		mov	r2, r7
ARM GAS  C:\Users\BJRN~1\AppData\Local\Temp\ccgjSXQY.s 			page 3


  81 003e 0832     		add	r2, r2, #8
  82 0040 3B1D     		add	r3, r7, #4
  83 0042 101C     		mov	r0, r2
  84 0044 191C     		mov	r1, r3
  85 0046 FFF7FEFF 		bl	buffer_getData
  32:.\main.c      ****     
  33:.\main.c      ****     buffer_saveData(data, data_len);
  86              		.loc 1 33 0
  87 004a 3A1C     		mov	r2, r7
  88 004c 0C32     		add	r2, r2, #12
  89 004e 7B6A     		ldr	r3, [r7, #36]
  90 0050 101C     		mov	r0, r2
  91 0052 191C     		mov	r1, r3
  92 0054 FFF7FEFF 		bl	buffer_saveData
  34:.\main.c      ****     unsigned char i;
  35:.\main.c      ****     for(i = 0; i < 11; i++)
  93              		.loc 1 35 0
  94 0058 3B1C     		mov	r3, r7
  95 005a 2F33     		add	r3, r3, #47
  96 005c 0022     		mov	r2, #0
  97 005e 1A70     		strb	r2, [r3]
  98 0060 0FE0     		b	.L2
  99              	.L3:
  36:.\main.c      ****         ret = buffer_saveData(err, err_len);
 100              		.loc 1 36 0 discriminator 2
 101 0062 3A1C     		mov	r2, r7
 102 0064 1832     		add	r2, r2, #24
 103 0066 BB6A     		ldr	r3, [r7, #40]
 104 0068 101C     		mov	r0, r2
 105 006a 191C     		mov	r1, r3
 106 006c FFF7FEFF 		bl	buffer_saveData
 107 0070 031C     		mov	r3, r0
 108 0072 3B62     		str	r3, [r7, #32]
  35:.\main.c      ****     for(i = 0; i < 11; i++)
 109              		.loc 1 35 0 discriminator 2
 110 0074 3B1C     		mov	r3, r7
 111 0076 2F33     		add	r3, r3, #47
 112 0078 3A1C     		mov	r2, r7
 113 007a 2F32     		add	r2, r2, #47
 114 007c 1278     		ldrb	r2, [r2]
 115 007e 0132     		add	r2, r2, #1
 116 0080 1A70     		strb	r2, [r3]
 117              	.L2:
  35:.\main.c      ****     for(i = 0; i < 11; i++)
 118              		.loc 1 35 0 is_stmt 0 discriminator 1
 119 0082 3B1C     		mov	r3, r7
 120 0084 2F33     		add	r3, r3, #47
 121 0086 1B78     		ldrb	r3, [r3]
 122 0088 0A2B     		cmp	r3, #10
 123 008a EAD9     		bls	.L3
  37:.\main.c      ****     
  38:.\main.c      ****     buffer_getData(&read, &read_len);
 124              		.loc 1 38 0 is_stmt 1
 125 008c 3A1C     		mov	r2, r7
 126 008e 0832     		add	r2, r2, #8
 127 0090 3B1D     		add	r3, r7, #4
 128 0092 101C     		mov	r0, r2
ARM GAS  C:\Users\BJRN~1\AppData\Local\Temp\ccgjSXQY.s 			page 4


 129 0094 191C     		mov	r1, r3
 130 0096 FFF7FEFF 		bl	buffer_getData
  39:.\main.c      ****     
  40:.\main.c      ****     return 0;
 131              		.loc 1 40 0
 132 009a 0023     		mov	r3, #0
  41:.\main.c      **** }
 133              		.loc 1 41 0
 134 009c 181C     		mov	r0, r3
 135 009e BD46     		mov	sp, r7
 136 00a0 0DB0     		add	sp, sp, #52
 137              		@ sp needed for prologue
 138 00a2 90BD     		pop	{r4, r7, pc}
 139              	.L6:
 140              		.align	2
 141              	.L5:
 142 00a4 00000000 		.word	.LC0
 143 00a8 08000000 		.word	.LC2
 144              		.cfi_endproc
 145              	.LFE33:
 146              		.size	main, .-main
 147              		.text
 148              	.Letext0: