ARM GAS  C:\Users\BJRN~1\AppData\Local\Temp\cc39LSAe.s 			page 1


   1              		.cpu cortex-m0
   2              		.fpu softvfp
   3              		.eabi_attribute 20, 1
   4              		.eabi_attribute 21, 1
   5              		.eabi_attribute 23, 3
   6              		.eabi_attribute 24, 1
   7              		.eabi_attribute 25, 1
   8              		.eabi_attribute 26, 1
   9              		.eabi_attribute 30, 6
  10              		.eabi_attribute 34, 0
  11              		.eabi_attribute 18, 4
  12              		.code	16
  13              		.file	"addRemove.c"
  14              		.text
  15              	.Ltext0:
  16              		.cfi_sections	.debug_frame
  17              		.section	.text.addRemove_init,"ax",%progbits
  18              		.align	2
  19              		.global	addRemove_init
  20              		.code	16
  21              		.thumb_func
  22              		.type	addRemove_init, %function
  23              	addRemove_init:
  24              	.LFB0:
  25              		.file 1 ".\\addRemove.c"
   1:.\addRemove.c **** /*
   2:.\addRemove.c **** * File: addRemove.c
   3:.\addRemove.c **** * Description: Implementation for EasyWater8000 controller class addRemove
   4:.\addRemove.c **** * Project: PRJ3
   5:.\addRemove.c **** * 
   6:.\addRemove.c **** * Author: Bjørn Sørensen
   7:.\addRemove.c **** */
   8:.\addRemove.c **** 
   9:.\addRemove.c **** #include "addRemove.h"
  10:.\addRemove.c **** 
  11:.\addRemove.c **** // Private data
  12:.\addRemove.c **** 
  13:.\addRemove.c **** // Public methods
  14:.\addRemove.c **** void addRemove_init( )
  15:.\addRemove.c **** {
  26              		.loc 1 15 0
  27              		.cfi_startproc
  28 0000 80B5     		push	{r7, lr}
  29              	.LCFI0:
  30              		.cfi_def_cfa_offset 8
  31              		.cfi_offset 7, -8
  32              		.cfi_offset 14, -4
  33 0002 00AF     		add	r7, sp, #0
  34              	.LCFI1:
  35              		.cfi_def_cfa_register 7
  16:.\addRemove.c **** 
  17:.\addRemove.c **** }
  36              		.loc 1 17 0
  37 0004 BD46     		mov	sp, r7
  38              		@ sp needed for prologue
  39 0006 80BD     		pop	{r7, pc}
  40              		.cfi_endproc
ARM GAS  C:\Users\BJRN~1\AppData\Local\Temp\cc39LSAe.s 			page 2


  41              	.LFE0:
  42              		.size	addRemove_init, .-addRemove_init
  43              		.section	.text.addRemove_verify,"ax",%progbits
  44              		.align	2
  45              		.global	addRemove_verify
  46              		.code	16
  47              		.thumb_func
  48              		.type	addRemove_verify, %function
  49              	addRemove_verify:
  50              	.LFB1:
  18:.\addRemove.c **** 
  19:.\addRemove.c **** int addRemove_verify( )
  20:.\addRemove.c **** {
  51              		.loc 1 20 0
  52              		.cfi_startproc
  53 0000 80B5     		push	{r7, lr}
  54              	.LCFI2:
  55              		.cfi_def_cfa_offset 8
  56              		.cfi_offset 7, -8
  57              		.cfi_offset 14, -4
  58 0002 00AF     		add	r7, sp, #0
  59              	.LCFI3:
  60              		.cfi_def_cfa_register 7
  21:.\addRemove.c ****     return 0;
  61              		.loc 1 21 0
  62 0004 0023     		mov	r3, #0
  22:.\addRemove.c **** }...
  63              		.loc 1 22 0
  64 0006 181C     		mov	r0, r3
  65 0008 BD46     		mov	sp, r7
  66              		@ sp needed for prologue
  67 000a 80BD     		pop	{r7, pc}
  68              		.cfi_endproc
  69              	.LFE1:
  70              		.size	addRemove_verify, .-addRemove_verify
  71              		.text
  72              	.Letext0: