ARM GAS  C:\Users\BJRN~1\AppData\Local\Temp\ccgCjwtd.s 			page 1


   1              		.cpu cortex-m0
   2              		.fpu softvfp
   3              		.eabi_attribute 20, 1
   4              		.eabi_attribute 21, 1
   5              		.eabi_attribute 23, 3
   6              		.eabi_attribute 24, 1
   7              		.eabi_attribute 25, 1
   8              		.eabi_attribute 26, 1
   9              		.eabi_attribute 30, 6
  10              		.eabi_attribute 34, 0
  11              		.eabi_attribute 18, 4
  12              		.code	16
  13              		.file	"loadData.c"
  14              		.text
  15              	.Ltext0:
  16              		.cfi_sections	.debug_frame
  17              		.comm	nextState,1,1
  18              		.bss
  19              		.align	2
  20              	parametersPtr_:
  21 0000 00000000 		.space	4
  22              		.align	2
  23              	bufferPtr_:
  24 0004 00000000 		.space	4
  25              	movement_:
  26 0008 00       		.space	1
  27              	dataIndex_:
  28 0009 00       		.space	1
  29 000a 0000     		.align	2
  30              	logDataTimeoutCounter_:
  31 000c 00000000 		.space	4
  32              		.align	2
  33              	waterTimeoutCounter_:
  34 0010 00000000 		.space	4
  35              		.global	__aeabi_ui2d
  36              		.global	__aeabi_dcmpge
  37              		.section	.text.logDataISR,"ax",%progbits
  38              		.align	2
  39              		.global	logDataISR
  40              		.code	16
  41              		.thumb_func
  42              		.type	logDataISR, %function
  43              	logDataISR:
  44              	.LFB33:
  45              		.file 1 ".\\loadData.c"
   1:.\loadData.c  **** /*
   2:.\loadData.c  **** * File: loadData.c 
   3:.\loadData.c  **** * Description: Implementation of controller class loadData
   4:.\loadData.c  **** * Project: PRJ3
   5:.\loadData.c  **** * 
   6:.\loadData.c  **** * Author: Bjørn Sørensen
   7:.\loadData.c  **** */
   8:.\loadData.c  **** 
   9:.\loadData.c  **** #include "loadData.h"
  10:.\loadData.c  **** 
  11:.\loadData.c  **** // Private data
  12:.\loadData.c  **** static parameters * parametersPtr_;
ARM GAS  C:\Users\BJRN~1\AppData\Local\Temp\ccgCjwtd.s 			page 2


  13:.\loadData.c  **** static buffer * bufferPtr_;
  14:.\loadData.c  **** static unsigned char movement_;
  15:.\loadData.c  **** static unsigned char dataIndex_;
  16:.\loadData.c  **** // sensorPackage is implicit known, as it contains only methods
  17:.\loadData.c  **** static unsigned int logDataTimeoutCounter_;
  18:.\loadData.c  **** static unsigned int waterTimeoutCounter_;
  19:.\loadData.c  **** 
  20:.\loadData.c  **** // Public methods
  21:.\loadData.c  **** CY_ISR(logDataISR)
  22:.\loadData.c  **** {
  46              		.loc 1 22 0
  47              		.cfi_startproc
  48 0000 98B5     		push	{r3, r4, r7, lr}
  49              	.LCFI0:
  50              		.cfi_def_cfa_offset 16
  51              		.cfi_offset 3, -16
  52              		.cfi_offset 4, -12
  53              		.cfi_offset 7, -8
  54              		.cfi_offset 14, -4
  55 0002 00AF     		add	r7, sp, #0
  56              	.LCFI1:
  57              		.cfi_def_cfa_register 7
  23:.\loadData.c  ****     if(logDataTimeoutCounter_ >= LOGDATATIMEOUT*1000/10.923)   // Timer max: 10.923 ms. 
  58              		.loc 1 23 0
  59 0004 104B     		ldr	r3, .L7+8
  60 0006 1B68     		ldr	r3, [r3]
  61 0008 181C     		mov	r0, r3
  62 000a FFF7FEFF 		bl	__aeabi_ui2d
  63 000e 031C     		mov	r3, r0
  64 0010 0C1C     		mov	r4, r1
  65 0012 181C     		mov	r0, r3
  66 0014 211C     		mov	r1, r4
  67 0016 0B4B     		ldr	r3, .L7+4
  68 0018 094A     		ldr	r2, .L7
  69 001a FFF7FEFF 		bl	__aeabi_dcmpge
  70 001e 031C     		mov	r3, r0
  71 0020 002B     		cmp	r3, #0
  72 0022 05D0     		beq	.L6
  73              	.L5:
  24:.\loadData.c  ****     {
  25:.\loadData.c  ****         loadData_logDataTimeout();
  74              		.loc 1 25 0
  75 0024 FFF7FEFF 		bl	loadData_logDataTimeout
  26:.\loadData.c  ****         logDataTimeoutCounter_ = 0;
  76              		.loc 1 26 0
  77 0028 074B     		ldr	r3, .L7+8
  78 002a 0022     		mov	r2, #0
  79 002c 1A60     		str	r2, [r3]
  80 002e 04E0     		b	.L1
  81              	.L6:
  27:.\loadData.c  ****     }
  28:.\loadData.c  ****     else
  29:.\loadData.c  ****         logDataTimeoutCounter_++;
  82              		.loc 1 29 0
  83 0030 054B     		ldr	r3, .L7+8
  84 0032 1B68     		ldr	r3, [r3]
  85 0034 5A1C     		add	r2, r3, #1
ARM GAS  C:\Users\BJRN~1\AppData\Local\Temp\ccgCjwtd.s 			page 3


  86 0036 044B     		ldr	r3, .L7+8
  87 0038 1A60     		str	r2, [r3]
  88              	.L1:
  30:.\loadData.c  **** }
  89              		.loc 1 30 0
  90 003a BD46     		mov	sp, r7
  91              		@ sp needed for prologue
  92 003c 98BD     		pop	{r3, r4, r7, pc}
  93              	.L8:
  94 003e C046     		.align	3
  95              	.L7:
  96 0040 C98C9B39 		.word	966495433
  97 0044 32E38640 		.word	1082581810
  98 0048 0C000000 		.word	logDataTimeoutCounter_
  99              		.cfi_endproc
 100              	.LFE33:
 101              		.size	logDataISR, .-logDataISR
 102 004c C046C046 		.section	.text.waterISR,"ax",%progbits
 103              		.align	2
 104              		.global	waterISR
 105              		.code	16
 106              		.thumb_func
 107              		.type	waterISR, %function
 108              	waterISR:
 109              	.LFB34:
  31:.\loadData.c  **** 
  32:.\loadData.c  **** CY_ISR(waterISR)
  33:.\loadData.c  **** {
 110              		.loc 1 33 0
 111              		.cfi_startproc
 112 0000 98B5     		push	{r3, r4, r7, lr}
 113              	.LCFI2:
 114              		.cfi_def_cfa_offset 16
 115              		.cfi_offset 3, -16
 116              		.cfi_offset 4, -12
 117              		.cfi_offset 7, -8
 118              		.cfi_offset 14, -4
 119 0002 00AF     		add	r7, sp, #0
 120              	.LCFI3:
 121              		.cfi_def_cfa_register 7
  34:.\loadData.c  ****     if(waterTimeoutCounter_ >= WATERTIMEOUT*1000/10.923)   // Timer max: 10.923 ms. 
 122              		.loc 1 34 0
 123 0004 104B     		ldr	r3, .L15+8
 124 0006 1B68     		ldr	r3, [r3]
 125 0008 181C     		mov	r0, r3
 126 000a FFF7FEFF 		bl	__aeabi_ui2d
 127 000e 031C     		mov	r3, r0
 128 0010 0C1C     		mov	r4, r1
 129 0012 181C     		mov	r0, r3
 130 0014 211C     		mov	r1, r4
 131 0016 0B4B     		ldr	r3, .L15+4
 132 0018 094A     		ldr	r2, .L15
 133 001a FFF7FEFF 		bl	__aeabi_dcmpge
 134 001e 031C     		mov	r3, r0
 135 0020 002B     		cmp	r3, #0
 136 0022 05D0     		beq	.L14
 137              	.L13:
ARM GAS  C:\Users\BJRN~1\AppData\Local\Temp\ccgCjwtd.s 			page 4


  35:.\loadData.c  ****     {
  36:.\loadData.c  ****         loadData_waterTimeout();
 138              		.loc 1 36 0
 139 0024 FFF7FEFF 		bl	loadData_waterTimeout
  37:.\loadData.c  ****         waterTimeoutCounter_ = 0;
 140              		.loc 1 37 0
 141 0028 074B     		ldr	r3, .L15+8
 142 002a 0022     		mov	r2, #0
 143 002c 1A60     		str	r2, [r3]
 144 002e 04E0     		b	.L9
 145              	.L14:
  38:.\loadData.c  ****     }
  39:.\loadData.c  ****     else
  40:.\loadData.c  ****         waterTimeoutCounter_++;
 146              		.loc 1 40 0
 147 0030 054B     		ldr	r3, .L15+8
 148 0032 1B68     		ldr	r3, [r3]
 149 0034 5A1C     		add	r2, r3, #1
 150 0036 044B     		ldr	r3, .L15+8
 151 0038 1A60     		str	r2, [r3]
 152              	.L9:
  41:.\loadData.c  **** }
 153              		.loc 1 41 0
 154 003a BD46     		mov	sp, r7
 155              		@ sp needed for prologue
 156 003c 98BD     		pop	{r3, r4, r7, pc}
 157              	.L16:
 158 003e C046     		.align	3
 159              	.L15:
 160 0040 FB6F02C8 		.word	-939364357
 161 0044 FE9B9C40 		.word	1084005374
 162 0048 10000000 		.word	waterTimeoutCounter_
 163              		.cfi_endproc
 164              	.LFE34:
 165              		.size	waterISR, .-waterISR
 166 004c C046C046 		.section	.text.loadData_init,"ax",%progbits
 167              		.align	2
 168              		.global	loadData_init
 169              		.code	16
 170              		.thumb_func
 171              		.type	loadData_init, %function
 172              	loadData_init:
 173              	.LFB35:
  42:.\loadData.c  **** 
  43:.\loadData.c  **** 
  44:.\loadData.c  **** extern void loadData_init(parameters *par, buffer *buf) 
  45:.\loadData.c  **** {
 174              		.loc 1 45 0
 175              		.cfi_startproc
 176 0000 80B5     		push	{r7, lr}
 177              	.LCFI4:
 178              		.cfi_def_cfa_offset 8
 179              		.cfi_offset 7, -8
 180              		.cfi_offset 14, -4
 181 0002 82B0     		sub	sp, sp, #8
 182              	.LCFI5:
 183              		.cfi_def_cfa_offset 16
ARM GAS  C:\Users\BJRN~1\AppData\Local\Temp\ccgCjwtd.s 			page 5


 184 0004 00AF     		add	r7, sp, #0
 185              	.LCFI6:
 186              		.cfi_def_cfa_register 7
 187 0006 7860     		str	r0, [r7, #4]
 188 0008 3960     		str	r1, [r7]
  46:.\loadData.c  ****     // Set pointers accordingly
  47:.\loadData.c  ****     parametersPtr_ = par;
 189              		.loc 1 47 0
 190 000a 154B     		ldr	r3, .L18
 191 000c 7A68     		ldr	r2, [r7, #4]
 192 000e 1A60     		str	r2, [r3]
  48:.\loadData.c  ****     bufferPtr_ = buf;
 193              		.loc 1 48 0
 194 0010 144B     		ldr	r3, .L18+4
 195 0012 3A68     		ldr	r2, [r7]
 196 0014 1A60     		str	r2, [r3]
  49:.\loadData.c  ****     // sensorPackage is implicit known, as it contains only methods
  50:.\loadData.c  ****     dataIndex_ = 0;
 197              		.loc 1 50 0
 198 0016 144B     		ldr	r3, .L18+8
 199 0018 0022     		mov	r2, #0
 200 001a 1A70     		strb	r2, [r3]
  51:.\loadData.c  ****     nextState = 0;
 201              		.loc 1 51 0
 202 001c 134B     		ldr	r3, .L18+12
 203 001e 0022     		mov	r2, #0
 204 0020 1A70     		strb	r2, [r3]
  52:.\loadData.c  ****     
  53:.\loadData.c  ****     // Start logData timer
  54:.\loadData.c  ****     logDataTimeoutCounter_ = 0;
 205              		.loc 1 54 0
 206 0022 134B     		ldr	r3, .L18+16
 207 0024 0022     		mov	r2, #0
 208 0026 1A60     		str	r2, [r3]
  55:.\loadData.c  ****     logDataTimer_Start();
 209              		.loc 1 55 0
 210 0028 FFF7FEFF 		bl	logDataTimer_Start
  56:.\loadData.c  ****     logDataInterrupt_StartEx(logDataISR);
 211              		.loc 1 56 0
 212 002c 114B     		ldr	r3, .L18+20
 213 002e 181C     		mov	r0, r3
 214 0030 FFF7FEFF 		bl	logDataInterrupt_StartEx
  57:.\loadData.c  ****     
  58:.\loadData.c  ****     // Initialize water timer
  59:.\loadData.c  ****     waterTimeoutCounter_ = 0;
 215              		.loc 1 59 0
 216 0034 104B     		ldr	r3, .L18+24
 217 0036 0022     		mov	r2, #0
 218 0038 1A60     		str	r2, [r3]
  60:.\loadData.c  ****     waterInterrupt_StartEx(waterISR);
 219              		.loc 1 60 0
 220 003a 104B     		ldr	r3, .L18+28
 221 003c 181C     		mov	r0, r3
 222 003e FFF7FEFF 		bl	waterInterrupt_StartEx
  61:.\loadData.c  ****     
  62:.\loadData.c  ****     // Set LED green
  63:.\loadData.c  ****     RED_LED_Write(1);
ARM GAS  C:\Users\BJRN~1\AppData\Local\Temp\ccgCjwtd.s 			page 6


 223              		.loc 1 63 0
 224 0042 0120     		mov	r0, #1
 225 0044 FFF7FEFF 		bl	RED_LED_Write
  64:.\loadData.c  ****     GREEN_LED_Write(0);
 226              		.loc 1 64 0
 227 0048 0020     		mov	r0, #0
 228 004a FFF7FEFF 		bl	GREEN_LED_Write
  65:.\loadData.c  ****     BLUE_LED_Write(1);
 229              		.loc 1 65 0
 230 004e 0120     		mov	r0, #1
 231 0050 FFF7FEFF 		bl	BLUE_LED_Write
  66:.\loadData.c  ****     
  67:.\loadData.c  ****     // Get first sensor reading
  68:.\loadData.c  ****     loadData_logDataTimeout();
 232              		.loc 1 68 0
 233 0054 FFF7FEFF 		bl	loadData_logDataTimeout
  69:.\loadData.c  ****     
  70:.\loadData.c  ****     
  71:.\loadData.c  **** }
 234              		.loc 1 71 0
 235 0058 BD46     		mov	sp, r7
 236 005a 02B0     		add	sp, sp, #8
 237              		@ sp needed for prologue
 238 005c 80BD     		pop	{r7, pc}
 239              	.L19:
 240 005e C046     		.align	2
 241              	.L18:
 242 0060 00000000 		.word	parametersPtr_
 243 0064 04000000 		.word	bufferPtr_
 244 0068 09000000 		.word	dataIndex_
 245 006c 00000000 		.word	nextState
 246 0070 0C000000 		.word	logDataTimeoutCounter_
 247 0074 00000000 		.word	logDataISR
 248 0078 10000000 		.word	waterTimeoutCounter_
 249 007c 00000000 		.word	waterISR
 250              		.cfi_endproc
 251              	.LFE35:
 252              		.size	loadData_init, .-loadData_init
 253              		.section	.text.loadData_getBuffer,"ax",%progbits
 254              		.align	2
 255              		.global	loadData_getBuffer
 256              		.code	16
 257              		.thumb_func
 258              		.type	loadData_getBuffer, %function
 259              	loadData_getBuffer:
 260              	.LFB36:
  72:.\loadData.c  **** 
  73:.\loadData.c  **** int loadData_getBuffer( char ** buf, unsigned int * len)
  74:.\loadData.c  **** {
 261              		.loc 1 74 0
 262              		.cfi_startproc
 263 0000 80B5     		push	{r7, lr}
 264              	.LCFI7:
 265              		.cfi_def_cfa_offset 8
 266              		.cfi_offset 7, -8
 267              		.cfi_offset 14, -4
 268 0002 82B0     		sub	sp, sp, #8
ARM GAS  C:\Users\BJRN~1\AppData\Local\Temp\ccgCjwtd.s 			page 7


 269              	.LCFI8:
 270              		.cfi_def_cfa_offset 16
 271 0004 00AF     		add	r7, sp, #0
 272              	.LCFI9:
 273              		.cfi_def_cfa_register 7
 274 0006 7860     		str	r0, [r7, #4]
 275 0008 3960     		str	r1, [r7]
  75:.\loadData.c  ****     
  76:.\loadData.c  ****     buffer_getData(bufferPtr_, buf, len);
 276              		.loc 1 76 0
 277 000a 084B     		ldr	r3, .L22
 278 000c 1968     		ldr	r1, [r3]
 279 000e 7A68     		ldr	r2, [r7, #4]
 280 0010 3B68     		ldr	r3, [r7]
 281 0012 081C     		mov	r0, r1
 282 0014 111C     		mov	r1, r2
 283 0016 1A1C     		mov	r2, r3
 284 0018 FFF7FEFF 		bl	buffer_getData
  77:.\loadData.c  ****             
  78:.\loadData.c  ****     // Clear movement flag
  79:.\loadData.c  ****     movement_ = 0;
 285              		.loc 1 79 0
 286 001c 044B     		ldr	r3, .L22+4
 287 001e 0022     		mov	r2, #0
 288 0020 1A70     		strb	r2, [r3]
  80:.\loadData.c  ****     
  81:.\loadData.c  ****     return 0;
 289              		.loc 1 81 0
 290 0022 0023     		mov	r3, #0
  82:.\loadData.c  **** }
 291              		.loc 1 82 0
 292 0024 181C     		mov	r0, r3
 293 0026 BD46     		mov	sp, r7
 294 0028 02B0     		add	sp, sp, #8
 295              		@ sp needed for prologue
 296 002a 80BD     		pop	{r7, pc}
 297              	.L23:
 298              		.align	2
 299              	.L22:
 300 002c 04000000 		.word	bufferPtr_
 301 0030 08000000 		.word	movement_
 302              		.cfi_endproc
 303              	.LFE36:
 304              		.size	loadData_getBuffer, .-loadData_getBuffer
 305              		.global	__aeabi_f2iz
 306              		.section	.rodata
 307              		.align	2
 308              	.LC13:
 309 0000 25303369 		.ascii	"%03i\000"
 309      00
 310 0005 000000   		.align	2
 311              	.LC16:
 312 0008 45303232 		.ascii	"E022\000"
 312      00
 313 000d 000000   		.align	2
 314              	.LC18:
 315 0010 45303233 		.ascii	"E023\000"
ARM GAS  C:\Users\BJRN~1\AppData\Local\Temp\ccgCjwtd.s 			page 8


 315      00
 316              		.global	__aeabi_fcmpgt
 317              		.global	__aeabi_fcmplt
 318 0015 000000   		.section	.text.loadData_logDataTimeout,"ax",%progbits
 319              		.align	2
 320              		.global	loadData_logDataTimeout
 321              		.code	16
 322              		.thumb_func
 323              		.type	loadData_logDataTimeout, %function
 324              	loadData_logDataTimeout:
 325              	.LFB37:
  83:.\loadData.c  **** 
  84:.\loadData.c  **** int loadData_logDataTimeout()
  85:.\loadData.c  **** {
 326              		.loc 1 85 0
 327              		.cfi_startproc
 328 0000 90B5     		push	{r4, r7, lr}
 329              	.LCFI10:
 330              		.cfi_def_cfa_offset 12
 331              		.cfi_offset 4, -12
 332              		.cfi_offset 7, -8
 333              		.cfi_offset 14, -4
 334 0002 8BB0     		sub	sp, sp, #44
 335              	.LCFI11:
 336              		.cfi_def_cfa_offset 56
 337 0004 00AF     		add	r7, sp, #0
 338              	.LCFI12:
 339              		.cfi_def_cfa_register 7
  86:.\loadData.c  ****     // Get LED color and change. Set back at the end.
  87:.\loadData.c  ****     uint8 blue, red, green;
  88:.\loadData.c  ****     blue = BLUE_LED_Read();
 340              		.loc 1 88 0
 341 0006 3C1C     		mov	r4, r7
 342 0008 2634     		add	r4, r4, #38
 343 000a FFF7FEFF 		bl	BLUE_LED_Read
 344 000e 031C     		mov	r3, r0
 345 0010 2370     		strb	r3, [r4]
  89:.\loadData.c  ****     red = RED_LED_Read();
 346              		.loc 1 89 0
 347 0012 3C1C     		mov	r4, r7
 348 0014 2534     		add	r4, r4, #37
 349 0016 FFF7FEFF 		bl	RED_LED_Read
 350 001a 031C     		mov	r3, r0
 351 001c 2370     		strb	r3, [r4]
  90:.\loadData.c  ****     green = GREEN_LED_Read();
 352              		.loc 1 90 0
 353 001e 3C1C     		mov	r4, r7
 354 0020 2434     		add	r4, r4, #36
 355 0022 FFF7FEFF 		bl	GREEN_LED_Read
 356 0026 031C     		mov	r3, r0
 357 0028 2370     		strb	r3, [r4]
  91:.\loadData.c  ****     
  92:.\loadData.c  ****     RED_LED_Write(0);   // Yellow for loging data
 358              		.loc 1 92 0
 359 002a 0020     		mov	r0, #0
 360 002c FFF7FEFF 		bl	RED_LED_Write
  93:.\loadData.c  ****     GREEN_LED_Write(0);
ARM GAS  C:\Users\BJRN~1\AppData\Local\Temp\ccgCjwtd.s 			page 9


 361              		.loc 1 93 0
 362 0030 0020     		mov	r0, #0
 363 0032 FFF7FEFF 		bl	GREEN_LED_Write
  94:.\loadData.c  ****     BLUE_LED_Write(1);
 364              		.loc 1 94 0
 365 0036 0120     		mov	r0, #1
 366 0038 FFF7FEFF 		bl	BLUE_LED_Write
  95:.\loadData.c  ****     
  96:.\loadData.c  ****     int ret;    // Error flag
  97:.\loadData.c  ****     
  98:.\loadData.c  ****     // Collect data limits from parameters
  99:.\loadData.c  ****     unsigned char active;
 100:.\loadData.c  ****     float tempLimit, humiLimit;
 101:.\loadData.c  ****     parameters_getActive(parametersPtr_, &active);
 367              		.loc 1 101 0
 368 003c 5F4B     		ldr	r3, .L35
 369 003e 1A68     		ldr	r2, [r3]
 370 0040 3B1C     		mov	r3, r7
 371 0042 1F33     		add	r3, r3, #31
 372 0044 101C     		mov	r0, r2
 373 0046 191C     		mov	r1, r3
 374 0048 FFF7FEFF 		bl	parameters_getActive
 102:.\loadData.c  ****     parameters_getTemp(parametersPtr_, &tempLimit);
 375              		.loc 1 102 0
 376 004c 5B4B     		ldr	r3, .L35
 377 004e 1A68     		ldr	r2, [r3]
 378 0050 3B1C     		mov	r3, r7
 379 0052 1833     		add	r3, r3, #24
 380 0054 101C     		mov	r0, r2
 381 0056 191C     		mov	r1, r3
 382 0058 FFF7FEFF 		bl	parameters_getTemp
 103:.\loadData.c  ****     parameters_getHumi(parametersPtr_, &humiLimit);
 383              		.loc 1 103 0
 384 005c 574B     		ldr	r3, .L35
 385 005e 1A68     		ldr	r2, [r3]
 386 0060 3B1C     		mov	r3, r7
 387 0062 1433     		add	r3, r3, #20
 388 0064 101C     		mov	r0, r2
 389 0066 191C     		mov	r1, r3
 390 0068 FFF7FEFF 		bl	parameters_getHumi
 104:.\loadData.c  ****     
 105:.\loadData.c  ****     // Collect data from sensorpackage
 106:.\loadData.c  ****     float temp, humi;
 107:.\loadData.c  ****     sensorPackage_getData(&temp, &humi);
 391              		.loc 1 107 0
 392 006c 3A1C     		mov	r2, r7
 393 006e 1032     		add	r2, r2, #16
 394 0070 3B1C     		mov	r3, r7
 395 0072 0C33     		add	r3, r3, #12
 396 0074 101C     		mov	r0, r2
 397 0076 191C     		mov	r1, r3
 398 0078 FFF7FEFF 		bl	sensorPackage_getData
 108:.\loadData.c  ****     
 109:.\loadData.c  ****     // Create water flag and initialize
 110:.\loadData.c  ****     unsigned char water;
 111:.\loadData.c  ****     water = '0';
 399              		.loc 1 111 0
ARM GAS  C:\Users\BJRN~1\AppData\Local\Temp\ccgCjwtd.s 			page 10


 400 007c 3B1C     		mov	r3, r7
 401 007e 2733     		add	r3, r3, #39
 402 0080 3022     		mov	r2, #48
 403 0082 1A70     		strb	r2, [r3]
 112:.\loadData.c  ****     
 113:.\loadData.c  ****     // Save data as string i buffer, with movement set accordingly
 114:.\loadData.c  ****     char data[11];
 115:.\loadData.c  ****     data[0] = 'D';
 404              		.loc 1 115 0
 405 0084 3B1C     		mov	r3, r7
 406 0086 4422     		mov	r2, #68
 407 0088 1A70     		strb	r2, [r3]
 116:.\loadData.c  **** 
 117:.\loadData.c  ****     ret = snprintf(data + 1, 4, "%03i", (int)temp);   // Convert temp int to 3 character, 0 left-pa
 408              		.loc 1 117 0
 409 008a 3B69     		ldr	r3, [r7, #16]
 410 008c 181C     		add	r0, r3, #0
 411 008e FFF7FEFF 		bl	__aeabi_f2iz
 412 0092 031C     		mov	r3, r0
 413 0094 3A1C     		mov	r2, r7
 414 0096 511C     		add	r1, r2, #1
 415 0098 494A     		ldr	r2, .L35+4
 416 009a 081C     		mov	r0, r1
 417 009c 0421     		mov	r1, #4
 418 009e FFF7FEFF 		bl	snprintf
 419 00a2 031C     		mov	r3, r0
 420 00a4 3B62     		str	r3, [r7, #32]
 118:.\loadData.c  ****     if(ret != 3) // In case of failure, write error to buffer
 421              		.loc 1 118 0
 422 00a6 3B6A     		ldr	r3, [r7, #32]
 423 00a8 032B     		cmp	r3, #3
 424 00aa 0AD0     		beq	.L25
 119:.\loadData.c  ****     {
 120:.\loadData.c  ****         buffer_saveData(bufferPtr_, "E022", 4);
 425              		.loc 1 120 0
 426 00ac 454B     		ldr	r3, .L35+8
 427 00ae 1A68     		ldr	r2, [r3]
 428 00b0 454B     		ldr	r3, .L35+12
 429 00b2 101C     		mov	r0, r2
 430 00b4 191C     		mov	r1, r3
 431 00b6 0422     		mov	r2, #4
 432 00b8 FFF7FEFF 		bl	buffer_saveData
 121:.\loadData.c  ****         return -22;
 433              		.loc 1 121 0
 434 00bc 1623     		mov	r3, #22
 435 00be 5B42     		neg	r3, r3
 436 00c0 77E0     		b	.L34
 437              	.L25:
 122:.\loadData.c  ****     }
 123:.\loadData.c  ****     // Add fake decimals
 124:.\loadData.c  ****     data[4] = '.';
 438              		.loc 1 124 0
 439 00c2 3B1C     		mov	r3, r7
 440 00c4 2E22     		mov	r2, #46
 441 00c6 1A71     		strb	r2, [r3, #4]
 125:.\loadData.c  ****     data[5] = '0';
 442              		.loc 1 125 0
ARM GAS  C:\Users\BJRN~1\AppData\Local\Temp\ccgCjwtd.s 			page 11


 443 00c8 3B1C     		mov	r3, r7
 444 00ca 3022     		mov	r2, #48
 445 00cc 5A71     		strb	r2, [r3, #5]
 126:.\loadData.c  ****     
 127:.\loadData.c  ****     ret = snprintf(data + 6, 4, "%03i", (int)humi);  // Convert humi int to 3 character, 0 left-pad
 446              		.loc 1 127 0
 447 00ce FB68     		ldr	r3, [r7, #12]
 448 00d0 181C     		add	r0, r3, #0
 449 00d2 FFF7FEFF 		bl	__aeabi_f2iz
 450 00d6 031C     		mov	r3, r0
 451 00d8 3A1C     		mov	r2, r7
 452 00da 911D     		add	r1, r2, #6
 453 00dc 384A     		ldr	r2, .L35+4
 454 00de 081C     		mov	r0, r1
 455 00e0 0421     		mov	r1, #4
 456 00e2 FFF7FEFF 		bl	snprintf
 457 00e6 031C     		mov	r3, r0
 458 00e8 3B62     		str	r3, [r7, #32]
 128:.\loadData.c  ****     if(ret != 3) // In case of failure, write error to buffer
 459              		.loc 1 128 0
 460 00ea 3B6A     		ldr	r3, [r7, #32]
 461 00ec 032B     		cmp	r3, #3
 462 00ee 0AD0     		beq	.L27
 129:.\loadData.c  ****     {
 130:.\loadData.c  ****         buffer_saveData(bufferPtr_, "E023", 4);
 463              		.loc 1 130 0
 464 00f0 344B     		ldr	r3, .L35+8
 465 00f2 1A68     		ldr	r2, [r3]
 466 00f4 354B     		ldr	r3, .L35+16
 467 00f6 101C     		mov	r0, r2
 468 00f8 191C     		mov	r1, r3
 469 00fa 0422     		mov	r2, #4
 470 00fc FFF7FEFF 		bl	buffer_saveData
 131:.\loadData.c  ****         return -23;
 471              		.loc 1 131 0
 472 0100 1723     		mov	r3, #23
 473 0102 5B42     		neg	r3, r3
 474 0104 55E0     		b	.L34
 475              	.L27:
 132:.\loadData.c  ****     }
 133:.\loadData.c  ****     
 134:.\loadData.c  ****     // If sensor values are out of parameter limits and system is active, activate water
 135:.\loadData.c  ****     if(active == 1 && (temp > tempLimit || humi < humiLimit))
 476              		.loc 1 135 0
 477 0106 3B1C     		mov	r3, r7
 478 0108 1F33     		add	r3, r3, #31
 479 010a 1B78     		ldrb	r3, [r3]
 480 010c 012B     		cmp	r3, #1
 481 010e 22D1     		bne	.L28
 482              		.loc 1 135 0 is_stmt 0 discriminator 1
 483 0110 3A69     		ldr	r2, [r7, #16]
 484 0112 BB69     		ldr	r3, [r7, #24]
 485 0114 101C     		add	r0, r2, #0
 486 0116 191C     		add	r1, r3, #0
 487 0118 FFF7FEFF 		bl	__aeabi_fcmpgt
 488 011c 031C     		mov	r3, r0
 489 011e 002B     		cmp	r3, #0
ARM GAS  C:\Users\BJRN~1\AppData\Local\Temp\ccgCjwtd.s 			page 12


 490 0120 08D1     		bne	.L29
 491 0122 FA68     		ldr	r2, [r7, #12]
 492 0124 7B69     		ldr	r3, [r7, #20]
 493 0126 101C     		add	r0, r2, #0
 494 0128 191C     		add	r1, r3, #0
 495 012a FFF7FEFF 		bl	__aeabi_fcmplt
 496 012e 031C     		mov	r3, r0
 497 0130 002B     		cmp	r3, #0
 498 0132 10D0     		beq	.L28
 499              	.L29:
 136:.\loadData.c  ****     {
 137:.\loadData.c  ****         // Start water timer
 138:.\loadData.c  ****         sensorPackage_water(1);
 500              		.loc 1 138 0 is_stmt 1
 501 0134 0120     		mov	r0, #1
 502 0136 FFF7FEFF 		bl	sensorPackage_water
 139:.\loadData.c  ****         
 140:.\loadData.c  ****         RED_LED_Write(1);   // Yellow for loging data
 503              		.loc 1 140 0
 504 013a 0120     		mov	r0, #1
 505 013c FFF7FEFF 		bl	RED_LED_Write
 141:.\loadData.c  ****         GREEN_LED_Write(1);
 506              		.loc 1 141 0
 507 0140 0120     		mov	r0, #1
 508 0142 FFF7FEFF 		bl	GREEN_LED_Write
 142:.\loadData.c  ****         BLUE_LED_Write(1);
 509              		.loc 1 142 0
 510 0146 0120     		mov	r0, #1
 511 0148 FFF7FEFF 		bl	BLUE_LED_Write
 143:.\loadData.c  **** 
 144:.\loadData.c  ****         water = '1';
 512              		.loc 1 144 0
 513 014c 3B1C     		mov	r3, r7
 514 014e 2733     		add	r3, r3, #39
 515 0150 3122     		mov	r2, #49
 516 0152 1A70     		strb	r2, [r3]
 517 0154 02E0     		b	.L31
 518              	.L28:
 145:.\loadData.c  ****     }
 146:.\loadData.c  ****     else
 147:.\loadData.c  ****     {
 148:.\loadData.c  ****         sensorPackage_water(0);
 519              		.loc 1 148 0
 520 0156 0020     		mov	r0, #0
 521 0158 FFF7FEFF 		bl	sensorPackage_water
 522              	.L31:
 149:.\loadData.c  ****     }
 150:.\loadData.c  ****     
 151:.\loadData.c  ****     data[9] = water;
 523              		.loc 1 151 0
 524 015c 3B1C     		mov	r3, r7
 525 015e 3A1C     		mov	r2, r7
 526 0160 2732     		add	r2, r2, #39
 527 0162 1278     		ldrb	r2, [r2]
 528 0164 5A72     		strb	r2, [r3, #9]
 152:.\loadData.c  ****     if(movement_ == 0)
 529              		.loc 1 152 0
ARM GAS  C:\Users\BJRN~1\AppData\Local\Temp\ccgCjwtd.s 			page 13


 530 0166 1A4B     		ldr	r3, .L35+20
 531 0168 1B78     		ldrb	r3, [r3]
 532 016a 002B     		cmp	r3, #0
 533 016c 03D1     		bne	.L32
 153:.\loadData.c  ****         data[10] = '0';
 534              		.loc 1 153 0
 535 016e 3B1C     		mov	r3, r7
 536 0170 3022     		mov	r2, #48
 537 0172 9A72     		strb	r2, [r3, #10]
 538 0174 02E0     		b	.L33
 539              	.L32:
 154:.\loadData.c  ****     else
 155:.\loadData.c  ****         data[10] = '1';
 540              		.loc 1 155 0
 541 0176 3B1C     		mov	r3, r7
 542 0178 3122     		mov	r2, #49
 543 017a 9A72     		strb	r2, [r3, #10]
 544              	.L33:
 156:.\loadData.c  ****      
 157:.\loadData.c  ****     // Save data in buffer object for later use
 158:.\loadData.c  ****     buffer_saveData(bufferPtr_, data, 11);
 545              		.loc 1 158 0
 546 017c 114B     		ldr	r3, .L35+8
 547 017e 1A68     		ldr	r2, [r3]
 548 0180 3B1C     		mov	r3, r7
 549 0182 101C     		mov	r0, r2
 550 0184 191C     		mov	r1, r3
 551 0186 0B22     		mov	r2, #11
 552 0188 FFF7FEFF 		bl	buffer_saveData
 159:.\loadData.c  **** 
 160:.\loadData.c  ****     RED_LED_Write(red);
 553              		.loc 1 160 0
 554 018c 3B1C     		mov	r3, r7
 555 018e 2533     		add	r3, r3, #37
 556 0190 1B78     		ldrb	r3, [r3]
 557 0192 181C     		mov	r0, r3
 558 0194 FFF7FEFF 		bl	RED_LED_Write
 161:.\loadData.c  ****     GREEN_LED_Write(green);
 559              		.loc 1 161 0
 560 0198 3B1C     		mov	r3, r7
 561 019a 2433     		add	r3, r3, #36
 562 019c 1B78     		ldrb	r3, [r3]
 563 019e 181C     		mov	r0, r3
 564 01a0 FFF7FEFF 		bl	GREEN_LED_Write
 162:.\loadData.c  ****     BLUE_LED_Write(blue);
 565              		.loc 1 162 0
 566 01a4 3B1C     		mov	r3, r7
 567 01a6 2633     		add	r3, r3, #38
 568 01a8 1B78     		ldrb	r3, [r3]
 569 01aa 181C     		mov	r0, r3
 570 01ac FFF7FEFF 		bl	BLUE_LED_Write
 163:.\loadData.c  ****     
 164:.\loadData.c  ****     return 0;
 571              		.loc 1 164 0
 572 01b0 0023     		mov	r3, #0
 573              	.L34:
 165:.\loadData.c  **** }
ARM GAS  C:\Users\BJRN~1\AppData\Local\Temp\ccgCjwtd.s 			page 14


 574              		.loc 1 165 0
 575 01b2 181C     		mov	r0, r3
 576 01b4 BD46     		mov	sp, r7
 577 01b6 0BB0     		add	sp, sp, #44
 578              		@ sp needed for prologue
 579 01b8 90BD     		pop	{r4, r7, pc}
 580              	.L36:
 581 01ba C046     		.align	2
 582              	.L35:
 583 01bc 00000000 		.word	parametersPtr_
 584 01c0 00000000 		.word	.LC13
 585 01c4 04000000 		.word	bufferPtr_
 586 01c8 08000000 		.word	.LC16
 587 01cc 10000000 		.word	.LC18
 588 01d0 08000000 		.word	movement_
 589              		.cfi_endproc
 590              	.LFE37:
 591              		.size	loadData_logDataTimeout, .-loadData_logDataTimeout
 592              		.section	.text.loadData_movementDetect,"ax",%progbits
 593              		.align	2
 594              		.global	loadData_movementDetect
 595              		.code	16
 596              		.thumb_func
 597              		.type	loadData_movementDetect, %function
 598              	loadData_movementDetect:
 599              	.LFB38:
 166:.\loadData.c  **** 
 167:.\loadData.c  **** int loadData_movementDetect()
 168:.\loadData.c  **** {
 600              		.loc 1 168 0
 601              		.cfi_startproc
 602 0000 80B5     		push	{r7, lr}
 603              	.LCFI13:
 604              		.cfi_def_cfa_offset 8
 605              		.cfi_offset 7, -8
 606              		.cfi_offset 14, -4
 607 0002 82B0     		sub	sp, sp, #8
 608              	.LCFI14:
 609              		.cfi_def_cfa_offset 16
 610 0004 00AF     		add	r7, sp, #0
 611              	.LCFI15:
 612              		.cfi_def_cfa_register 7
 169:.\loadData.c  ****     unsigned char val;
 170:.\loadData.c  ****     parameters_getActive(parametersPtr_, &val);
 613              		.loc 1 170 0
 614 0006 154B     		ldr	r3, .L40
 615 0008 1A68     		ldr	r2, [r3]
 616 000a FB1D     		add	r3, r7, #7
 617 000c 101C     		mov	r0, r2
 618 000e 191C     		mov	r1, r3
 619 0010 FFF7FEFF 		bl	parameters_getActive
 171:.\loadData.c  ****     nextState = val;
 620              		.loc 1 171 0
 621 0014 FB1D     		add	r3, r7, #7
 622 0016 1A78     		ldrb	r2, [r3]
 623 0018 114B     		ldr	r3, .L40+4
 624 001a 1A70     		strb	r2, [r3]
ARM GAS  C:\Users\BJRN~1\AppData\Local\Temp\ccgCjwtd.s 			page 15


 172:.\loadData.c  ****     
 173:.\loadData.c  ****     if(val == 1)
 625              		.loc 1 173 0
 626 001c FB1D     		add	r3, r7, #7
 627 001e 1B78     		ldrb	r3, [r3]
 628 0020 012B     		cmp	r3, #1
 629 0022 13D1     		bne	.L38
 174:.\loadData.c  ****      {
 175:.\loadData.c  ****         // Clear active flag in parameters
 176:.\loadData.c  ****         parameters_setActive(parametersPtr_, 0);
 630              		.loc 1 176 0
 631 0024 0D4B     		ldr	r3, .L40
 632 0026 1B68     		ldr	r3, [r3]
 633 0028 181C     		mov	r0, r3
 634 002a 0021     		mov	r1, #0
 635 002c FFF7FEFF 		bl	parameters_setActive
 177:.\loadData.c  ****         
 178:.\loadData.c  ****         GREEN_LED_Write(1);
 636              		.loc 1 178 0
 637 0030 0120     		mov	r0, #1
 638 0032 FFF7FEFF 		bl	GREEN_LED_Write
 179:.\loadData.c  ****         RED_LED_Write(0);
 639              		.loc 1 179 0
 640 0036 0020     		mov	r0, #0
 641 0038 FFF7FEFF 		bl	RED_LED_Write
 180:.\loadData.c  ****         BLUE_LED_Write(1);
 642              		.loc 1 180 0
 643 003c 0120     		mov	r0, #1
 644 003e FFF7FEFF 		bl	BLUE_LED_Write
 181:.\loadData.c  ****         
 182:.\loadData.c  ****         sensorPackage_water(0);
 645              		.loc 1 182 0
 646 0042 0020     		mov	r0, #0
 647 0044 FFF7FEFF 		bl	sensorPackage_water
 183:.\loadData.c  ****         
 184:.\loadData.c  ****         // Start 30 minute timer
 185:.\loadData.c  ****         waterTimer_Start();
 648              		.loc 1 185 0
 649 0048 FFF7FEFF 		bl	waterTimer_Start
 650              	.L38:
 186:.\loadData.c  **** 
 187:.\loadData.c  ****     }
 188:.\loadData.c  ****         
 189:.\loadData.c  ****     // Set movement flag
 190:.\loadData.c  ****     movement_ = 1;
 651              		.loc 1 190 0
 652 004c 054B     		ldr	r3, .L40+8
 653 004e 0122     		mov	r2, #1
 654 0050 1A70     		strb	r2, [r3]
 191:.\loadData.c  ****     
 192:.\loadData.c  ****     return 0;
 655              		.loc 1 192 0
 656 0052 0023     		mov	r3, #0
 193:.\loadData.c  **** }
 657              		.loc 1 193 0
 658 0054 181C     		mov	r0, r3
 659 0056 BD46     		mov	sp, r7
ARM GAS  C:\Users\BJRN~1\AppData\Local\Temp\ccgCjwtd.s 			page 16


 660 0058 02B0     		add	sp, sp, #8
 661              		@ sp needed for prologue
 662 005a 80BD     		pop	{r7, pc}
 663              	.L41:
 664              		.align	2
 665              	.L40:
 666 005c 00000000 		.word	parametersPtr_
 667 0060 00000000 		.word	nextState
 668 0064 08000000 		.word	movement_
 669              		.cfi_endproc
 670              	.LFE38:
 671              		.size	loadData_movementDetect, .-loadData_movementDetect
 672              		.section	.text.loadData_waterTimeout,"ax",%progbits
 673              		.align	2
 674              		.global	loadData_waterTimeout
 675              		.code	16
 676              		.thumb_func
 677              		.type	loadData_waterTimeout, %function
 678              	loadData_waterTimeout:
 679              	.LFB39:
 194:.\loadData.c  **** 
 195:.\loadData.c  **** int  loadData_waterTimeout()
 196:.\loadData.c  **** {
 680              		.loc 1 196 0
 681              		.cfi_startproc
 682 0000 80B5     		push	{r7, lr}
 683              	.LCFI16:
 684              		.cfi_def_cfa_offset 8
 685              		.cfi_offset 7, -8
 686              		.cfi_offset 14, -4
 687 0002 00AF     		add	r7, sp, #0
 688              	.LCFI17:
 689              		.cfi_def_cfa_register 7
 197:.\loadData.c  ****     // Set active_ flag in parameters
 198:.\loadData.c  ****     parameters_setActive(parametersPtr_, nextState);
 690              		.loc 1 198 0
 691 0004 0B4B     		ldr	r3, .L44
 692 0006 1A68     		ldr	r2, [r3]
 693 0008 0B4B     		ldr	r3, .L44+4
 694 000a 1B78     		ldrb	r3, [r3]
 695 000c 101C     		mov	r0, r2
 696 000e 191C     		mov	r1, r3
 697 0010 FFF7FEFF 		bl	parameters_setActive
 199:.\loadData.c  ****     
 200:.\loadData.c  ****     RED_LED_Write(1);
 698              		.loc 1 200 0
 699 0014 0120     		mov	r0, #1
 700 0016 FFF7FEFF 		bl	RED_LED_Write
 201:.\loadData.c  ****     GREEN_LED_Write(0);
 701              		.loc 1 201 0
 702 001a 0020     		mov	r0, #0
 703 001c FFF7FEFF 		bl	GREEN_LED_Write
 202:.\loadData.c  ****     BLUE_LED_Write(1);
 704              		.loc 1 202 0
 705 0020 0120     		mov	r0, #1
 706 0022 FFF7FEFF 		bl	BLUE_LED_Write
 203:.\loadData.c  ****     
ARM GAS  C:\Users\BJRN~1\AppData\Local\Temp\ccgCjwtd.s 			page 17


 204:.\loadData.c  ****     waterTimer_Stop();
 707              		.loc 1 204 0
 708 0026 FFF7FEFF 		bl	waterTimer_Stop
 205:.\loadData.c  ****     
 206:.\loadData.c  ****     return 0;
 709              		.loc 1 206 0
 710 002a 0023     		mov	r3, #0
 207:.\loadData.c  **** }
 711              		.loc 1 207 0
 712 002c 181C     		mov	r0, r3
 713 002e BD46     		mov	sp, r7
 714              		@ sp needed for prologue
 715 0030 80BD     		pop	{r7, pc}
 716              	.L45:
 717 0032 C046     		.align	2
 718              	.L44:
 719 0034 00000000 		.word	parametersPtr_
 720 0038 00000000 		.word	nextState
 721              		.cfi_endproc
 722              	.LFE39:
 723              		.size	loadData_waterTimeout, .-loadData_waterTimeout
 724              		.text
 725              	.Letext0:
 726              		.file 2 ".\\buffer.h"
 727              		.file 3 ".\\parameters.h"
 728              		.file 4 "./Generated_Source/PSoC4/cytypes.h"
 729              		.file 5 ".\\loadData.h"