ARM GAS  C:\Users\BJRN~1\AppData\Local\Temp\ccmrE0Uq.s 			page 1


   1              		.cpu cortex-m0
   2              		.fpu softvfp
   3              		.eabi_attribute 20, 1
   4              		.eabi_attribute 21, 1
   5              		.eabi_attribute 23, 3
   6              		.eabi_attribute 24, 1
   7              		.eabi_attribute 25, 1
   8              		.eabi_attribute 26, 1
   9              		.eabi_attribute 30, 6
  10              		.eabi_attribute 34, 0
  11              		.eabi_attribute 18, 4
  12              		.code	16
  13              		.file	"movement.c"
  14              		.text
  15              	.Ltext0:
  16              		.cfi_sections	.debug_frame
  17              		.comm	nextState,1,1
  18              		.section	.text.movement_init,"ax",%progbits
  19              		.align	2
  20              		.global	movement_init
  21              		.code	16
  22              		.thumb_func
  23              		.type	movement_init, %function
  24              	movement_init:
  25              	.LFB33:
  26              		.file 1 ".\\movement.c"
   1:.\movement.c  **** 
   2:.\movement.c  **** #include "movement.h"
   3:.\movement.c  **** 
   4:.\movement.c  **** extern void movement_init()
   5:.\movement.c  **** {
  27              		.loc 1 5 0
  28              		.cfi_startproc
  29 0000 80B5     		push	{r7, lr}
  30              	.LCFI0:
  31              		.cfi_def_cfa_offset 8
  32              		.cfi_offset 7, -8
  33              		.cfi_offset 14, -4
  34 0002 00AF     		add	r7, sp, #0
  35              	.LCFI1:
  36              		.cfi_def_cfa_register 7
   6:.\movement.c  ****     isr_pir_StartEx(P_PIR);
  37              		.loc 1 6 0
  38 0004 024B     		ldr	r3, .L2
  39 0006 181C     		mov	r0, r3
  40 0008 FFF7FEFF 		bl	isr_pir_StartEx
   7:.\movement.c  **** }
  41              		.loc 1 7 0
  42 000c BD46     		mov	sp, r7
  43              		@ sp needed for prologue
  44 000e 80BD     		pop	{r7, pc}
  45              	.L3:
  46              		.align	2
  47              	.L2:
  48 0010 00000000 		.word	P_PIR
  49              		.cfi_endproc
  50              	.LFE33:
ARM GAS  C:\Users\BJRN~1\AppData\Local\Temp\ccmrE0Uq.s 			page 2


  51              		.size	movement_init, .-movement_init
  52              		.section	.text.P_PIR,"ax",%progbits
  53              		.align	2
  54              		.global	P_PIR
  55              		.code	16
  56              		.thumb_func
  57              		.type	P_PIR, %function
  58              	P_PIR:
  59              	.LFB34:
   8:.\movement.c  **** 
   9:.\movement.c  **** CY_ISR(P_PIR)
  10:.\movement.c  **** {
  60              		.loc 1 10 0
  61              		.cfi_startproc
  62 0000 80B5     		push	{r7, lr}
  63              	.LCFI2:
  64              		.cfi_def_cfa_offset 8
  65              		.cfi_offset 7, -8
  66              		.cfi_offset 14, -4
  67 0002 00AF     		add	r7, sp, #0
  68              	.LCFI3:
  69              		.cfi_def_cfa_register 7
  11:.\movement.c  ****    loadData_movementDetect(); 
  70              		.loc 1 11 0
  71 0004 FFF7FEFF 		bl	loadData_movementDetect
  12:.\movement.c  **** }
  72              		.loc 1 12 0
  73 0008 BD46     		mov	sp, r7
  74              		@ sp needed for prologue
  75 000a 80BD     		pop	{r7, pc}
  76              		.cfi_endproc
  77              	.LFE34:
  78              		.size	P_PIR, .-P_PIR
  79              		.text
  80              	.Letext0:
  81              		.file 2 ".\\loaddata.h"