ARM GAS  C:\Users\BJRN~1\AppData\Local\Temp\ccUkKC23.s 			page 1


   1              		.cpu cortex-m0
   2              		.fpu softvfp
   3              		.eabi_attribute 20, 1
   4              		.eabi_attribute 21, 1
   5              		.eabi_attribute 23, 3
   6              		.eabi_attribute 24, 1
   7              		.eabi_attribute 25, 1
   8              		.eabi_attribute 26, 1
   9              		.eabi_attribute 30, 6
  10              		.eabi_attribute 34, 0
  11              		.eabi_attribute 18, 4
  12              		.code	16
  13              		.file	"onOff.c"
  14              		.text
  15              	.Ltext0:
  16              		.cfi_sections	.debug_frame
  17              		.bss
  18              		.align	2
  19              	parametersPtr_:
  20 0000 00000000 		.space	4
  21              		.align	2
  22              	bufferPtr_:
  23 0004 00000000 		.space	4
  24              		.section	.text.onOff_init,"ax",%progbits
  25              		.align	2
  26              		.global	onOff_init
  27              		.code	16
  28              		.thumb_func
  29              		.type	onOff_init, %function
  30              	onOff_init:
  31              	.LFB0:
  32              		.file 1 ".\\onOff.c"
   1:.\onOff.c     **** /*
   2:.\onOff.c     **** * File: onOff.c
   3:.\onOff.c     **** * Description: Implementation for EasyWater8000 controller class onOff
   4:.\onOff.c     **** * Project: PRJ3
   5:.\onOff.c     **** * 
   6:.\onOff.c     **** * Author: Bjørn Sørensen
   7:.\onOff.c     **** */
   8:.\onOff.c     **** 
   9:.\onOff.c     **** #include "onOff.h"
  10:.\onOff.c     **** 
  11:.\onOff.c     **** // Private data
  12:.\onOff.c     **** static parameters * parametersPtr_;
  13:.\onOff.c     **** static buffer * bufferPtr_;
  14:.\onOff.c     **** 
  15:.\onOff.c     **** // Public methods
  16:.\onOff.c     **** void onOff_init(parameters * parPtr, buffer * bufPtr)
  17:.\onOff.c     **** {
  33              		.loc 1 17 0
  34              		.cfi_startproc
  35 0000 80B5     		push	{r7, lr}
  36              	.LCFI0:
  37              		.cfi_def_cfa_offset 8
  38              		.cfi_offset 7, -8
  39              		.cfi_offset 14, -4
  40 0002 82B0     		sub	sp, sp, #8
ARM GAS  C:\Users\BJRN~1\AppData\Local\Temp\ccUkKC23.s 			page 2


  41              	.LCFI1:
  42              		.cfi_def_cfa_offset 16
  43 0004 00AF     		add	r7, sp, #0
  44              	.LCFI2:
  45              		.cfi_def_cfa_register 7
  46 0006 7860     		str	r0, [r7, #4]
  47 0008 3960     		str	r1, [r7]
  18:.\onOff.c     ****     parametersPtr_ = parPtr;
  48              		.loc 1 18 0
  49 000a 044B     		ldr	r3, .L2
  50 000c 7A68     		ldr	r2, [r7, #4]
  51 000e 1A60     		str	r2, [r3]
  19:.\onOff.c     ****     bufferPtr_ = bufPtr;
  52              		.loc 1 19 0
  53 0010 034B     		ldr	r3, .L2+4
  54 0012 3A68     		ldr	r2, [r7]
  55 0014 1A60     		str	r2, [r3]
  20:.\onOff.c     **** }
  56              		.loc 1 20 0
  57 0016 BD46     		mov	sp, r7
  58 0018 02B0     		add	sp, sp, #8
  59              		@ sp needed for prologue
  60 001a 80BD     		pop	{r7, pc}
  61              	.L3:
  62              		.align	2
  63              	.L2:
  64 001c 00000000 		.word	parametersPtr_
  65 0020 04000000 		.word	bufferPtr_
  66              		.cfi_endproc
  67              	.LFE0:
  68              		.size	onOff_init, .-onOff_init
  69              		.section	.rodata
  70              		.align	2
  71              	.LC3:
  72 0000 45303233 		.ascii	"E023\000"
  72      00
  73 0005 000000   		.section	.text.onOff_turnOnOff,"ax",%progbits
  74              		.align	2
  75              		.global	onOff_turnOnOff
  76              		.code	16
  77              		.thumb_func
  78              		.type	onOff_turnOnOff, %function
  79              	onOff_turnOnOff:
  80              	.LFB1:
  21:.\onOff.c     **** 
  22:.\onOff.c     **** int onOff_turnOnOff(const unsigned char state)
  23:.\onOff.c     **** {
  81              		.loc 1 23 0
  82              		.cfi_startproc
  83 0000 80B5     		push	{r7, lr}
  84              	.LCFI3:
  85              		.cfi_def_cfa_offset 8
  86              		.cfi_offset 7, -8
  87              		.cfi_offset 14, -4
  88 0002 82B0     		sub	sp, sp, #8
  89              	.LCFI4:
  90              		.cfi_def_cfa_offset 16
ARM GAS  C:\Users\BJRN~1\AppData\Local\Temp\ccUkKC23.s 			page 3


  91 0004 00AF     		add	r7, sp, #0
  92              	.LCFI5:
  93              		.cfi_def_cfa_register 7
  94 0006 021C     		mov	r2, r0
  95 0008 FB1D     		add	r3, r7, #7
  96 000a 1A70     		strb	r2, [r3]
  24:.\onOff.c     ****     if(state != 0 && state != 1)    // State out of range 0 | 1, record error
  97              		.loc 1 24 0
  98 000c FB1D     		add	r3, r7, #7
  99 000e 1B78     		ldrb	r3, [r3]
 100 0010 002B     		cmp	r3, #0
 101 0012 0ED0     		beq	.L5
 102              		.loc 1 24 0 is_stmt 0 discriminator 1
 103 0014 FB1D     		add	r3, r7, #7
 104 0016 1B78     		ldrb	r3, [r3]
 105 0018 012B     		cmp	r3, #1
 106 001a 0AD0     		beq	.L5
  25:.\onOff.c     ****     {
  26:.\onOff.c     ****         buffer_saveData(bufferPtr_, "E023", 4);
 107              		.loc 1 26 0 is_stmt 1
 108 001c 0B4B     		ldr	r3, .L7
 109 001e 1A68     		ldr	r2, [r3]
 110 0020 0B4B     		ldr	r3, .L7+4
 111 0022 101C     		mov	r0, r2
 112 0024 191C     		mov	r1, r3
 113 0026 0422     		mov	r2, #4
 114 0028 FFF7FEFF 		bl	buffer_saveData
  27:.\onOff.c     ****         return -23;
 115              		.loc 1 27 0
 116 002c 1723     		mov	r3, #23
 117 002e 5B42     		neg	r3, r3
 118 0030 08E0     		b	.L6
 119              	.L5:
  28:.\onOff.c     ****     }
  29:.\onOff.c     ****     
  30:.\onOff.c     ****     parameters_setActive(parametersPtr_, state);    // Save state to parameters
 120              		.loc 1 30 0
 121 0032 084B     		ldr	r3, .L7+8
 122 0034 1A68     		ldr	r2, [r3]
 123 0036 FB1D     		add	r3, r7, #7
 124 0038 1B78     		ldrb	r3, [r3]
 125 003a 101C     		mov	r0, r2
 126 003c 191C     		mov	r1, r3
 127 003e FFF7FEFF 		bl	parameters_setActive
  31:.\onOff.c     ****     return 0;
 128              		.loc 1 31 0
 129 0042 0023     		mov	r3, #0
 130              	.L6:
  32:.\onOff.c     **** }...
 131              		.loc 1 32 0
 132 0044 181C     		mov	r0, r3
 133 0046 BD46     		mov	sp, r7
 134 0048 02B0     		add	sp, sp, #8
 135              		@ sp needed for prologue
 136 004a 80BD     		pop	{r7, pc}
 137              	.L8:
 138              		.align	2
ARM GAS  C:\Users\BJRN~1\AppData\Local\Temp\ccUkKC23.s 			page 4


 139              	.L7:
 140 004c 04000000 		.word	bufferPtr_
 141 0050 00000000 		.word	.LC3
 142 0054 00000000 		.word	parametersPtr_
 143              		.cfi_endproc
 144              	.LFE1:
 145              		.size	onOff_turnOnOff, .-onOff_turnOnOff
 146              		.text
 147              	.Letext0:
 148              		.file 2 ".\\parameters.h"
 149              		.file 3 ".\\buffer.h"