ARM GAS  C:\Users\BJRN~1\AppData\Local\Temp\ccdNkUy5.s 			page 1


   1              		.cpu cortex-m0
   2              		.fpu softvfp
   3              		.eabi_attribute 20, 1
   4              		.eabi_attribute 21, 1
   5              		.eabi_attribute 23, 3
   6              		.eabi_attribute 24, 1
   7              		.eabi_attribute 25, 1
   8              		.eabi_attribute 26, 1
   9              		.eabi_attribute 30, 6
  10              		.eabi_attribute 34, 0
  11              		.eabi_attribute 18, 4
  12              		.code	16
  13              		.file	"parameters.c"
  14              		.text
  15              	.Ltext0:
  16              		.cfi_sections	.debug_frame
  17              		.section	.text.parameters_init,"ax",%progbits
  18              		.align	2
  19              		.global	parameters_init
  20              		.code	16
  21              		.thumb_func
  22              		.type	parameters_init, %function
  23              	parameters_init:
  24              	.LFB0:
  25              		.file 1 ".\\parameters.c"
   1:.\parameters.c **** /*
   2:.\parameters.c **** * File: parameters.c
   3:.\parameters.c **** * Description: Implementation of EasyWater8000 class parameters
   4:.\parameters.c **** * Project: PRJ3
   5:.\parameters.c **** * 
   6:.\parameters.c **** * Author: Jesper Christensen
   7:.\parameters.c **** */
   8:.\parameters.c **** 
   9:.\parameters.c **** #include "parameters.h"
  10:.\parameters.c **** 
  11:.\parameters.c **** 
  12:.\parameters.c **** extern void parameters_init(parameters * const this)
  13:.\parameters.c **** {
  26              		.loc 1 13 0
  27              		.cfi_startproc
  28 0000 80B5     		push	{r7, lr}
  29              	.LCFI0:
  30              		.cfi_def_cfa_offset 8
  31              		.cfi_offset 7, -8
  32              		.cfi_offset 14, -4
  33 0002 82B0     		sub	sp, sp, #8
  34              	.LCFI1:
  35              		.cfi_def_cfa_offset 16
  36 0004 00AF     		add	r7, sp, #0
  37              	.LCFI2:
  38              		.cfi_def_cfa_register 7
  39 0006 7860     		str	r0, [r7, #4]
  14:.\parameters.c **** 	this->active_ = 1;
  40              		.loc 1 14 0
  41 0008 7B68     		ldr	r3, [r7, #4]
  42 000a 0122     		mov	r2, #1
  43 000c 1A72     		strb	r2, [r3, #8]
ARM GAS  C:\Users\BJRN~1\AppData\Local\Temp\ccdNkUy5.s 			page 2


  15:.\parameters.c **** 	this->humidity_ = 10;
  44              		.loc 1 15 0
  45 000e 7B68     		ldr	r3, [r7, #4]
  46 0010 034A     		ldr	r2, .L2
  47 0012 5A60     		str	r2, [r3, #4]
  16:.\parameters.c **** 	this->temperature_ = 30;
  48              		.loc 1 16 0
  49 0014 7B68     		ldr	r3, [r7, #4]
  50 0016 034A     		ldr	r2, .L2+4
  51 0018 1A60     		str	r2, [r3]
  17:.\parameters.c **** }
  52              		.loc 1 17 0
  53 001a BD46     		mov	sp, r7
  54 001c 02B0     		add	sp, sp, #8
  55              		@ sp needed for prologue
  56 001e 80BD     		pop	{r7, pc}
  57              	.L3:
  58              		.align	2
  59              	.L2:
  60 0020 00002041 		.word	1092616192
  61 0024 0000F041 		.word	1106247680
  62              		.cfi_endproc
  63              	.LFE0:
  64              		.size	parameters_init, .-parameters_init
  65              		.section	.text.parameters_exit,"ax",%progbits
  66              		.align	2
  67              		.global	parameters_exit
  68              		.code	16
  69              		.thumb_func
  70              		.type	parameters_exit, %function
  71              	parameters_exit:
  72              	.LFB1:
  18:.\parameters.c **** 
  19:.\parameters.c **** extern void parameters_exit(parameters * const this)
  20:.\parameters.c **** {
  73              		.loc 1 20 0
  74              		.cfi_startproc
  75 0000 80B5     		push	{r7, lr}
  76              	.LCFI3:
  77              		.cfi_def_cfa_offset 8
  78              		.cfi_offset 7, -8
  79              		.cfi_offset 14, -4
  80 0002 82B0     		sub	sp, sp, #8
  81              	.LCFI4:
  82              		.cfi_def_cfa_offset 16
  83 0004 00AF     		add	r7, sp, #0
  84              	.LCFI5:
  85              		.cfi_def_cfa_register 7
  86 0006 7860     		str	r0, [r7, #4]
  21:.\parameters.c **** 
  22:.\parameters.c **** }
  87              		.loc 1 22 0
  88 0008 BD46     		mov	sp, r7
  89 000a 02B0     		add	sp, sp, #8
  90              		@ sp needed for prologue
  91 000c 80BD     		pop	{r7, pc}
  92              		.cfi_endproc
ARM GAS  C:\Users\BJRN~1\AppData\Local\Temp\ccdNkUy5.s 			page 3


  93              	.LFE1:
  94              		.size	parameters_exit, .-parameters_exit
  95 000e C046     		.section	.text.parameters_setTemp,"ax",%progbits
  96              		.align	2
  97              		.global	parameters_setTemp
  98              		.code	16
  99              		.thumb_func
 100              		.type	parameters_setTemp, %function
 101              	parameters_setTemp:
 102              	.LFB2:
  23:.\parameters.c **** 
  24:.\parameters.c **** int parameters_setTemp(parameters * const this, const float temp)
  25:.\parameters.c **** {
 103              		.loc 1 25 0
 104              		.cfi_startproc
 105 0000 80B5     		push	{r7, lr}
 106              	.LCFI6:
 107              		.cfi_def_cfa_offset 8
 108              		.cfi_offset 7, -8
 109              		.cfi_offset 14, -4
 110 0002 82B0     		sub	sp, sp, #8
 111              	.LCFI7:
 112              		.cfi_def_cfa_offset 16
 113 0004 00AF     		add	r7, sp, #0
 114              	.LCFI8:
 115              		.cfi_def_cfa_register 7
 116 0006 7860     		str	r0, [r7, #4]
 117 0008 3960     		str	r1, [r7]
  26:.\parameters.c **** 	this->temperature_ = temp;
 118              		.loc 1 26 0
 119 000a 7B68     		ldr	r3, [r7, #4]
 120 000c 3A68     		ldr	r2, [r7]
 121 000e 1A60     		str	r2, [r3]
  27:.\parameters.c **** 
  28:.\parameters.c **** 	return 0;
 122              		.loc 1 28 0
 123 0010 0023     		mov	r3, #0
  29:.\parameters.c **** }
 124              		.loc 1 29 0
 125 0012 181C     		mov	r0, r3
 126 0014 BD46     		mov	sp, r7
 127 0016 02B0     		add	sp, sp, #8
 128              		@ sp needed for prologue
 129 0018 80BD     		pop	{r7, pc}
 130              		.cfi_endproc
 131              	.LFE2:
 132              		.size	parameters_setTemp, .-parameters_setTemp
 133 001a C046     		.section	.text.parameters_getTemp,"ax",%progbits
 134              		.align	2
 135              		.global	parameters_getTemp
 136              		.code	16
 137              		.thumb_func
 138              		.type	parameters_getTemp, %function
 139              	parameters_getTemp:
 140              	.LFB3:
  30:.\parameters.c **** 
  31:.\parameters.c **** int parameters_getTemp(parameters * const this, float * temp)
ARM GAS  C:\Users\BJRN~1\AppData\Local\Temp\ccdNkUy5.s 			page 4


  32:.\parameters.c **** {
 141              		.loc 1 32 0
 142              		.cfi_startproc
 143 0000 80B5     		push	{r7, lr}
 144              	.LCFI9:
 145              		.cfi_def_cfa_offset 8
 146              		.cfi_offset 7, -8
 147              		.cfi_offset 14, -4
 148 0002 82B0     		sub	sp, sp, #8
 149              	.LCFI10:
 150              		.cfi_def_cfa_offset 16
 151 0004 00AF     		add	r7, sp, #0
 152              	.LCFI11:
 153              		.cfi_def_cfa_register 7
 154 0006 7860     		str	r0, [r7, #4]
 155 0008 3960     		str	r1, [r7]
  33:.\parameters.c **** 	*temp = this->temperature_;
 156              		.loc 1 33 0
 157 000a 7B68     		ldr	r3, [r7, #4]
 158 000c 1A68     		ldr	r2, [r3]
 159 000e 3B68     		ldr	r3, [r7]
 160 0010 1A60     		str	r2, [r3]
  34:.\parameters.c **** 
  35:.\parameters.c **** 	return 0;
 161              		.loc 1 35 0
 162 0012 0023     		mov	r3, #0
  36:.\parameters.c **** }
 163              		.loc 1 36 0
 164 0014 181C     		mov	r0, r3
 165 0016 BD46     		mov	sp, r7
 166 0018 02B0     		add	sp, sp, #8
 167              		@ sp needed for prologue
 168 001a 80BD     		pop	{r7, pc}
 169              		.cfi_endproc
 170              	.LFE3:
 171              		.size	parameters_getTemp, .-parameters_getTemp
 172              		.section	.text.parameters_setHumi,"ax",%progbits
 173              		.align	2
 174              		.global	parameters_setHumi
 175              		.code	16
 176              		.thumb_func
 177              		.type	parameters_setHumi, %function
 178              	parameters_setHumi:
 179              	.LFB4:
  37:.\parameters.c **** 
  38:.\parameters.c **** int parameters_setHumi(parameters * const this, const float humi)
  39:.\parameters.c **** {
 180              		.loc 1 39 0
 181              		.cfi_startproc
 182 0000 80B5     		push	{r7, lr}
 183              	.LCFI12:
 184              		.cfi_def_cfa_offset 8
 185              		.cfi_offset 7, -8
 186              		.cfi_offset 14, -4
 187 0002 82B0     		sub	sp, sp, #8
 188              	.LCFI13:
 189              		.cfi_def_cfa_offset 16
ARM GAS  C:\Users\BJRN~1\AppData\Local\Temp\ccdNkUy5.s 			page 5


 190 0004 00AF     		add	r7, sp, #0
 191              	.LCFI14:
 192              		.cfi_def_cfa_register 7
 193 0006 7860     		str	r0, [r7, #4]
 194 0008 3960     		str	r1, [r7]
  40:.\parameters.c **** 	this->humidity_ = humi;
 195              		.loc 1 40 0
 196 000a 7B68     		ldr	r3, [r7, #4]
 197 000c 3A68     		ldr	r2, [r7]
 198 000e 5A60     		str	r2, [r3, #4]
  41:.\parameters.c **** 
  42:.\parameters.c **** 	return 0;
 199              		.loc 1 42 0
 200 0010 0023     		mov	r3, #0
  43:.\parameters.c **** }
 201              		.loc 1 43 0
 202 0012 181C     		mov	r0, r3
 203 0014 BD46     		mov	sp, r7
 204 0016 02B0     		add	sp, sp, #8
 205              		@ sp needed for prologue
 206 0018 80BD     		pop	{r7, pc}
 207              		.cfi_endproc
 208              	.LFE4:
 209              		.size	parameters_setHumi, .-parameters_setHumi
 210 001a C046     		.section	.text.parameters_getHumi,"ax",%progbits
 211              		.align	2
 212              		.global	parameters_getHumi
 213              		.code	16
 214              		.thumb_func
 215              		.type	parameters_getHumi, %function
 216              	parameters_getHumi:
 217              	.LFB5:
  44:.\parameters.c **** 
  45:.\parameters.c **** int parameters_getHumi(parameters * const this, float * humi)
  46:.\parameters.c **** {
 218              		.loc 1 46 0
 219              		.cfi_startproc
 220 0000 80B5     		push	{r7, lr}
 221              	.LCFI15:
 222              		.cfi_def_cfa_offset 8
 223              		.cfi_offset 7, -8
 224              		.cfi_offset 14, -4
 225 0002 82B0     		sub	sp, sp, #8
 226              	.LCFI16:
 227              		.cfi_def_cfa_offset 16
 228 0004 00AF     		add	r7, sp, #0
 229              	.LCFI17:
 230              		.cfi_def_cfa_register 7
 231 0006 7860     		str	r0, [r7, #4]
 232 0008 3960     		str	r1, [r7]
  47:.\parameters.c **** 	 *humi = this->humidity_;
 233              		.loc 1 47 0
 234 000a 7B68     		ldr	r3, [r7, #4]
 235 000c 5A68     		ldr	r2, [r3, #4]
 236 000e 3B68     		ldr	r3, [r7]
 237 0010 1A60     		str	r2, [r3]
  48:.\parameters.c **** 
ARM GAS  C:\Users\BJRN~1\AppData\Local\Temp\ccdNkUy5.s 			page 6


  49:.\parameters.c **** 	return 0;
 238              		.loc 1 49 0
 239 0012 0023     		mov	r3, #0
  50:.\parameters.c **** 
  51:.\parameters.c **** }
 240              		.loc 1 51 0
 241 0014 181C     		mov	r0, r3
 242 0016 BD46     		mov	sp, r7
 243 0018 02B0     		add	sp, sp, #8
 244              		@ sp needed for prologue
 245 001a 80BD     		pop	{r7, pc}
 246              		.cfi_endproc
 247              	.LFE5:
 248              		.size	parameters_getHumi, .-parameters_getHumi
 249              		.section	.text.parameters_setActive,"ax",%progbits
 250              		.align	2
 251              		.global	parameters_setActive
 252              		.code	16
 253              		.thumb_func
 254              		.type	parameters_setActive, %function
 255              	parameters_setActive:
 256              	.LFB6:
  52:.\parameters.c **** 
  53:.\parameters.c **** int parameters_setActive(parameters * const this, const unsigned char a)
  54:.\parameters.c **** {
 257              		.loc 1 54 0
 258              		.cfi_startproc
 259 0000 80B5     		push	{r7, lr}
 260              	.LCFI18:
 261              		.cfi_def_cfa_offset 8
 262              		.cfi_offset 7, -8
 263              		.cfi_offset 14, -4
 264 0002 82B0     		sub	sp, sp, #8
 265              	.LCFI19:
 266              		.cfi_def_cfa_offset 16
 267 0004 00AF     		add	r7, sp, #0
 268              	.LCFI20:
 269              		.cfi_def_cfa_register 7
 270 0006 7860     		str	r0, [r7, #4]
 271 0008 0A1C     		mov	r2, r1
 272 000a FB1C     		add	r3, r7, #3
 273 000c 1A70     		strb	r2, [r3]
  55:.\parameters.c **** 	this->active_ = a;
 274              		.loc 1 55 0
 275 000e 7B68     		ldr	r3, [r7, #4]
 276 0010 FA1C     		add	r2, r7, #3
 277 0012 1278     		ldrb	r2, [r2]
 278 0014 1A72     		strb	r2, [r3, #8]
  56:.\parameters.c **** 
  57:.\parameters.c **** 	return 0;
 279              		.loc 1 57 0
 280 0016 0023     		mov	r3, #0
  58:.\parameters.c **** }
 281              		.loc 1 58 0
 282 0018 181C     		mov	r0, r3
 283 001a BD46     		mov	sp, r7
 284 001c 02B0     		add	sp, sp, #8
ARM GAS  C:\Users\BJRN~1\AppData\Local\Temp\ccdNkUy5.s 			page 7


 285              		@ sp needed for prologue
 286 001e 80BD     		pop	{r7, pc}
 287              		.cfi_endproc
 288              	.LFE6:
 289              		.size	parameters_setActive, .-parameters_setActive
 290              		.section	.text.parameters_getActive,"ax",%progbits
 291              		.align	2
 292              		.global	parameters_getActive
 293              		.code	16
 294              		.thumb_func
 295              		.type	parameters_getActive, %function
 296              	parameters_getActive:
 297              	.LFB7:
  59:.\parameters.c **** 
  60:.\parameters.c **** int parameters_getActive(parameters * const this, unsigned char * a)
  61:.\parameters.c **** {
 298              		.loc 1 61 0
 299              		.cfi_startproc
 300 0000 80B5     		push	{r7, lr}
 301              	.LCFI21:
 302              		.cfi_def_cfa_offset 8
 303              		.cfi_offset 7, -8
 304              		.cfi_offset 14, -4
 305 0002 82B0     		sub	sp, sp, #8
 306              	.LCFI22:
 307              		.cfi_def_cfa_offset 16
 308 0004 00AF     		add	r7, sp, #0
 309              	.LCFI23:
 310              		.cfi_def_cfa_register 7
 311 0006 7860     		str	r0, [r7, #4]
 312 0008 3960     		str	r1, [r7]
  62:.\parameters.c **** 	*a = this->active_;
 313              		.loc 1 62 0
 314 000a 7B68     		ldr	r3, [r7, #4]
 315 000c 1A7A     		ldrb	r2, [r3, #8]
 316 000e 3B68     		ldr	r3, [r7]
 317 0010 1A70     		strb	r2, [r3]
  63:.\parameters.c **** 
  64:.\parameters.c **** 	return 0;
 318              		.loc 1 64 0
 319 0012 0023     		mov	r3, #0
  65:.\parameters.c **** }...
 320              		.loc 1 65 0
 321 0014 181C     		mov	r0, r3
 322 0016 BD46     		mov	sp, r7
 323 0018 02B0     		add	sp, sp, #8
 324              		@ sp needed for prologue
 325 001a 80BD     		pop	{r7, pc}
 326              		.cfi_endproc
 327              	.LFE7:
 328              		.size	parameters_getActive, .-parameters_getActive
 329              		.text
 330              	.Letext0:
 331              		.file 2 ".\\parameters.h"