ARM GAS  C:\Users\BJRN~1\AppData\Local\Temp\cclQEqgC.s 			page 1


   1              		.cpu cortex-m0
   2              		.fpu softvfp
   3              		.eabi_attribute 20, 1
   4              		.eabi_attribute 21, 1
   5              		.eabi_attribute 23, 3
   6              		.eabi_attribute 24, 1
   7              		.eabi_attribute 25, 1
   8              		.eabi_attribute 26, 1
   9              		.eabi_attribute 30, 6
  10              		.eabi_attribute 34, 0
  11              		.eabi_attribute 18, 4
  12              		.code	16
  13              		.file	"spi_handler.c"
  14              		.text
  15              	.Ltext0:
  16              		.cfi_sections	.debug_frame
  17              		.comm	spiBuffer,64,4
  18              		.comm	spiTxBuffer,64,4
  19              		.global	unitNo
  20              		.data
  21              		.type	unitNo, %object
  22              		.size	unitNo, 1
  23              	unitNo:
  24 0000 31       		.byte	49
  25              		.global	spiCounter
  26              		.bss
  27              		.align	2
  28              		.type	spiCounter, %object
  29              		.size	spiCounter, 4
  30              	spiCounter:
  31 0000 00000000 		.space	4
  32              		.global	spiReadCounter
  33              		.align	2
  34              		.type	spiReadCounter, %object
  35              		.size	spiReadCounter, 4
  36              	spiReadCounter:
  37 0004 00000000 		.space	4
  38              		.comm	len,4,4
  39              		.comm	tempBuffer,6,4
  40              		.comm	humiBuffer,4,4
  41              		.section	.text.spi_init,"ax",%progbits
  42              		.align	2
  43              		.global	spi_init
  44              		.code	16
  45              		.thumb_func
  46              		.type	spi_init, %function
  47              	spi_init:
  48              	.LFB33:
  49              		.file 1 ".\\spi_handler.c"
   1:.\spi_handler.c **** /*
   2:.\spi_handler.c **** * File: spi_handler.c
   3:.\spi_handler.c **** * Description: Implementation for EasyWater8000 spi handler
   4:.\spi_handler.c **** * Project: PRJ3
   5:.\spi_handler.c **** * 
   6:.\spi_handler.c **** * Author: Mick Kirkegaard & Poul Overgaard
   7:.\spi_handler.c **** */
   8:.\spi_handler.c **** 
ARM GAS  C:\Users\BJRN~1\AppData\Local\Temp\cclQEqgC.s 			page 2


   9:.\spi_handler.c **** #include "SPI_handler.h"
  10:.\spi_handler.c **** 
  11:.\spi_handler.c **** char spiBuffer[64];
  12:.\spi_handler.c **** char spiTxBuffer[64]; 
  13:.\spi_handler.c **** char unitNo = '1';
  14:.\spi_handler.c **** int spiCounter = 0;
  15:.\spi_handler.c **** int spiReadCounter = 0;
  16:.\spi_handler.c **** unsigned int len;// = sizeof(testGetLog);
  17:.\spi_handler.c **** char tempBuffer[6]; // T T T . T \0
  18:.\spi_handler.c **** char humiBuffer[4]; // F F F \0
  19:.\spi_handler.c **** 
  20:.\spi_handler.c **** void spi_init()
  21:.\spi_handler.c **** {
  50              		.loc 1 21 0
  51              		.cfi_startproc
  52 0000 80B5     		push	{r7, lr}
  53              	.LCFI0:
  54              		.cfi_def_cfa_offset 8
  55              		.cfi_offset 7, -8
  56              		.cfi_offset 14, -4
  57 0002 00AF     		add	r7, sp, #0
  58              	.LCFI1:
  59              		.cfi_def_cfa_register 7
  22:.\spi_handler.c ****     SPIS_1_Start();
  60              		.loc 1 22 0
  61 0004 FFF7FEFF 		bl	SPIS_1_Start
  23:.\spi_handler.c **** 	SPIS_1_SetCustomInterruptHandler(isr_spi_rx);
  62              		.loc 1 23 0
  63 0008 034B     		ldr	r3, .L2
  64 000a 181C     		mov	r0, r3
  65 000c FFF7FEFF 		bl	SPIS_1_SetCustomInterruptHandler
  24:.\spi_handler.c **** 	SPIS_1_SpiUartClearTxBuffer();
  66              		.loc 1 24 0
  67 0010 FFF7FEFF 		bl	SPIS_1_SpiUartClearTxBuffer
  25:.\spi_handler.c **** }
  68              		.loc 1 25 0
  69 0014 BD46     		mov	sp, r7
  70              		@ sp needed for prologue
  71 0016 80BD     		pop	{r7, pc}
  72              	.L3:
  73              		.align	2
  74              	.L2:
  75 0018 00000000 		.word	isr_spi_rx
  76              		.cfi_endproc
  77              	.LFE33:
  78              		.size	spi_init, .-spi_init
  79              		.global	__aeabi_d2f
  80              		.section	.text.isr_spi_rx,"ax",%progbits
  81              		.align	2
  82              		.global	isr_spi_rx
  83              		.code	16
  84              		.thumb_func
  85              		.type	isr_spi_rx, %function
  86              	isr_spi_rx:
  87              	.LFB34:
  26:.\spi_handler.c **** 
  27:.\spi_handler.c **** /*
ARM GAS  C:\Users\BJRN~1\AppData\Local\Temp\cclQEqgC.s 			page 3


  28:.\spi_handler.c ****  * SPI RX ISR
  29:.\spi_handler.c ****  * Dekoder SPI RX data og udfører kommando iht. protokol
  30:.\spi_handler.c ****  */
  31:.\spi_handler.c **** CY_ISR(isr_spi_rx) {
  88              		.loc 1 31 0
  89              		.cfi_startproc
  90 0000 90B5     		push	{r4, r7, lr}
  91              	.LCFI2:
  92              		.cfi_def_cfa_offset 12
  93              		.cfi_offset 4, -12
  94              		.cfi_offset 7, -8
  95              		.cfi_offset 14, -4
  96 0002 87B0     		sub	sp, sp, #28
  97              	.LCFI3:
  98              		.cfi_def_cfa_offset 40
  99 0004 00AF     		add	r7, sp, #0
 100              	.LCFI4:
 101              		.cfi_def_cfa_register 7
  32:.\spi_handler.c **** 
  33:.\spi_handler.c **** 	char cmd = '0';
 102              		.loc 1 33 0
 103 0006 3B1C     		mov	r3, r7
 104 0008 0F33     		add	r3, r3, #15
 105 000a 3022     		mov	r2, #48
 106 000c 1A70     		strb	r2, [r3]
  34:.\spi_handler.c ****     int i;
  35:.\spi_handler.c ****     unsigned int c;
  36:.\spi_handler.c ****     
  37:.\spi_handler.c **** 	//TP_1_Write(1); // Til måling af ISR gennemløbstid
  38:.\spi_handler.c ****  
  39:.\spi_handler.c **** 	cmd = SPIS_1_SpiUartReadRxData(); 
 107              		.loc 1 39 0
 108 000e FFF7FEFF 		bl	SPIS_1_SpiUartReadRxData
 109 0012 021C     		mov	r2, r0
 110 0014 3B1C     		mov	r3, r7
 111 0016 0F33     		add	r3, r3, #15
 112 0018 1A70     		strb	r2, [r3]
  40:.\spi_handler.c ****     
  41:.\spi_handler.c ****     spiBuffer[spiCounter] = cmd;
 113              		.loc 1 41 0
 114 001a 974B     		ldr	r3, .L22
 115 001c 1B68     		ldr	r3, [r3]
 116 001e 974A     		ldr	r2, .L22+4
 117 0020 391C     		mov	r1, r7
 118 0022 0F31     		add	r1, r1, #15
 119 0024 0978     		ldrb	r1, [r1]
 120 0026 D154     		strb	r1, [r2, r3]
  42:.\spi_handler.c ****     spiCounter++;
 121              		.loc 1 42 0
 122 0028 934B     		ldr	r3, .L22
 123 002a 1B68     		ldr	r3, [r3]
 124 002c 5A1C     		add	r2, r3, #1
 125 002e 924B     		ldr	r3, .L22
 126 0030 1A60     		str	r2, [r3]
  43:.\spi_handler.c ****     
  44:.\spi_handler.c ****     /*
  45:.\spi_handler.c **** 	 * Her switches på cmd iht. dataprotokollen
ARM GAS  C:\Users\BJRN~1\AppData\Local\Temp\cclQEqgC.s 			page 4


  46:.\spi_handler.c ****      *
  47:.\spi_handler.c ****      *  ’A’   0x41     Aktiver Enhed
  48:.\spi_handler.c ****      *  ’D’   0x44     Deaktiver Enhed
  49:.\spi_handler.c ****      *  ’P’   0x50     Parametre sendes til Enhed
  50:.\spi_handler.c ****      *  ’V’   0x56     Verificer Enhed i systemet
  51:.\spi_handler.c ****      *  ’L’   0x4c     Forespørg logdata fra Enhed
  52:.\spi_handler.c ****      *
  53:.\spi_handler.c ****      *  'C'   0x43     Clear/write function char
  54:.\spi_handler.c ****      *  'R'   0x52     Read function char
  55:.\spi_handler.c **** 	 */
  56:.\spi_handler.c ****                      uint8 blue, red, green;   
  57:.\spi_handler.c ****     if ((cmd == 'R') || (cmd == 'C') || (cmd == 'L') || (cmd == 'V')){
 127              		.loc 1 57 0
 128 0032 3B1C     		mov	r3, r7
 129 0034 0F33     		add	r3, r3, #15
 130 0036 1B78     		ldrb	r3, [r3]
 131 0038 522B     		cmp	r3, #82
 132 003a 0FD0     		beq	.L5
 133              		.loc 1 57 0 is_stmt 0 discriminator 1
 134 003c 3B1C     		mov	r3, r7
 135 003e 0F33     		add	r3, r3, #15
 136 0040 1B78     		ldrb	r3, [r3]
 137 0042 432B     		cmp	r3, #67
 138 0044 0AD0     		beq	.L5
 139 0046 3B1C     		mov	r3, r7
 140 0048 0F33     		add	r3, r3, #15
 141 004a 1B78     		ldrb	r3, [r3]
 142 004c 4C2B     		cmp	r3, #76
 143 004e 05D0     		beq	.L5
 144 0050 3B1C     		mov	r3, r7
 145 0052 0F33     		add	r3, r3, #15
 146 0054 1B78     		ldrb	r3, [r3]
 147 0056 562B     		cmp	r3, #86
 148 0058 00D0     		beq	.LCB86
 149 005a 06E1     		b	.L6	@long jump
 150              	.LCB86:
 151              	.L5:
  58:.\spi_handler.c ****     	switch (spiBuffer[0]) {
 152              		.loc 1 58 0 is_stmt 1
 153 005c 874B     		ldr	r3, .L22+4
 154 005e 1B78     		ldrb	r3, [r3]
 155 0060 413B     		sub	r3, r3, #65
 156 0062 152B     		cmp	r3, #21
 157 0064 00D9     		bls	.LCB92
 158 0066 00E1     		b	.L6	@long jump
 159              	.LCB92:
 160 0068 9A00     		lsl	r2, r3, #2
 161 006a 854B     		ldr	r3, .L22+8
 162 006c D318     		add	r3, r2, r3
 163 006e 1B68     		ldr	r3, [r3]
 164 0070 9F46     		mov	pc, r3
 165              		.section	.rodata
 166              		.align	2
 167              	.L15:
 168 0000 72000000 		.word	.L8
 169 0004 6A020000 		.word	.L6
 170 0008 60020000 		.word	.L9
ARM GAS  C:\Users\BJRN~1\AppData\Local\Temp\cclQEqgC.s 			page 5


 171 000c 96000000 		.word	.L10
 172 0010 6A020000 		.word	.L6
 173 0014 6A020000 		.word	.L6
 174 0018 6A020000 		.word	.L6
 175 001c 6A020000 		.word	.L6
 176 0020 6A020000 		.word	.L6
 177 0024 6A020000 		.word	.L6
 178 0028 6A020000 		.word	.L6
 179 002c 92010000 		.word	.L11
 180 0030 6A020000 		.word	.L6
 181 0034 6A020000 		.word	.L6
 182 0038 6A020000 		.word	.L6
 183 003c BA000000 		.word	.L12
 184 0040 6A020000 		.word	.L6
 185 0044 3C020000 		.word	.L13
 186 0048 6A020000 		.word	.L6
 187 004c 6A020000 		.word	.L6
 188 0050 6A020000 		.word	.L6
 189 0054 66010000 		.word	.L14
 190              		.section	.text.isr_spi_rx
 191              	.L8:
 192              	.LBB2:
  59:.\spi_handler.c ****             case 'A':
  60:.\spi_handler.c ****                     RED_LED_Write(1);
 193              		.loc 1 60 0
 194 0072 0120     		mov	r0, #1
 195 0074 FFF7FEFF 		bl	RED_LED_Write
  61:.\spi_handler.c ****                     GREEN_LED_Write(0);
 196              		.loc 1 61 0
 197 0078 0020     		mov	r0, #0
 198 007a FFF7FEFF 		bl	GREEN_LED_Write
  62:.\spi_handler.c ****                     BLUE_LED_Write(1);
 199              		.loc 1 62 0
 200 007e 0120     		mov	r0, #1
 201 0080 FFF7FEFF 		bl	BLUE_LED_Write
  63:.\spi_handler.c ****                     
  64:.\spi_handler.c ****                     /* Clear Buffer and Counter */
  65:.\spi_handler.c ****                     SPIS_1_SpiUartClearTxBuffer();
 202              		.loc 1 65 0
 203 0084 FFF7FEFF 		bl	SPIS_1_SpiUartClearTxBuffer
  66:.\spi_handler.c ****                     spiCounter = 0;
 204              		.loc 1 66 0
 205 0088 7B4B     		ldr	r3, .L22
 206 008a 0022     		mov	r2, #0
 207 008c 1A60     		str	r2, [r3]
  67:.\spi_handler.c ****                     
  68:.\spi_handler.c ****                     /*Call method*/
  69:.\spi_handler.c ****                     onOff_turnOnOff(1);
 208              		.loc 1 69 0
 209 008e 0120     		mov	r0, #1
 210 0090 FFF7FEFF 		bl	onOff_turnOnOff
 211 0094 E9E0     		b	.L6
 212              	.L10:
  70:.\spi_handler.c ****                     
  71:.\spi_handler.c ****                 break;
  72:.\spi_handler.c ****             case 'D':
  73:.\spi_handler.c ****                     GREEN_LED_Write(1);
ARM GAS  C:\Users\BJRN~1\AppData\Local\Temp\cclQEqgC.s 			page 6


 213              		.loc 1 73 0
 214 0096 0120     		mov	r0, #1
 215 0098 FFF7FEFF 		bl	GREEN_LED_Write
  74:.\spi_handler.c ****                     RED_LED_Write(0);
 216              		.loc 1 74 0
 217 009c 0020     		mov	r0, #0
 218 009e FFF7FEFF 		bl	RED_LED_Write
  75:.\spi_handler.c ****                     BLUE_LED_Write(1);
 219              		.loc 1 75 0
 220 00a2 0120     		mov	r0, #1
 221 00a4 FFF7FEFF 		bl	BLUE_LED_Write
  76:.\spi_handler.c ****                     
  77:.\spi_handler.c ****                     /* Clear Buffer and Counter */
  78:.\spi_handler.c ****                     SPIS_1_SpiUartClearTxBuffer();
 222              		.loc 1 78 0
 223 00a8 FFF7FEFF 		bl	SPIS_1_SpiUartClearTxBuffer
  79:.\spi_handler.c ****                     spiCounter = 0;
 224              		.loc 1 79 0
 225 00ac 724B     		ldr	r3, .L22
 226 00ae 0022     		mov	r2, #0
 227 00b0 1A60     		str	r2, [r3]
  80:.\spi_handler.c ****                     
  81:.\spi_handler.c ****                     /*Call method*/
  82:.\spi_handler.c ****                     onOff_turnOnOff(0);
 228              		.loc 1 82 0
 229 00b2 0020     		mov	r0, #0
 230 00b4 FFF7FEFF 		bl	onOff_turnOnOff
 231 00b8 D7E0     		b	.L6
 232              	.L12:
  83:.\spi_handler.c ****                     
  84:.\spi_handler.c ****                 break;
  85:.\spi_handler.c ****             case 'P':
  86:.\spi_handler.c ****                     /* Disable interrupt */
  87:.\spi_handler.c ****                     CyGlobalIntDisable;
 233              		.loc 1 87 0
 234              	@ 87 ".\spi_handler.c" 1
 235 00ba 72B6     		CPSID   i
 236              	@ 0 "" 2
  88:.\spi_handler.c ****                  
  89:.\spi_handler.c ****                     GREEN_LED_Write(0);
 237              		.loc 1 89 0
 238              		.code	16
 239 00bc 0020     		mov	r0, #0
 240 00be FFF7FEFF 		bl	GREEN_LED_Write
  90:.\spi_handler.c ****                     RED_LED_Write(0);
 241              		.loc 1 90 0
 242 00c2 0020     		mov	r0, #0
 243 00c4 FFF7FEFF 		bl	RED_LED_Write
  91:.\spi_handler.c ****                     BLUE_LED_Write(0);
 244              		.loc 1 91 0
 245 00c8 0020     		mov	r0, #0
 246 00ca FFF7FEFF 		bl	BLUE_LED_Write
  92:.\spi_handler.c ****                     
  93:.\spi_handler.c ****                     
  94:.\spi_handler.c ****                     
  95:.\spi_handler.c ****                     /* Read temp */
  96:.\spi_handler.c ****                     for(i = 0 ; i < 5 ; i++){
ARM GAS  C:\Users\BJRN~1\AppData\Local\Temp\cclQEqgC.s 			page 7


 247              		.loc 1 96 0
 248 00ce 0023     		mov	r3, #0
 249 00d0 7B61     		str	r3, [r7, #20]
 250 00d2 0AE0     		b	.L16
 251              	.L17:
  97:.\spi_handler.c ****                         tempBuffer[i] = spiBuffer[i+1];
 252              		.loc 1 97 0 discriminator 2
 253 00d4 7B69     		ldr	r3, [r7, #20]
 254 00d6 0133     		add	r3, r3, #1
 255 00d8 684A     		ldr	r2, .L22+4
 256 00da D25C     		ldrb	r2, [r2, r3]
 257 00dc 6949     		ldr	r1, .L22+12
 258 00de 7B69     		ldr	r3, [r7, #20]
 259 00e0 CB18     		add	r3, r1, r3
 260 00e2 1A70     		strb	r2, [r3]
  96:.\spi_handler.c ****                     for(i = 0 ; i < 5 ; i++){
 261              		.loc 1 96 0 discriminator 2
 262 00e4 7B69     		ldr	r3, [r7, #20]
 263 00e6 0133     		add	r3, r3, #1
 264 00e8 7B61     		str	r3, [r7, #20]
 265              	.L16:
  96:.\spi_handler.c ****                     for(i = 0 ; i < 5 ; i++){
 266              		.loc 1 96 0 is_stmt 0 discriminator 1
 267 00ea 7B69     		ldr	r3, [r7, #20]
 268 00ec 042B     		cmp	r3, #4
 269 00ee F1DD     		ble	.L17
  98:.\spi_handler.c ****                         //
  99:.\spi_handler.c ****                     }
 100:.\spi_handler.c ****                     for(i = 0 ; i < 3 ; i++){
 270              		.loc 1 100 0 is_stmt 1
 271 00f0 0023     		mov	r3, #0
 272 00f2 7B61     		str	r3, [r7, #20]
 273 00f4 0AE0     		b	.L18
 274              	.L19:
 101:.\spi_handler.c ****                         humiBuffer[i] = spiBuffer[i+6];
 275              		.loc 1 101 0 discriminator 2
 276 00f6 7B69     		ldr	r3, [r7, #20]
 277 00f8 0633     		add	r3, r3, #6
 278 00fa 604A     		ldr	r2, .L22+4
 279 00fc D25C     		ldrb	r2, [r2, r3]
 280 00fe 6249     		ldr	r1, .L22+16
 281 0100 7B69     		ldr	r3, [r7, #20]
 282 0102 CB18     		add	r3, r1, r3
 283 0104 1A70     		strb	r2, [r3]
 100:.\spi_handler.c ****                     for(i = 0 ; i < 3 ; i++){
 284              		.loc 1 100 0 discriminator 2
 285 0106 7B69     		ldr	r3, [r7, #20]
 286 0108 0133     		add	r3, r3, #1
 287 010a 7B61     		str	r3, [r7, #20]
 288              	.L18:
 100:.\spi_handler.c ****                     for(i = 0 ; i < 3 ; i++){
 289              		.loc 1 100 0 is_stmt 0 discriminator 1
 290 010c 7B69     		ldr	r3, [r7, #20]
 291 010e 022B     		cmp	r3, #2
 292 0110 F1DD     		ble	.L19
 102:.\spi_handler.c ****                     }
 103:.\spi_handler.c ****                     
ARM GAS  C:\Users\BJRN~1\AppData\Local\Temp\cclQEqgC.s 			page 8


 104:.\spi_handler.c ****                     float tempValue = 0;
 293              		.loc 1 104 0 is_stmt 1
 294 0112 0023     		mov	r3, #0
 295 0114 BB60     		str	r3, [r7, #8]
 105:.\spi_handler.c ****                     float humiValue = 0;
 296              		.loc 1 105 0
 297 0116 0023     		mov	r3, #0
 298 0118 7B60     		str	r3, [r7, #4]
 106:.\spi_handler.c ****                     
 107:.\spi_handler.c ****                     /* Parse charArray's to float's */
 108:.\spi_handler.c ****                     tempValue = (float)atof(tempBuffer);
 299              		.loc 1 108 0
 300 011a 5A4B     		ldr	r3, .L22+12
 301 011c 181C     		mov	r0, r3
 302 011e FFF7FEFF 		bl	atof
 303 0122 031C     		mov	r3, r0
 304 0124 0C1C     		mov	r4, r1
 305 0126 181C     		mov	r0, r3
 306 0128 211C     		mov	r1, r4
 307 012a FFF7FEFF 		bl	__aeabi_d2f
 308 012e 031C     		add	r3, r0, #0
 309 0130 BB60     		str	r3, [r7, #8]
 109:.\spi_handler.c ****                     humiValue = (float)atof(humiBuffer);
 310              		.loc 1 109 0
 311 0132 554B     		ldr	r3, .L22+16
 312 0134 181C     		mov	r0, r3
 313 0136 FFF7FEFF 		bl	atof
 314 013a 031C     		mov	r3, r0
 315 013c 0C1C     		mov	r4, r1
 316 013e 181C     		mov	r0, r3
 317 0140 211C     		mov	r1, r4
 318 0142 FFF7FEFF 		bl	__aeabi_d2f
 319 0146 031C     		add	r3, r0, #0
 320 0148 7B60     		str	r3, [r7, #4]
 110:.\spi_handler.c ****                     
 111:.\spi_handler.c ****                     /* Call method */
 112:.\spi_handler.c ****                     config_config(&tempValue, &humiValue);
 321              		.loc 1 112 0
 322 014a 3A1C     		mov	r2, r7
 323 014c 0832     		add	r2, r2, #8
 324 014e 3B1D     		add	r3, r7, #4
 325 0150 101C     		mov	r0, r2
 326 0152 191C     		mov	r1, r3
 327 0154 FFF7FEFF 		bl	config_config
 113:.\spi_handler.c ****                     
 114:.\spi_handler.c ****                     /* Clear Buffer and Counter */
 115:.\spi_handler.c ****                     SPIS_1_SpiUartClearTxBuffer();
 328              		.loc 1 115 0
 329 0158 FFF7FEFF 		bl	SPIS_1_SpiUartClearTxBuffer
 116:.\spi_handler.c ****                     spiCounter = 0;
 330              		.loc 1 116 0
 331 015c 464B     		ldr	r3, .L22
 332 015e 0022     		mov	r2, #0
 333 0160 1A60     		str	r2, [r3]
 117:.\spi_handler.c ****                     
 118:.\spi_handler.c ****                     /* Re-enable interrupt */
 119:.\spi_handler.c ****                     CyGlobalIntEnable;
ARM GAS  C:\Users\BJRN~1\AppData\Local\Temp\cclQEqgC.s 			page 9


 334              		.loc 1 119 0
 335              	@ 119 ".\spi_handler.c" 1
 336 0162 62B6     		CPSIE   i
 337              	@ 0 "" 2
 338              		.code	16
 339 0164 81E0     		b	.L6
 340              	.L14:
 120:.\spi_handler.c ****                 break;
 121:.\spi_handler.c ****     		case 'V':
 122:.\spi_handler.c ****                     GREEN_LED_Write(1);
 341              		.loc 1 122 0
 342 0166 0120     		mov	r0, #1
 343 0168 FFF7FEFF 		bl	GREEN_LED_Write
 123:.\spi_handler.c ****                     RED_LED_Write(1);
 344              		.loc 1 123 0
 345 016c 0120     		mov	r0, #1
 346 016e FFF7FEFF 		bl	RED_LED_Write
 124:.\spi_handler.c ****                     BLUE_LED_Write(0);
 347              		.loc 1 124 0
 348 0172 0020     		mov	r0, #0
 349 0174 FFF7FEFF 		bl	BLUE_LED_Write
 125:.\spi_handler.c **** 
 126:.\spi_handler.c ****                     SPIS_1_SpiUartClearTxBuffer();
 350              		.loc 1 126 0
 351 0178 FFF7FEFF 		bl	SPIS_1_SpiUartClearTxBuffer
 127:.\spi_handler.c ****                     SPIS_1_SpiUartWriteTxData(unitNo);
 352              		.loc 1 127 0
 353 017c 434B     		ldr	r3, .L22+20
 354 017e 1B78     		ldrb	r3, [r3]
 355 0180 181C     		mov	r0, r3
 356 0182 FFF7FEFF 		bl	SPIS_1_SpiUartWriteTxData
 128:.\spi_handler.c ****                     spiCounter = 0;
 357              		.loc 1 128 0
 358 0186 3C4B     		ldr	r3, .L22
 359 0188 0022     		mov	r2, #0
 360 018a 1A60     		str	r2, [r3]
 129:.\spi_handler.c ****                     
 130:.\spi_handler.c ****                     /* Call method */
 131:.\spi_handler.c ****                     addRemove_verify();
 361              		.loc 1 131 0
 362 018c FFF7FEFF 		bl	addRemove_verify
 363 0190 6BE0     		b	.L6
 364              	.L11:
 132:.\spi_handler.c ****                     
 133:.\spi_handler.c ****     			break;
 134:.\spi_handler.c ****             case 'L':
 135:.\spi_handler.c **** 
 136:.\spi_handler.c ****                     blue = BLUE_LED_Read();
 365              		.loc 1 136 0
 366 0192 3C1C     		mov	r4, r7
 367 0194 0E34     		add	r4, r4, #14
 368 0196 FFF7FEFF 		bl	BLUE_LED_Read
 369 019a 031C     		mov	r3, r0
 370 019c 2370     		strb	r3, [r4]
 137:.\spi_handler.c ****                     red = RED_LED_Read();
 371              		.loc 1 137 0
 372 019e 3C1C     		mov	r4, r7
ARM GAS  C:\Users\BJRN~1\AppData\Local\Temp\cclQEqgC.s 			page 10


 373 01a0 0D34     		add	r4, r4, #13
 374 01a2 FFF7FEFF 		bl	RED_LED_Read
 375 01a6 031C     		mov	r3, r0
 376 01a8 2370     		strb	r3, [r4]
 138:.\spi_handler.c ****                     green = GREEN_LED_Read();
 377              		.loc 1 138 0
 378 01aa 3C1C     		mov	r4, r7
 379 01ac 0C34     		add	r4, r4, #12
 380 01ae FFF7FEFF 		bl	GREEN_LED_Read
 381 01b2 031C     		mov	r3, r0
 382 01b4 2370     		strb	r3, [r4]
 139:.\spi_handler.c ****                     
 140:.\spi_handler.c ****                     GREEN_LED_Write(1);
 383              		.loc 1 140 0
 384 01b6 0120     		mov	r0, #1
 385 01b8 FFF7FEFF 		bl	GREEN_LED_Write
 141:.\spi_handler.c ****                     RED_LED_Write(0);
 386              		.loc 1 141 0
 387 01bc 0020     		mov	r0, #0
 388 01be FFF7FEFF 		bl	RED_LED_Write
 142:.\spi_handler.c ****                     BLUE_LED_Write(0);
 389              		.loc 1 142 0
 390 01c2 0020     		mov	r0, #0
 391 01c4 FFF7FEFF 		bl	BLUE_LED_Write
 143:.\spi_handler.c ****                     
 144:.\spi_handler.c ****                     char * buf;
 145:.\spi_handler.c ****                     /* Call method */
 146:.\spi_handler.c ****                     loadData_getBuffer(&buf, &len);
 392              		.loc 1 146 0
 393 01c8 3A1C     		mov	r2, r7
 394 01ca 314B     		ldr	r3, .L22+24
 395 01cc 101C     		mov	r0, r2
 396 01ce 191C     		mov	r1, r3
 397 01d0 FFF7FEFF 		bl	loadData_getBuffer
 147:.\spi_handler.c ****                     
 148:.\spi_handler.c ****                     for(c = 0 ; c < len ; c++)
 398              		.loc 1 148 0
 399 01d4 0023     		mov	r3, #0
 400 01d6 3B61     		str	r3, [r7, #16]
 401 01d8 0AE0     		b	.L20
 402              	.L21:
 149:.\spi_handler.c ****                     {
 150:.\spi_handler.c ****                         spiTxBuffer[c] = buf[c];
 403              		.loc 1 150 0 discriminator 2
 404 01da 3A68     		ldr	r2, [r7]
 405 01dc 3B69     		ldr	r3, [r7, #16]
 406 01de D318     		add	r3, r2, r3
 407 01e0 1A78     		ldrb	r2, [r3]
 408 01e2 2C49     		ldr	r1, .L22+28
 409 01e4 3B69     		ldr	r3, [r7, #16]
 410 01e6 CB18     		add	r3, r1, r3
 411 01e8 1A70     		strb	r2, [r3]
 148:.\spi_handler.c ****                     for(c = 0 ; c < len ; c++)
 412              		.loc 1 148 0 discriminator 2
 413 01ea 3B69     		ldr	r3, [r7, #16]
 414 01ec 0133     		add	r3, r3, #1
 415 01ee 3B61     		str	r3, [r7, #16]
ARM GAS  C:\Users\BJRN~1\AppData\Local\Temp\cclQEqgC.s 			page 11


 416              	.L20:
 148:.\spi_handler.c ****                     for(c = 0 ; c < len ; c++)
 417              		.loc 1 148 0 is_stmt 0 discriminator 1
 418 01f0 274B     		ldr	r3, .L22+24
 419 01f2 1B68     		ldr	r3, [r3]
 420 01f4 3A69     		ldr	r2, [r7, #16]
 421 01f6 9A42     		cmp	r2, r3
 422 01f8 EFD3     		bcc	.L21
 151:.\spi_handler.c ****                     }
 152:.\spi_handler.c **** 
 153:.\spi_handler.c ****                     SPIS_1_SpiUartClearTxBuffer();
 423              		.loc 1 153 0 is_stmt 1
 424 01fa FFF7FEFF 		bl	SPIS_1_SpiUartClearTxBuffer
 154:.\spi_handler.c ****                     SPIS_1_SpiUartWriteTxData((char)len);
 425              		.loc 1 154 0
 426 01fe 244B     		ldr	r3, .L22+24
 427 0200 1B68     		ldr	r3, [r3]
 428 0202 DBB2     		uxtb	r3, r3
 429 0204 181C     		mov	r0, r3
 430 0206 FFF7FEFF 		bl	SPIS_1_SpiUartWriteTxData
 155:.\spi_handler.c ****                     spiCounter = 0;
 431              		.loc 1 155 0
 432 020a 1B4B     		ldr	r3, .L22
 433 020c 0022     		mov	r2, #0
 434 020e 1A60     		str	r2, [r3]
 156:.\spi_handler.c ****                     spiReadCounter = 0;
 435              		.loc 1 156 0
 436 0210 214B     		ldr	r3, .L22+32
 437 0212 0022     		mov	r2, #0
 438 0214 1A60     		str	r2, [r3]
 157:.\spi_handler.c ****                     
 158:.\spi_handler.c ****                     RED_LED_Write(red);
 439              		.loc 1 158 0
 440 0216 3B1C     		mov	r3, r7
 441 0218 0D33     		add	r3, r3, #13
 442 021a 1B78     		ldrb	r3, [r3]
 443 021c 181C     		mov	r0, r3
 444 021e FFF7FEFF 		bl	RED_LED_Write
 159:.\spi_handler.c ****                     GREEN_LED_Write(green);
 445              		.loc 1 159 0
 446 0222 3B1C     		mov	r3, r7
 447 0224 0C33     		add	r3, r3, #12
 448 0226 1B78     		ldrb	r3, [r3]
 449 0228 181C     		mov	r0, r3
 450 022a FFF7FEFF 		bl	GREEN_LED_Write
 160:.\spi_handler.c ****                     BLUE_LED_Write(blue);
 451              		.loc 1 160 0
 452 022e 3B1C     		mov	r3, r7
 453 0230 0E33     		add	r3, r3, #14
 454 0232 1B78     		ldrb	r3, [r3]
 455 0234 181C     		mov	r0, r3
 456 0236 FFF7FEFF 		bl	BLUE_LED_Write
 457 023a 16E0     		b	.L6
 458              	.L13:
 161:.\spi_handler.c ****                 break;
 162:.\spi_handler.c ****             case 'R':
 163:.\spi_handler.c ****                     SPIS_1_SpiUartClearTxBuffer();
ARM GAS  C:\Users\BJRN~1\AppData\Local\Temp\cclQEqgC.s 			page 12


 459              		.loc 1 163 0
 460 023c FFF7FEFF 		bl	SPIS_1_SpiUartClearTxBuffer
 164:.\spi_handler.c ****                     SPIS_1_SpiUartWriteTxData(spiTxBuffer[spiReadCounter]);
 461              		.loc 1 164 0
 462 0240 154B     		ldr	r3, .L22+32
 463 0242 1B68     		ldr	r3, [r3]
 464 0244 134A     		ldr	r2, .L22+28
 465 0246 D35C     		ldrb	r3, [r2, r3]
 466 0248 181C     		mov	r0, r3
 467 024a FFF7FEFF 		bl	SPIS_1_SpiUartWriteTxData
 165:.\spi_handler.c ****                     spiCounter = 0;
 468              		.loc 1 165 0
 469 024e 0A4B     		ldr	r3, .L22
 470 0250 0022     		mov	r2, #0
 471 0252 1A60     		str	r2, [r3]
 166:.\spi_handler.c ****                     spiReadCounter++;
 472              		.loc 1 166 0
 473 0254 104B     		ldr	r3, .L22+32
 474 0256 1B68     		ldr	r3, [r3]
 475 0258 5A1C     		add	r2, r3, #1
 476 025a 0F4B     		ldr	r3, .L22+32
 477 025c 1A60     		str	r2, [r3]
 478 025e 04E0     		b	.L6
 479              	.L9:
 167:.\spi_handler.c ****                 break;
 168:.\spi_handler.c ****             case 'C':
 169:.\spi_handler.c ****                     SPIS_1_SpiUartClearRxBuffer();
 480              		.loc 1 169 0
 481 0260 FFF7FEFF 		bl	SPIS_1_SpiUartClearRxBuffer
 170:.\spi_handler.c ****                     spiCounter = 0;
 482              		.loc 1 170 0
 483 0264 044B     		ldr	r3, .L22
 484 0266 0022     		mov	r2, #0
 485 0268 1A60     		str	r2, [r3]
 486              	.L6:
 487              	.LBE2:
 171:.\spi_handler.c ****     		default:
 172:.\spi_handler.c ****     			break;
 173:.\spi_handler.c ****     	}
 174:.\spi_handler.c ****     }
 175:.\spi_handler.c **** 	
 176:.\spi_handler.c **** 	SPIS_1_ClearRxInterruptSource(SPIS_1_GetRxInterruptSource());
 488              		.loc 1 176 0
 489 026a 0C4B     		ldr	r3, .L22+36
 490 026c 0B4A     		ldr	r2, .L22+36
 491 026e 1268     		ldr	r2, [r2]
 492 0270 1A60     		str	r2, [r3]
 177:.\spi_handler.c **** 	//TP_1_Write(0); // Til måling af ISR gennemløbstid
 178:.\spi_handler.c **** }...
 493              		.loc 1 178 0
 494 0272 BD46     		mov	sp, r7
 495 0274 07B0     		add	sp, sp, #28
 496              		@ sp needed for prologue
 497 0276 90BD     		pop	{r4, r7, pc}
 498              	.L23:
 499              		.align	2
 500              	.L22:
ARM GAS  C:\Users\BJRN~1\AppData\Local\Temp\cclQEqgC.s 			page 13


 501 0278 00000000 		.word	spiCounter
 502 027c 00000000 		.word	spiBuffer
 503 0280 00000000 		.word	.L15
 504 0284 00000000 		.word	tempBuffer
 505 0288 00000000 		.word	humiBuffer
 506 028c 00000000 		.word	unitNo
 507 0290 00000000 		.word	len
 508 0294 00000000 		.word	spiTxBuffer
 509 0298 00000000 		.word	spiReadCounter
 510 029c C00F0740 		.word	1074204608
 511              		.cfi_endproc
 512              	.LFE34:
 513              		.size	isr_spi_rx, .-isr_spi_rx
 514              		.text
 515              	.Letext0:
 516              		.file 2 "./Generated_Source/PSoC4/cytypes.h"