ARM GAS  C:\Users\BJRN~1\AppData\Local\Temp\ccpG9JJD.s 			page 1


   1              		.cpu cortex-m0
   2              		.fpu softvfp
   3              		.eabi_attribute 20, 1
   4              		.eabi_attribute 21, 1
   5              		.eabi_attribute 23, 3
   6              		.eabi_attribute 24, 1
   7              		.eabi_attribute 25, 1
   8              		.eabi_attribute 26, 1
   9              		.eabi_attribute 30, 6
  10              		.eabi_attribute 34, 0
  11              		.eabi_attribute 18, 4
  12              		.code	16
  13              		.file	"spi_handler.c"
  14              		.text
  15              	.Ltext0:
  16              		.cfi_sections	.debug_frame
  17              		.comm	spiBuffer,64,4
  18              		.comm	spiTxBuffer,64,4
  19              		.global	unitNo
  20              		.data
  21              		.type	unitNo, %object
  22              		.size	unitNo, 1
  23              	unitNo:
  24 0000 31       		.byte	49
  25              		.global	spiCounter
  26              		.bss
  27              		.align	2
  28              		.type	spiCounter, %object
  29              		.size	spiCounter, 4
  30              	spiCounter:
  31 0000 00000000 		.space	4
  32              		.global	spiReadCounter
  33              		.align	2
  34              		.type	spiReadCounter, %object
  35              		.size	spiReadCounter, 4
  36              	spiReadCounter:
  37 0004 00000000 		.space	4
  38              		.comm	len,4,4
  39              		.comm	tempBuffer,6,4
  40              		.comm	humiBuffer,4,4
  41              		.section	.text.spi_init,"ax",%progbits
  42              		.align	2
  43              		.global	spi_init
  44              		.code	16
  45              		.thumb_func
  46              		.type	spi_init, %function
  47              	spi_init:
  48              	.LFB33:
  49              		.file 1 ".\\spi_handler.c"
   1:.\spi_handler.c **** /*
   2:.\spi_handler.c **** * File: spi_handler.c
   3:.\spi_handler.c **** * Description: Implementation for EasyWater8000 spi handler
   4:.\spi_handler.c **** * Project: PRJ3
   5:.\spi_handler.c **** * 
   6:.\spi_handler.c **** * Author: Mick Kirkegaard & Poul Overgaard
   7:.\spi_handler.c **** */
   8:.\spi_handler.c **** 
ARM GAS  C:\Users\BJRN~1\AppData\Local\Temp\ccpG9JJD.s 			page 2


   9:.\spi_handler.c **** #include "SPI_handler.h"
  10:.\spi_handler.c **** 
  11:.\spi_handler.c **** char spiBuffer[64];
  12:.\spi_handler.c **** char spiTxBuffer[64]; 
  13:.\spi_handler.c **** char unitNo = '1';
  14:.\spi_handler.c **** int spiCounter = 0;
  15:.\spi_handler.c **** int spiReadCounter = 0;
  16:.\spi_handler.c **** unsigned int len;// = sizeof(testGetLog);
  17:.\spi_handler.c **** char tempBuffer[6]; // T T T . T \0
  18:.\spi_handler.c **** char humiBuffer[4]; // F F F \0
  19:.\spi_handler.c **** 
  20:.\spi_handler.c **** void spi_init()
  21:.\spi_handler.c **** {
  50              		.loc 1 21 0
  51              		.cfi_startproc
  52 0000 80B5     		push	{r7, lr}
  53              	.LCFI0:
  54              		.cfi_def_cfa_offset 8
  55              		.cfi_offset 7, -8
  56              		.cfi_offset 14, -4
  57 0002 00AF     		add	r7, sp, #0
  58              	.LCFI1:
  59              		.cfi_def_cfa_register 7
  22:.\spi_handler.c ****     SPIS_1_Start();
  60              		.loc 1 22 0
  61 0004 FFF7FEFF 		bl	SPIS_1_Start
  23:.\spi_handler.c **** 	SPIS_1_SetCustomInterruptHandler(isr_spi_rx);
  62              		.loc 1 23 0
  63 0008 034B     		ldr	r3, .L2
  64 000a 181C     		mov	r0, r3
  65 000c FFF7FEFF 		bl	SPIS_1_SetCustomInterruptHandler
  24:.\spi_handler.c **** 	SPIS_1_SpiUartClearTxBuffer();
  66              		.loc 1 24 0
  67 0010 FFF7FEFF 		bl	SPIS_1_SpiUartClearTxBuffer
  25:.\spi_handler.c **** }
  68              		.loc 1 25 0
  69 0014 BD46     		mov	sp, r7
  70              		@ sp needed for prologue
  71 0016 80BD     		pop	{r7, pc}
  72              	.L3:
  73              		.align	2
  74              	.L2:
  75 0018 00000000 		.word	isr_spi_rx
  76              		.cfi_endproc
  77              	.LFE33:
  78              		.size	spi_init, .-spi_init
  79              		.global	__aeabi_d2f
  80              		.section	.text.isr_spi_rx,"ax",%progbits
  81              		.align	2
  82              		.global	isr_spi_rx
  83              		.code	16
  84              		.thumb_func
  85              		.type	isr_spi_rx, %function
  86              	isr_spi_rx:
  87              	.LFB34:
  26:.\spi_handler.c **** 
  27:.\spi_handler.c **** /*
ARM GAS  C:\Users\BJRN~1\AppData\Local\Temp\ccpG9JJD.s 			page 3


  28:.\spi_handler.c ****  * SPI RX ISR
  29:.\spi_handler.c ****  * Dekoder SPI RX data og udfører kommando iht. protokol
  30:.\spi_handler.c ****  */
  31:.\spi_handler.c **** CY_ISR(isr_spi_rx) {
  88              		.loc 1 31 0
  89              		.cfi_startproc
  90 0000 90B5     		push	{r4, r7, lr}
  91              	.LCFI2:
  92              		.cfi_def_cfa_offset 12
  93              		.cfi_offset 4, -12
  94              		.cfi_offset 7, -8
  95              		.cfi_offset 14, -4
  96 0002 87B0     		sub	sp, sp, #28
  97              	.LCFI3:
  98              		.cfi_def_cfa_offset 40
  99 0004 00AF     		add	r7, sp, #0
 100              	.LCFI4:
 101              		.cfi_def_cfa_register 7
  32:.\spi_handler.c **** 
  33:.\spi_handler.c **** 	char cmd = '0';
 102              		.loc 1 33 0
 103 0006 3B1C     		mov	r3, r7
 104 0008 0F33     		add	r3, r3, #15
 105 000a 3022     		mov	r2, #48
 106 000c 1A70     		strb	r2, [r3]
  34:.\spi_handler.c ****     int i;
  35:.\spi_handler.c ****     unsigned int c;
  36:.\spi_handler.c ****     
  37:.\spi_handler.c **** 	//TP_1_Write(1); // Til måling af ISR gennemløbstid
  38:.\spi_handler.c ****  
  39:.\spi_handler.c **** 	cmd = SPIS_1_SpiUartReadRxData(); 
 107              		.loc 1 39 0
 108 000e FFF7FEFF 		bl	SPIS_1_SpiUartReadRxData
 109 0012 021C     		mov	r2, r0
 110 0014 3B1C     		mov	r3, r7
 111 0016 0F33     		add	r3, r3, #15
 112 0018 1A70     		strb	r2, [r3]
  40:.\spi_handler.c ****     
  41:.\spi_handler.c ****     spiBuffer[spiCounter] = cmd;
 113              		.loc 1 41 0
 114 001a 854B     		ldr	r3, .L22
 115 001c 1B68     		ldr	r3, [r3]
 116 001e 854A     		ldr	r2, .L22+4
 117 0020 391C     		mov	r1, r7
 118 0022 0F31     		add	r1, r1, #15
 119 0024 0978     		ldrb	r1, [r1]
 120 0026 D154     		strb	r1, [r2, r3]
  42:.\spi_handler.c ****     spiCounter++;
 121              		.loc 1 42 0
 122 0028 814B     		ldr	r3, .L22
 123 002a 1B68     		ldr	r3, [r3]
 124 002c 5A1C     		add	r2, r3, #1
 125 002e 804B     		ldr	r3, .L22
 126 0030 1A60     		str	r2, [r3]
  43:.\spi_handler.c ****     
  44:.\spi_handler.c ****     /*
  45:.\spi_handler.c **** 	 * Her switches på cmd iht. dataprotokollen
ARM GAS  C:\Users\BJRN~1\AppData\Local\Temp\ccpG9JJD.s 			page 4


  46:.\spi_handler.c ****      *
  47:.\spi_handler.c ****      *  ’A’   0x41     Aktiver Enhed
  48:.\spi_handler.c ****      *  ’D’   0x44     Deaktiver Enhed
  49:.\spi_handler.c ****      *  ’P’   0x50     Parametre sendes til Enhed
  50:.\spi_handler.c ****      *  ’V’   0x56     Verificer Enhed i systemet
  51:.\spi_handler.c ****      *  ’L’   0x4c     Forespørg logdata fra Enhed
  52:.\spi_handler.c ****      *
  53:.\spi_handler.c ****      *  'C'   0x43     Clear/write function char
  54:.\spi_handler.c ****      *  'R'   0x52     Read function char
  55:.\spi_handler.c **** 	 */
  56:.\spi_handler.c ****     
  57:.\spi_handler.c ****     if ((cmd == 'R') || (cmd == 'C') || (cmd == 'L') || (cmd == 'V')){
 127              		.loc 1 57 0
 128 0032 3B1C     		mov	r3, r7
 129 0034 0F33     		add	r3, r3, #15
 130 0036 1B78     		ldrb	r3, [r3]
 131 0038 522B     		cmp	r3, #82
 132 003a 0FD0     		beq	.L5
 133              		.loc 1 57 0 is_stmt 0 discriminator 1
 134 003c 3B1C     		mov	r3, r7
 135 003e 0F33     		add	r3, r3, #15
 136 0040 1B78     		ldrb	r3, [r3]
 137 0042 432B     		cmp	r3, #67
 138 0044 0AD0     		beq	.L5
 139 0046 3B1C     		mov	r3, r7
 140 0048 0F33     		add	r3, r3, #15
 141 004a 1B78     		ldrb	r3, [r3]
 142 004c 4C2B     		cmp	r3, #76
 143 004e 05D0     		beq	.L5
 144 0050 3B1C     		mov	r3, r7
 145 0052 0F33     		add	r3, r3, #15
 146 0054 1B78     		ldrb	r3, [r3]
 147 0056 562B     		cmp	r3, #86
 148 0058 00D0     		beq	.LCB86
 149 005a E2E0     		b	.L6	@long jump
 150              	.LCB86:
 151              	.L5:
  58:.\spi_handler.c ****     	switch (spiBuffer[0]) {
 152              		.loc 1 58 0 is_stmt 1
 153 005c 754B     		ldr	r3, .L22+4
 154 005e 1B78     		ldrb	r3, [r3]
 155 0060 413B     		sub	r3, r3, #65
 156 0062 152B     		cmp	r3, #21
 157 0064 00D9     		bls	.LCB92
 158 0066 DCE0     		b	.L6	@long jump
 159              	.LCB92:
 160 0068 9A00     		lsl	r2, r3, #2
 161 006a 734B     		ldr	r3, .L22+8
 162 006c D318     		add	r3, r2, r3
 163 006e 1B68     		ldr	r3, [r3]
 164 0070 9F46     		mov	pc, r3
 165              		.section	.rodata
 166              		.align	2
 167              	.L15:
 168 0000 72000000 		.word	.L8
 169 0004 22020000 		.word	.L6
 170 0008 18020000 		.word	.L9
ARM GAS  C:\Users\BJRN~1\AppData\Local\Temp\ccpG9JJD.s 			page 5


 171 000c 96000000 		.word	.L10
 172 0010 22020000 		.word	.L6
 173 0014 22020000 		.word	.L6
 174 0018 22020000 		.word	.L6
 175 001c 22020000 		.word	.L6
 176 0020 22020000 		.word	.L6
 177 0024 22020000 		.word	.L6
 178 0028 22020000 		.word	.L6
 179 002c 92010000 		.word	.L11
 180 0030 22020000 		.word	.L6
 181 0034 22020000 		.word	.L6
 182 0038 22020000 		.word	.L6
 183 003c BA000000 		.word	.L12
 184 0040 22020000 		.word	.L6
 185 0044 F4010000 		.word	.L13
 186 0048 22020000 		.word	.L6
 187 004c 22020000 		.word	.L6
 188 0050 22020000 		.word	.L6
 189 0054 66010000 		.word	.L14
 190              		.section	.text.isr_spi_rx
 191              	.L8:
 192              	.LBB2:
  59:.\spi_handler.c ****             case 'A':
  60:.\spi_handler.c ****                     RED_LED_Write(1);
 193              		.loc 1 60 0
 194 0072 0120     		mov	r0, #1
 195 0074 FFF7FEFF 		bl	RED_LED_Write
  61:.\spi_handler.c ****                     GREEN_LED_Write(0);
 196              		.loc 1 61 0
 197 0078 0020     		mov	r0, #0
 198 007a FFF7FEFF 		bl	GREEN_LED_Write
  62:.\spi_handler.c ****                     BLUE_LED_Write(1);
 199              		.loc 1 62 0
 200 007e 0120     		mov	r0, #1
 201 0080 FFF7FEFF 		bl	BLUE_LED_Write
  63:.\spi_handler.c ****                     
  64:.\spi_handler.c ****                     /* Clear Buffer and Counter */
  65:.\spi_handler.c ****                     SPIS_1_SpiUartClearTxBuffer();
 202              		.loc 1 65 0
 203 0084 FFF7FEFF 		bl	SPIS_1_SpiUartClearTxBuffer
  66:.\spi_handler.c ****                     spiCounter = 0;
 204              		.loc 1 66 0
 205 0088 694B     		ldr	r3, .L22
 206 008a 0022     		mov	r2, #0
 207 008c 1A60     		str	r2, [r3]
  67:.\spi_handler.c ****                     
  68:.\spi_handler.c ****                     /*Call method*/
  69:.\spi_handler.c ****                     onOff_turnOnOff(1);
 208              		.loc 1 69 0
 209 008e 0120     		mov	r0, #1
 210 0090 FFF7FEFF 		bl	onOff_turnOnOff
 211 0094 C5E0     		b	.L6
 212              	.L10:
  70:.\spi_handler.c ****                     
  71:.\spi_handler.c ****                 break;
  72:.\spi_handler.c ****             case 'D':
  73:.\spi_handler.c ****                     GREEN_LED_Write(1);
ARM GAS  C:\Users\BJRN~1\AppData\Local\Temp\ccpG9JJD.s 			page 6


 213              		.loc 1 73 0
 214 0096 0120     		mov	r0, #1
 215 0098 FFF7FEFF 		bl	GREEN_LED_Write
  74:.\spi_handler.c ****                     RED_LED_Write(0);
 216              		.loc 1 74 0
 217 009c 0020     		mov	r0, #0
 218 009e FFF7FEFF 		bl	RED_LED_Write
  75:.\spi_handler.c ****                     BLUE_LED_Write(1);
 219              		.loc 1 75 0
 220 00a2 0120     		mov	r0, #1
 221 00a4 FFF7FEFF 		bl	BLUE_LED_Write
  76:.\spi_handler.c ****                     
  77:.\spi_handler.c ****                     /* Clear Buffer and Counter */
  78:.\spi_handler.c ****                     SPIS_1_SpiUartClearTxBuffer();
 222              		.loc 1 78 0
 223 00a8 FFF7FEFF 		bl	SPIS_1_SpiUartClearTxBuffer
  79:.\spi_handler.c ****                     spiCounter = 0;
 224              		.loc 1 79 0
 225 00ac 604B     		ldr	r3, .L22
 226 00ae 0022     		mov	r2, #0
 227 00b0 1A60     		str	r2, [r3]
  80:.\spi_handler.c ****                     
  81:.\spi_handler.c ****                     /*Call method*/
  82:.\spi_handler.c ****                     onOff_turnOnOff(0);
 228              		.loc 1 82 0
 229 00b2 0020     		mov	r0, #0
 230 00b4 FFF7FEFF 		bl	onOff_turnOnOff
 231 00b8 B3E0     		b	.L6
 232              	.L12:
  83:.\spi_handler.c ****                     
  84:.\spi_handler.c ****                 break;
  85:.\spi_handler.c ****             case 'P':
  86:.\spi_handler.c ****                     /* Disable interrupt */
  87:.\spi_handler.c ****                     CyGlobalIntDisable;
 233              		.loc 1 87 0
 234              	@ 87 ".\spi_handler.c" 1
 235 00ba 72B6     		CPSID   i
 236              	@ 0 "" 2
  88:.\spi_handler.c ****                  
  89:.\spi_handler.c ****                     GREEN_LED_Write(0);
 237              		.loc 1 89 0
 238              		.code	16
 239 00bc 0020     		mov	r0, #0
 240 00be FFF7FEFF 		bl	GREEN_LED_Write
  90:.\spi_handler.c ****                     RED_LED_Write(0);
 241              		.loc 1 90 0
 242 00c2 0020     		mov	r0, #0
 243 00c4 FFF7FEFF 		bl	RED_LED_Write
  91:.\spi_handler.c ****                     BLUE_LED_Write(0);
 244              		.loc 1 91 0
 245 00c8 0020     		mov	r0, #0
 246 00ca FFF7FEFF 		bl	BLUE_LED_Write
  92:.\spi_handler.c ****                     
  93:.\spi_handler.c ****                     
  94:.\spi_handler.c ****                     
  95:.\spi_handler.c ****                     /* Read temp */
  96:.\spi_handler.c ****                     for(i = 0 ; i < 5 ; i++){
ARM GAS  C:\Users\BJRN~1\AppData\Local\Temp\ccpG9JJD.s 			page 7


 247              		.loc 1 96 0
 248 00ce 0023     		mov	r3, #0
 249 00d0 7B61     		str	r3, [r7, #20]
 250 00d2 0AE0     		b	.L16
 251              	.L17:
  97:.\spi_handler.c ****                         tempBuffer[i] = spiBuffer[i+1];
 252              		.loc 1 97 0 discriminator 2
 253 00d4 7B69     		ldr	r3, [r7, #20]
 254 00d6 0133     		add	r3, r3, #1
 255 00d8 564A     		ldr	r2, .L22+4
 256 00da D25C     		ldrb	r2, [r2, r3]
 257 00dc 5749     		ldr	r1, .L22+12
 258 00de 7B69     		ldr	r3, [r7, #20]
 259 00e0 CB18     		add	r3, r1, r3
 260 00e2 1A70     		strb	r2, [r3]
  96:.\spi_handler.c ****                     for(i = 0 ; i < 5 ; i++){
 261              		.loc 1 96 0 discriminator 2
 262 00e4 7B69     		ldr	r3, [r7, #20]
 263 00e6 0133     		add	r3, r3, #1
 264 00e8 7B61     		str	r3, [r7, #20]
 265              	.L16:
  96:.\spi_handler.c ****                     for(i = 0 ; i < 5 ; i++){
 266              		.loc 1 96 0 is_stmt 0 discriminator 1
 267 00ea 7B69     		ldr	r3, [r7, #20]
 268 00ec 042B     		cmp	r3, #4
 269 00ee F1DD     		ble	.L17
  98:.\spi_handler.c ****                         //
  99:.\spi_handler.c ****                     }
 100:.\spi_handler.c ****                     for(i = 0 ; i < 3 ; i++){
 270              		.loc 1 100 0 is_stmt 1
 271 00f0 0023     		mov	r3, #0
 272 00f2 7B61     		str	r3, [r7, #20]
 273 00f4 0AE0     		b	.L18
 274              	.L19:
 101:.\spi_handler.c ****                         humiBuffer[i] = spiBuffer[i+6];
 275              		.loc 1 101 0 discriminator 2
 276 00f6 7B69     		ldr	r3, [r7, #20]
 277 00f8 0633     		add	r3, r3, #6
 278 00fa 4E4A     		ldr	r2, .L22+4
 279 00fc D25C     		ldrb	r2, [r2, r3]
 280 00fe 5049     		ldr	r1, .L22+16
 281 0100 7B69     		ldr	r3, [r7, #20]
 282 0102 CB18     		add	r3, r1, r3
 283 0104 1A70     		strb	r2, [r3]
 100:.\spi_handler.c ****                     for(i = 0 ; i < 3 ; i++){
 284              		.loc 1 100 0 discriminator 2
 285 0106 7B69     		ldr	r3, [r7, #20]
 286 0108 0133     		add	r3, r3, #1
 287 010a 7B61     		str	r3, [r7, #20]
 288              	.L18:
 100:.\spi_handler.c ****                     for(i = 0 ; i < 3 ; i++){
 289              		.loc 1 100 0 is_stmt 0 discriminator 1
 290 010c 7B69     		ldr	r3, [r7, #20]
 291 010e 022B     		cmp	r3, #2
 292 0110 F1DD     		ble	.L19
 102:.\spi_handler.c ****                     }
 103:.\spi_handler.c ****                     
ARM GAS  C:\Users\BJRN~1\AppData\Local\Temp\ccpG9JJD.s 			page 8


 104:.\spi_handler.c ****                     float tempValue = 0;
 293              		.loc 1 104 0 is_stmt 1
 294 0112 0023     		mov	r3, #0
 295 0114 BB60     		str	r3, [r7, #8]
 105:.\spi_handler.c ****                     float humiValue = 0;
 296              		.loc 1 105 0
 297 0116 0023     		mov	r3, #0
 298 0118 7B60     		str	r3, [r7, #4]
 106:.\spi_handler.c ****                     
 107:.\spi_handler.c ****                     /* Parse charArray's to float's */
 108:.\spi_handler.c ****                     tempValue = (float)atof(tempBuffer);
 299              		.loc 1 108 0
 300 011a 484B     		ldr	r3, .L22+12
 301 011c 181C     		mov	r0, r3
 302 011e FFF7FEFF 		bl	atof
 303 0122 031C     		mov	r3, r0
 304 0124 0C1C     		mov	r4, r1
 305 0126 181C     		mov	r0, r3
 306 0128 211C     		mov	r1, r4
 307 012a FFF7FEFF 		bl	__aeabi_d2f
 308 012e 031C     		add	r3, r0, #0
 309 0130 BB60     		str	r3, [r7, #8]
 109:.\spi_handler.c ****                     humiValue = (float)atof(humiBuffer);
 310              		.loc 1 109 0
 311 0132 434B     		ldr	r3, .L22+16
 312 0134 181C     		mov	r0, r3
 313 0136 FFF7FEFF 		bl	atof
 314 013a 031C     		mov	r3, r0
 315 013c 0C1C     		mov	r4, r1
 316 013e 181C     		mov	r0, r3
 317 0140 211C     		mov	r1, r4
 318 0142 FFF7FEFF 		bl	__aeabi_d2f
 319 0146 031C     		add	r3, r0, #0
 320 0148 7B60     		str	r3, [r7, #4]
 110:.\spi_handler.c ****                     
 111:.\spi_handler.c ****                     /* Call method */
 112:.\spi_handler.c ****                     config_config(&tempValue, &humiValue);
 321              		.loc 1 112 0
 322 014a 3A1C     		mov	r2, r7
 323 014c 0832     		add	r2, r2, #8
 324 014e 3B1D     		add	r3, r7, #4
 325 0150 101C     		mov	r0, r2
 326 0152 191C     		mov	r1, r3
 327 0154 FFF7FEFF 		bl	config_config
 113:.\spi_handler.c ****                     
 114:.\spi_handler.c ****                     /* Clear Buffer and Counter */
 115:.\spi_handler.c ****                     SPIS_1_SpiUartClearTxBuffer();
 328              		.loc 1 115 0
 329 0158 FFF7FEFF 		bl	SPIS_1_SpiUartClearTxBuffer
 116:.\spi_handler.c ****                     spiCounter = 0;
 330              		.loc 1 116 0
 331 015c 344B     		ldr	r3, .L22
 332 015e 0022     		mov	r2, #0
 333 0160 1A60     		str	r2, [r3]
 117:.\spi_handler.c ****                     
 118:.\spi_handler.c ****                     /* Re-enable interrupt */
 119:.\spi_handler.c ****                     CyGlobalIntEnable;
ARM GAS  C:\Users\BJRN~1\AppData\Local\Temp\ccpG9JJD.s 			page 9


 334              		.loc 1 119 0
 335              	@ 119 ".\spi_handler.c" 1
 336 0162 62B6     		CPSIE   i
 337              	@ 0 "" 2
 338              		.code	16
 339 0164 5DE0     		b	.L6
 340              	.L14:
 120:.\spi_handler.c ****                 break;
 121:.\spi_handler.c ****     		case 'V':
 122:.\spi_handler.c ****                     GREEN_LED_Write(1);
 341              		.loc 1 122 0
 342 0166 0120     		mov	r0, #1
 343 0168 FFF7FEFF 		bl	GREEN_LED_Write
 123:.\spi_handler.c ****                     RED_LED_Write(1);
 344              		.loc 1 123 0
 345 016c 0120     		mov	r0, #1
 346 016e FFF7FEFF 		bl	RED_LED_Write
 124:.\spi_handler.c ****                     BLUE_LED_Write(0);
 347              		.loc 1 124 0
 348 0172 0020     		mov	r0, #0
 349 0174 FFF7FEFF 		bl	BLUE_LED_Write
 125:.\spi_handler.c **** 
 126:.\spi_handler.c ****                     SPIS_1_SpiUartClearTxBuffer();
 350              		.loc 1 126 0
 351 0178 FFF7FEFF 		bl	SPIS_1_SpiUartClearTxBuffer
 127:.\spi_handler.c ****                     SPIS_1_SpiUartWriteTxData(unitNo);
 352              		.loc 1 127 0
 353 017c 314B     		ldr	r3, .L22+20
 354 017e 1B78     		ldrb	r3, [r3]
 355 0180 181C     		mov	r0, r3
 356 0182 FFF7FEFF 		bl	SPIS_1_SpiUartWriteTxData
 128:.\spi_handler.c ****                     spiCounter = 0;
 357              		.loc 1 128 0
 358 0186 2A4B     		ldr	r3, .L22
 359 0188 0022     		mov	r2, #0
 360 018a 1A60     		str	r2, [r3]
 129:.\spi_handler.c ****                     
 130:.\spi_handler.c ****                     /* Call method */
 131:.\spi_handler.c ****                     addRemove_verify();
 361              		.loc 1 131 0
 362 018c FFF7FEFF 		bl	addRemove_verify
 363 0190 47E0     		b	.L6
 364              	.L11:
 132:.\spi_handler.c ****                     
 133:.\spi_handler.c ****     			break;
 134:.\spi_handler.c ****             case 'L':
 135:.\spi_handler.c ****                     GREEN_LED_Write(1);
 365              		.loc 1 135 0
 366 0192 0120     		mov	r0, #1
 367 0194 FFF7FEFF 		bl	GREEN_LED_Write
 136:.\spi_handler.c ****                     RED_LED_Write(0);
 368              		.loc 1 136 0
 369 0198 0020     		mov	r0, #0
 370 019a FFF7FEFF 		bl	RED_LED_Write
 137:.\spi_handler.c ****                     BLUE_LED_Write(0);
 371              		.loc 1 137 0
 372 019e 0020     		mov	r0, #0
ARM GAS  C:\Users\BJRN~1\AppData\Local\Temp\ccpG9JJD.s 			page 10


 373 01a0 FFF7FEFF 		bl	BLUE_LED_Write
 138:.\spi_handler.c ****                     
 139:.\spi_handler.c ****                     char * buf;
 140:.\spi_handler.c ****                     /* Call method */
 141:.\spi_handler.c ****                     loadData_getBuffer(&buf, &len);
 374              		.loc 1 141 0
 375 01a4 3A1C     		mov	r2, r7
 376 01a6 284B     		ldr	r3, .L22+24
 377 01a8 101C     		mov	r0, r2
 378 01aa 191C     		mov	r1, r3
 379 01ac FFF7FEFF 		bl	loadData_getBuffer
 142:.\spi_handler.c ****                     
 143:.\spi_handler.c ****                     for(c = 0 ; c < len ; c++)
 380              		.loc 1 143 0
 381 01b0 0023     		mov	r3, #0
 382 01b2 3B61     		str	r3, [r7, #16]
 383 01b4 0AE0     		b	.L20
 384              	.L21:
 144:.\spi_handler.c ****                     {
 145:.\spi_handler.c ****                         spiTxBuffer[c] = buf[c];
 385              		.loc 1 145 0 discriminator 2
 386 01b6 3A68     		ldr	r2, [r7]
 387 01b8 3B69     		ldr	r3, [r7, #16]
 388 01ba D318     		add	r3, r2, r3
 389 01bc 1A78     		ldrb	r2, [r3]
 390 01be 2349     		ldr	r1, .L22+28
 391 01c0 3B69     		ldr	r3, [r7, #16]
 392 01c2 CB18     		add	r3, r1, r3
 393 01c4 1A70     		strb	r2, [r3]
 143:.\spi_handler.c ****                     for(c = 0 ; c < len ; c++)
 394              		.loc 1 143 0 discriminator 2
 395 01c6 3B69     		ldr	r3, [r7, #16]
 396 01c8 0133     		add	r3, r3, #1
 397 01ca 3B61     		str	r3, [r7, #16]
 398              	.L20:
 143:.\spi_handler.c ****                     for(c = 0 ; c < len ; c++)
 399              		.loc 1 143 0 is_stmt 0 discriminator 1
 400 01cc 1E4B     		ldr	r3, .L22+24
 401 01ce 1B68     		ldr	r3, [r3]
 402 01d0 3A69     		ldr	r2, [r7, #16]
 403 01d2 9A42     		cmp	r2, r3
 404 01d4 EFD3     		bcc	.L21
 146:.\spi_handler.c ****                     }
 147:.\spi_handler.c **** 
 148:.\spi_handler.c ****                     SPIS_1_SpiUartClearTxBuffer();
 405              		.loc 1 148 0 is_stmt 1
 406 01d6 FFF7FEFF 		bl	SPIS_1_SpiUartClearTxBuffer
 149:.\spi_handler.c ****                     SPIS_1_SpiUartWriteTxData((char)len);
 407              		.loc 1 149 0
 408 01da 1B4B     		ldr	r3, .L22+24
 409 01dc 1B68     		ldr	r3, [r3]
 410 01de DBB2     		uxtb	r3, r3
 411 01e0 181C     		mov	r0, r3
 412 01e2 FFF7FEFF 		bl	SPIS_1_SpiUartWriteTxData
 150:.\spi_handler.c ****                     spiCounter = 0;
 413              		.loc 1 150 0
 414 01e6 124B     		ldr	r3, .L22
ARM GAS  C:\Users\BJRN~1\AppData\Local\Temp\ccpG9JJD.s 			page 11


 415 01e8 0022     		mov	r2, #0
 416 01ea 1A60     		str	r2, [r3]
 151:.\spi_handler.c ****                     spiReadCounter = 0;
 417              		.loc 1 151 0
 418 01ec 184B     		ldr	r3, .L22+32
 419 01ee 0022     		mov	r2, #0
 420 01f0 1A60     		str	r2, [r3]
 421 01f2 16E0     		b	.L6
 422              	.L13:
 152:.\spi_handler.c ****                 break;
 153:.\spi_handler.c ****             case 'R':
 154:.\spi_handler.c ****                     SPIS_1_SpiUartClearTxBuffer();
 423              		.loc 1 154 0
 424 01f4 FFF7FEFF 		bl	SPIS_1_SpiUartClearTxBuffer
 155:.\spi_handler.c ****                     SPIS_1_SpiUartWriteTxData(spiTxBuffer[spiReadCounter]);
 425              		.loc 1 155 0
 426 01f8 154B     		ldr	r3, .L22+32
 427 01fa 1B68     		ldr	r3, [r3]
 428 01fc 134A     		ldr	r2, .L22+28
 429 01fe D35C     		ldrb	r3, [r2, r3]
 430 0200 181C     		mov	r0, r3
 431 0202 FFF7FEFF 		bl	SPIS_1_SpiUartWriteTxData
 156:.\spi_handler.c ****                     spiCounter = 0;
 432              		.loc 1 156 0
 433 0206 0A4B     		ldr	r3, .L22
 434 0208 0022     		mov	r2, #0
 435 020a 1A60     		str	r2, [r3]
 157:.\spi_handler.c ****                     spiReadCounter++;
 436              		.loc 1 157 0
 437 020c 104B     		ldr	r3, .L22+32
 438 020e 1B68     		ldr	r3, [r3]
 439 0210 5A1C     		add	r2, r3, #1
 440 0212 0F4B     		ldr	r3, .L22+32
 441 0214 1A60     		str	r2, [r3]
 442 0216 04E0     		b	.L6
 443              	.L9:
 158:.\spi_handler.c ****                 break;
 159:.\spi_handler.c ****             case 'C':
 160:.\spi_handler.c ****                     SPIS_1_SpiUartClearRxBuffer();
 444              		.loc 1 160 0
 445 0218 FFF7FEFF 		bl	SPIS_1_SpiUartClearRxBuffer
 161:.\spi_handler.c ****                     spiCounter = 0;
 446              		.loc 1 161 0
 447 021c 044B     		ldr	r3, .L22
 448 021e 0022     		mov	r2, #0
 449 0220 1A60     		str	r2, [r3]
 450              	.L6:
 451              	.LBE2:
 162:.\spi_handler.c ****     		default:
 163:.\spi_handler.c ****     			break;
 164:.\spi_handler.c ****     	}
 165:.\spi_handler.c ****     }
 166:.\spi_handler.c **** 	
 167:.\spi_handler.c **** 	SPIS_1_ClearRxInterruptSource(SPIS_1_GetRxInterruptSource());
 452              		.loc 1 167 0
 453 0222 0C4B     		ldr	r3, .L22+36
 454 0224 0B4A     		ldr	r2, .L22+36
ARM GAS  C:\Users\BJRN~1\AppData\Local\Temp\ccpG9JJD.s 			page 12


 455 0226 1268     		ldr	r2, [r2]
 456 0228 1A60     		str	r2, [r3]
 168:.\spi_handler.c **** 	//TP_1_Write(0); // Til måling af ISR gennemløbstid
 169:.\spi_handler.c **** }...
 457              		.loc 1 169 0
 458 022a BD46     		mov	sp, r7
 459 022c 07B0     		add	sp, sp, #28
 460              		@ sp needed for prologue
 461 022e 90BD     		pop	{r4, r7, pc}
 462              	.L23:
 463              		.align	2
 464              	.L22:
 465 0230 00000000 		.word	spiCounter
 466 0234 00000000 		.word	spiBuffer
 467 0238 00000000 		.word	.L15
 468 023c 00000000 		.word	tempBuffer
 469 0240 00000000 		.word	humiBuffer
 470 0244 00000000 		.word	unitNo
 471 0248 00000000 		.word	len
 472 024c 00000000 		.word	spiTxBuffer
 473 0250 00000000 		.word	spiReadCounter
 474 0254 C00F0740 		.word	1074204608
 475              		.cfi_endproc
 476              	.LFE34:
 477              		.size	isr_spi_rx, .-isr_spi_rx
 478              		.text
 479              	.Letext0:
 480              		.file 2 "./Generated_Source/PSoC4/cytypes.h"
 481              		.section	.debug_info,"",%progbits
 482              	.Ldebug_info0:
 483 0000 F3010000 		.4byte	0x1f3
 484 0004 0200     		.2byte	0x2
 485 0006 00000000 		.4byte	.Ldebug_abbrev0
 486 000a 04       		.byte	0x4
 487 000b 01       		.uleb128 0x1
 488 000c 31010000 		.4byte	.LASF24
 489 0010 01       		.byte	0x1
 490 0011 FA000000 		.4byte	.LASF25
 491 0015 10000000 		.4byte	.LASF26
 492 0019 00000000 		.4byte	.Ldebug_ranges0+0
 493 001d 00000000 		.4byte	0
 494 0021 00000000 		.4byte	0
 495 0025 00000000 		.4byte	.Ldebug_line0
 496 0029 02       		.uleb128 0x2
 497 002a 01       		.byte	0x1
 498 002b 06       		.byte	0x6
 499 002c 83010000 		.4byte	.LASF0
 500 0030 02       		.uleb128 0x2
 501 0031 01       		.byte	0x1
 502 0032 08       		.byte	0x8
 503 0033 4A000000 		.4byte	.LASF1
 504 0037 02       		.uleb128 0x2
 505 0038 02       		.byte	0x2
 506 0039 05       		.byte	0x5
 507 003a 1E010000 		.4byte	.LASF2
 508 003e 02       		.uleb128 0x2
 509 003f 02       		.byte	0x2
ARM GAS  C:\Users\BJRN~1\AppData\Local\Temp\ccpG9JJD.s 			page 13


 510 0040 07       		.byte	0x7
 511 0041 76000000 		.4byte	.LASF3
 512 0045 02       		.uleb128 0x2
 513 0046 04       		.byte	0x4
 514 0047 05       		.byte	0x5
 515 0048 7A010000 		.4byte	.LASF4
 516 004c 02       		.uleb128 0x2
 517 004d 04       		.byte	0x4
 518 004e 07       		.byte	0x7
 519 004f 64000000 		.4byte	.LASF5
 520 0053 02       		.uleb128 0x2
 521 0054 08       		.byte	0x8
 522 0055 05       		.byte	0x5
 523 0056 EC000000 		.4byte	.LASF6
 524 005a 02       		.uleb128 0x2
 525 005b 08       		.byte	0x8
 526 005c 07       		.byte	0x7
 527 005d CC000000 		.4byte	.LASF7
 528 0061 03       		.uleb128 0x3
 529 0062 04       		.byte	0x4
 530 0063 05       		.byte	0x5
 531 0064 696E7400 		.ascii	"int\000"
 532 0068 02       		.uleb128 0x2
 533 0069 04       		.byte	0x4
 534 006a 07       		.byte	0x7
 535 006b BF000000 		.4byte	.LASF8
 536 006f 04       		.uleb128 0x4
 537 0070 AD000000 		.4byte	.LASF12
 538 0074 02       		.byte	0x2
 539 0075 5D       		.byte	0x5d
 540 0076 4C000000 		.4byte	0x4c
 541 007a 02       		.uleb128 0x2
 542 007b 04       		.byte	0x4
 543 007c 04       		.byte	0x4
 544 007d 3A000000 		.4byte	.LASF9
 545 0081 02       		.uleb128 0x2
 546 0082 08       		.byte	0x8
 547 0083 04       		.byte	0x4
 548 0084 9B000000 		.4byte	.LASF10
 549 0088 02       		.uleb128 0x2
 550 0089 01       		.byte	0x1
 551 008a 08       		.byte	0x8
 552 008b 0A010000 		.4byte	.LASF11
 553 008f 04       		.uleb128 0x4
 554 0090 00000000 		.4byte	.LASF13
 555 0094 02       		.byte	0x2
 556 0095 F2       		.byte	0xf2
 557 0096 9A000000 		.4byte	0x9a
 558 009a 05       		.uleb128 0x5
 559 009b 6F000000 		.4byte	0x6f
 560 009f 02       		.uleb128 0x2
 561 00a0 04       		.byte	0x4
 562 00a1 07       		.byte	0x7
 563 00a2 E3000000 		.4byte	.LASF14
 564 00a6 06       		.uleb128 0x6
 565 00a7 04       		.byte	0x4
 566 00a8 88000000 		.4byte	0x88
ARM GAS  C:\Users\BJRN~1\AppData\Local\Temp\ccpG9JJD.s 			page 14


 567 00ac 07       		.uleb128 0x7
 568 00ad 01       		.byte	0x1
 569 00ae 28010000 		.4byte	.LASF27
 570 00b2 01       		.byte	0x1
 571 00b3 14       		.byte	0x14
 572 00b4 00000000 		.4byte	.LFB33
 573 00b8 1C000000 		.4byte	.LFE33
 574 00bc 00000000 		.4byte	.LLST0
 575 00c0 01       		.byte	0x1
 576 00c1 08       		.uleb128 0x8
 577 00c2 01       		.byte	0x1
 578 00c3 2F000000 		.4byte	.LASF28
 579 00c7 01       		.byte	0x1
 580 00c8 1F       		.byte	0x1f
 581 00c9 01       		.byte	0x1
 582 00ca 00000000 		.4byte	.LFB34
 583 00ce 58020000 		.4byte	.LFE34
 584 00d2 2C000000 		.4byte	.LLST1
 585 00d6 01       		.byte	0x1
 586 00d7 36010000 		.4byte	0x136
 587 00db 09       		.uleb128 0x9
 588 00dc 636D6400 		.ascii	"cmd\000"
 589 00e0 01       		.byte	0x1
 590 00e1 21       		.byte	0x21
 591 00e2 88000000 		.4byte	0x88
 592 00e6 02       		.byte	0x2
 593 00e7 91       		.byte	0x91
 594 00e8 67       		.sleb128 -25
 595 00e9 09       		.uleb128 0x9
 596 00ea 6900     		.ascii	"i\000"
 597 00ec 01       		.byte	0x1
 598 00ed 22       		.byte	0x22
 599 00ee 61000000 		.4byte	0x61
 600 00f2 02       		.byte	0x2
 601 00f3 91       		.byte	0x91
 602 00f4 6C       		.sleb128 -20
 603 00f5 09       		.uleb128 0x9
 604 00f6 6300     		.ascii	"c\000"
 605 00f8 01       		.byte	0x1
 606 00f9 23       		.byte	0x23
 607 00fa 68000000 		.4byte	0x68
 608 00fe 02       		.byte	0x2
 609 00ff 91       		.byte	0x91
 610 0100 68       		.sleb128 -24
 611 0101 0A       		.uleb128 0xa
 612 0102 72000000 		.4byte	.LBB2
 613 0106 22020000 		.4byte	.LBE2
 614 010a 0B       		.uleb128 0xb
 615 010b 25000000 		.4byte	.LASF15
 616 010f 01       		.byte	0x1
 617 0110 68       		.byte	0x68
 618 0111 7A000000 		.4byte	0x7a
 619 0115 02       		.byte	0x2
 620 0116 91       		.byte	0x91
 621 0117 60       		.sleb128 -32
 622 0118 0B       		.uleb128 0xb
 623 0119 40000000 		.4byte	.LASF16
ARM GAS  C:\Users\BJRN~1\AppData\Local\Temp\ccpG9JJD.s 			page 15


 624 011d 01       		.byte	0x1
 625 011e 69       		.byte	0x69
 626 011f 7A000000 		.4byte	0x7a
 627 0123 02       		.byte	0x2
 628 0124 91       		.byte	0x91
 629 0125 5C       		.sleb128 -36
 630 0126 09       		.uleb128 0x9
 631 0127 62756600 		.ascii	"buf\000"
 632 012b 01       		.byte	0x1
 633 012c 8B       		.byte	0x8b
 634 012d A6000000 		.4byte	0xa6
 635 0131 02       		.byte	0x2
 636 0132 91       		.byte	0x91
 637 0133 58       		.sleb128 -40
 638 0134 00       		.byte	0
 639 0135 00       		.byte	0
 640 0136 0C       		.uleb128 0xc
 641 0137 88000000 		.4byte	0x88
 642 013b 46010000 		.4byte	0x146
 643 013f 0D       		.uleb128 0xd
 644 0140 9F000000 		.4byte	0x9f
 645 0144 3F       		.byte	0x3f
 646 0145 00       		.byte	0
 647 0146 0E       		.uleb128 0xe
 648 0147 06000000 		.4byte	.LASF17
 649 014b 01       		.byte	0x1
 650 014c 0B       		.byte	0xb
 651 014d 36010000 		.4byte	0x136
 652 0151 01       		.byte	0x1
 653 0152 05       		.byte	0x5
 654 0153 03       		.byte	0x3
 655 0154 00000000 		.4byte	spiBuffer
 656 0158 0E       		.uleb128 0xe
 657 0159 58000000 		.4byte	.LASF18
 658 015d 01       		.byte	0x1
 659 015e 0C       		.byte	0xc
 660 015f 36010000 		.4byte	0x136
 661 0163 01       		.byte	0x1
 662 0164 05       		.byte	0x5
 663 0165 03       		.byte	0x3
 664 0166 00000000 		.4byte	spiTxBuffer
 665 016a 0E       		.uleb128 0xe
 666 016b 94000000 		.4byte	.LASF19
 667 016f 01       		.byte	0x1
 668 0170 0D       		.byte	0xd
 669 0171 88000000 		.4byte	0x88
 670 0175 01       		.byte	0x1
 671 0176 05       		.byte	0x5
 672 0177 03       		.byte	0x3
 673 0178 00000000 		.4byte	unitNo
 674 017c 0E       		.uleb128 0xe
 675 017d A2000000 		.4byte	.LASF20
 676 0181 01       		.byte	0x1
 677 0182 0E       		.byte	0xe
 678 0183 61000000 		.4byte	0x61
 679 0187 01       		.byte	0x1
 680 0188 05       		.byte	0x5
ARM GAS  C:\Users\BJRN~1\AppData\Local\Temp\ccpG9JJD.s 			page 16


 681 0189 03       		.byte	0x3
 682 018a 00000000 		.4byte	spiCounter
 683 018e 0E       		.uleb128 0xe
 684 018f 0F010000 		.4byte	.LASF21
 685 0193 01       		.byte	0x1
 686 0194 0F       		.byte	0xf
 687 0195 61000000 		.4byte	0x61
 688 0199 01       		.byte	0x1
 689 019a 05       		.byte	0x5
 690 019b 03       		.byte	0x3
 691 019c 00000000 		.4byte	spiReadCounter
 692 01a0 0F       		.uleb128 0xf
 693 01a1 6C656E00 		.ascii	"len\000"
 694 01a5 01       		.byte	0x1
 695 01a6 10       		.byte	0x10
 696 01a7 68000000 		.4byte	0x68
 697 01ab 01       		.byte	0x1
 698 01ac 05       		.byte	0x5
 699 01ad 03       		.byte	0x3
 700 01ae 00000000 		.4byte	len
 701 01b2 0C       		.uleb128 0xc
 702 01b3 88000000 		.4byte	0x88
 703 01b7 C2010000 		.4byte	0x1c2
 704 01bb 0D       		.uleb128 0xd
 705 01bc 9F000000 		.4byte	0x9f
 706 01c0 05       		.byte	0x5
 707 01c1 00       		.byte	0
 708 01c2 0E       		.uleb128 0xe
 709 01c3 89000000 		.4byte	.LASF22
 710 01c7 01       		.byte	0x1
 711 01c8 11       		.byte	0x11
 712 01c9 B2010000 		.4byte	0x1b2
 713 01cd 01       		.byte	0x1
 714 01ce 05       		.byte	0x5
 715 01cf 03       		.byte	0x3
 716 01d0 00000000 		.4byte	tempBuffer
 717 01d4 0C       		.uleb128 0xc
 718 01d5 88000000 		.4byte	0x88
 719 01d9 E4010000 		.4byte	0x1e4
 720 01dd 0D       		.uleb128 0xd
 721 01de 9F000000 		.4byte	0x9f
 722 01e2 03       		.byte	0x3
 723 01e3 00       		.byte	0
 724 01e4 0E       		.uleb128 0xe
 725 01e5 B4000000 		.4byte	.LASF23
 726 01e9 01       		.byte	0x1
 727 01ea 12       		.byte	0x12
 728 01eb D4010000 		.4byte	0x1d4
 729 01ef 01       		.byte	0x1
 730 01f0 05       		.byte	0x5
 731 01f1 03       		.byte	0x3
 732 01f2 00000000 		.4byte	humiBuffer
 733 01f6 00       		.byte	0
 734              		.section	.debug_abbrev,"",%progbits
 735              	.Ldebug_abbrev0:
 736 0000 01       		.uleb128 0x1
 737 0001 11       		.uleb128 0x11
ARM GAS  C:\Users\BJRN~1\AppData\Local\Temp\ccpG9JJD.s 			page 17


 738 0002 01       		.byte	0x1
 739 0003 25       		.uleb128 0x25
 740 0004 0E       		.uleb128 0xe
 741 0005 13       		.uleb128 0x13
 742 0006 0B       		.uleb128 0xb
 743 0007 03       		.uleb128 0x3
 744 0008 0E       		.uleb128 0xe
 745 0009 1B       		.uleb128 0x1b
 746 000a 0E       		.uleb128 0xe
 747 000b 55       		.uleb128 0x55
 748 000c 06       		.uleb128 0x6
 749 000d 11       		.uleb128 0x11
 750 000e 01       		.uleb128 0x1
 751 000f 52       		.uleb128 0x52
 752 0010 01       		.uleb128 0x1
 753 0011 10       		.uleb128 0x10
 754 0012 06       		.uleb128 0x6
 755 0013 00       		.byte	0
 756 0014 00       		.byte	0
 757 0015 02       		.uleb128 0x2
 758 0016 24       		.uleb128 0x24
 759 0017 00       		.byte	0
 760 0018 0B       		.uleb128 0xb
 761 0019 0B       		.uleb128 0xb
 762 001a 3E       		.uleb128 0x3e
 763 001b 0B       		.uleb128 0xb
 764 001c 03       		.uleb128 0x3
 765 001d 0E       		.uleb128 0xe
 766 001e 00       		.byte	0
 767 001f 00       		.byte	0
 768 0020 03       		.uleb128 0x3
 769 0021 24       		.uleb128 0x24
 770 0022 00       		.byte	0
 771 0023 0B       		.uleb128 0xb
 772 0024 0B       		.uleb128 0xb
 773 0025 3E       		.uleb128 0x3e
 774 0026 0B       		.uleb128 0xb
 775 0027 03       		.uleb128 0x3
 776 0028 08       		.uleb128 0x8
 777 0029 00       		.byte	0
 778 002a 00       		.byte	0
 779 002b 04       		.uleb128 0x4
 780 002c 16       		.uleb128 0x16
 781 002d 00       		.byte	0
 782 002e 03       		.uleb128 0x3
 783 002f 0E       		.uleb128 0xe
 784 0030 3A       		.uleb128 0x3a
 785 0031 0B       		.uleb128 0xb
 786 0032 3B       		.uleb128 0x3b
 787 0033 0B       		.uleb128 0xb
 788 0034 49       		.uleb128 0x49
 789 0035 13       		.uleb128 0x13
 790 0036 00       		.byte	0
 791 0037 00       		.byte	0
 792 0038 05       		.uleb128 0x5
 793 0039 35       		.uleb128 0x35
 794 003a 00       		.byte	0
ARM GAS  C:\Users\BJRN~1\AppData\Local\Temp\ccpG9JJD.s 			page 18


 795 003b 49       		.uleb128 0x49
 796 003c 13       		.uleb128 0x13
 797 003d 00       		.byte	0
 798 003e 00       		.byte	0
 799 003f 06       		.uleb128 0x6
 800 0040 0F       		.uleb128 0xf
 801 0041 00       		.byte	0
 802 0042 0B       		.uleb128 0xb
 803 0043 0B       		.uleb128 0xb
 804 0044 49       		.uleb128 0x49
 805 0045 13       		.uleb128 0x13
 806 0046 00       		.byte	0
 807 0047 00       		.byte	0
 808 0048 07       		.uleb128 0x7
 809 0049 2E       		.uleb128 0x2e
 810 004a 00       		.byte	0
 811 004b 3F       		.uleb128 0x3f
 812 004c 0C       		.uleb128 0xc
 813 004d 03       		.uleb128 0x3
 814 004e 0E       		.uleb128 0xe
 815 004f 3A       		.uleb128 0x3a
 816 0050 0B       		.uleb128 0xb
 817 0051 3B       		.uleb128 0x3b
 818 0052 0B       		.uleb128 0xb
 819 0053 11       		.uleb128 0x11
 820 0054 01       		.uleb128 0x1
 821 0055 12       		.uleb128 0x12
 822 0056 01       		.uleb128 0x1
 823 0057 40       		.uleb128 0x40
 824 0058 06       		.uleb128 0x6
 825 0059 9642     		.uleb128 0x2116
 826 005b 0C       		.uleb128 0xc
 827 005c 00       		.byte	0
 828 005d 00       		.byte	0
 829 005e 08       		.uleb128 0x8
 830 005f 2E       		.uleb128 0x2e
 831 0060 01       		.byte	0x1
 832 0061 3F       		.uleb128 0x3f
 833 0062 0C       		.uleb128 0xc
 834 0063 03       		.uleb128 0x3
 835 0064 0E       		.uleb128 0xe
 836 0065 3A       		.uleb128 0x3a
 837 0066 0B       		.uleb128 0xb
 838 0067 3B       		.uleb128 0x3b
 839 0068 0B       		.uleb128 0xb
 840 0069 27       		.uleb128 0x27
 841 006a 0C       		.uleb128 0xc
 842 006b 11       		.uleb128 0x11
 843 006c 01       		.uleb128 0x1
 844 006d 12       		.uleb128 0x12
 845 006e 01       		.uleb128 0x1
 846 006f 40       		.uleb128 0x40
 847 0070 06       		.uleb128 0x6
 848 0071 9642     		.uleb128 0x2116
 849 0073 0C       		.uleb128 0xc
 850 0074 01       		.uleb128 0x1
 851 0075 13       		.uleb128 0x13
ARM GAS  C:\Users\BJRN~1\AppData\Local\Temp\ccpG9JJD.s 			page 19


 852 0076 00       		.byte	0
 853 0077 00       		.byte	0
 854 0078 09       		.uleb128 0x9
 855 0079 34       		.uleb128 0x34
 856 007a 00       		.byte	0
 857 007b 03       		.uleb128 0x3
 858 007c 08       		.uleb128 0x8
 859 007d 3A       		.uleb128 0x3a
 860 007e 0B       		.uleb128 0xb
 861 007f 3B       		.uleb128 0x3b
 862 0080 0B       		.uleb128 0xb
 863 0081 49       		.uleb128 0x49
 864 0082 13       		.uleb128 0x13
 865 0083 02       		.uleb128 0x2
 866 0084 0A       		.uleb128 0xa
 867 0085 00       		.byte	0
 868 0086 00       		.byte	0
 869 0087 0A       		.uleb128 0xa
 870 0088 0B       		.uleb128 0xb
 871 0089 01       		.byte	0x1
 872 008a 11       		.uleb128 0x11
 873 008b 01       		.uleb128 0x1
 874 008c 12       		.uleb128 0x12
 875 008d 01       		.uleb128 0x1
 876 008e 00       		.byte	0
 877 008f 00       		.byte	0
 878 0090 0B       		.uleb128 0xb
 879 0091 34       		.uleb128 0x34
 880 0092 00       		.byte	0
 881 0093 03       		.uleb128 0x3
 882 0094 0E       		.uleb128 0xe
 883 0095 3A       		.uleb128 0x3a
 884 0096 0B       		.uleb128 0xb
 885 0097 3B       		.uleb128 0x3b
 886 0098 0B       		.uleb128 0xb
 887 0099 49       		.uleb128 0x49
 888 009a 13       		.uleb128 0x13
 889 009b 02       		.uleb128 0x2
 890 009c 0A       		.uleb128 0xa
 891 009d 00       		.byte	0
 892 009e 00       		.byte	0
 893 009f 0C       		.uleb128 0xc
 894 00a0 01       		.uleb128 0x1
 895 00a1 01       		.byte	0x1
 896 00a2 49       		.uleb128 0x49
 897 00a3 13       		.uleb128 0x13
 898 00a4 01       		.uleb128 0x1
 899 00a5 13       		.uleb128 0x13
 900 00a6 00       		.byte	0
 901 00a7 00       		.byte	0
 902 00a8 0D       		.uleb128 0xd
 903 00a9 21       		.uleb128 0x21
 904 00aa 00       		.byte	0
 905 00ab 49       		.uleb128 0x49
 906 00ac 13       		.uleb128 0x13
 907 00ad 2F       		.uleb128 0x2f
 908 00ae 0B       		.uleb128 0xb
ARM GAS  C:\Users\BJRN~1\AppData\Local\Temp\ccpG9JJD.s 			page 20


 909 00af 00       		.byte	0
 910 00b0 00       		.byte	0
 911 00b1 0E       		.uleb128 0xe
 912 00b2 34       		.uleb128 0x34
 913 00b3 00       		.byte	0
 914 00b4 03       		.uleb128 0x3
 915 00b5 0E       		.uleb128 0xe
 916 00b6 3A       		.uleb128 0x3a
 917 00b7 0B       		.uleb128 0xb
 918 00b8 3B       		.uleb128 0x3b
 919 00b9 0B       		.uleb128 0xb
 920 00ba 49       		.uleb128 0x49
 921 00bb 13       		.uleb128 0x13
 922 00bc 3F       		.uleb128 0x3f
 923 00bd 0C       		.uleb128 0xc
 924 00be 02       		.uleb128 0x2
 925 00bf 0A       		.uleb128 0xa
 926 00c0 00       		.byte	0
 927 00c1 00       		.byte	0
 928 00c2 0F       		.uleb128 0xf
 929 00c3 34       		.uleb128 0x34
 930 00c4 00       		.byte	0
 931 00c5 03       		.uleb128 0x3
 932 00c6 08       		.uleb128 0x8
 933 00c7 3A       		.uleb128 0x3a
 934 00c8 0B       		.uleb128 0xb
 935 00c9 3B       		.uleb128 0x3b
 936 00ca 0B       		.uleb128 0xb
 937 00cb 49       		.uleb128 0x49
 938 00cc 13       		.uleb128 0x13
 939 00cd 3F       		.uleb128 0x3f
 940 00ce 0C       		.uleb128 0xc
 941 00cf 02       		.uleb128 0x2
 942 00d0 0A       		.uleb128 0xa
 943 00d1 00       		.byte	0
 944 00d2 00       		.byte	0
 945 00d3 00       		.byte	0
 946              		.section	.debug_loc,"",%progbits
 947              	.Ldebug_loc0:
 948              	.LLST0:
 949 0000 00000000 		.4byte	.LFB33
 950 0004 02000000 		.4byte	.LCFI0
 951 0008 0200     		.2byte	0x2
 952 000a 7D       		.byte	0x7d
 953 000b 00       		.sleb128 0
 954 000c 02000000 		.4byte	.LCFI0
 955 0010 04000000 		.4byte	.LCFI1
 956 0014 0200     		.2byte	0x2
 957 0016 7D       		.byte	0x7d
 958 0017 08       		.sleb128 8
 959 0018 04000000 		.4byte	.LCFI1
 960 001c 1C000000 		.4byte	.LFE33
 961 0020 0200     		.2byte	0x2
 962 0022 77       		.byte	0x77
 963 0023 08       		.sleb128 8
 964 0024 00000000 		.4byte	0
 965 0028 00000000 		.4byte	0
ARM GAS  C:\Users\BJRN~1\AppData\Local\Temp\ccpG9JJD.s 			page 21


 966              	.LLST1:
 967 002c 00000000 		.4byte	.LFB34
 968 0030 02000000 		.4byte	.LCFI2
 969 0034 0200     		.2byte	0x2
 970 0036 7D       		.byte	0x7d
 971 0037 00       		.sleb128 0
 972 0038 02000000 		.4byte	.LCFI2
 973 003c 04000000 		.4byte	.LCFI3
 974 0040 0200     		.2byte	0x2
 975 0042 7D       		.byte	0x7d
 976 0043 0C       		.sleb128 12
 977 0044 04000000 		.4byte	.LCFI3
 978 0048 06000000 		.4byte	.LCFI4
 979 004c 0200     		.2byte	0x2
 980 004e 7D       		.byte	0x7d
 981 004f 28       		.sleb128 40
 982 0050 06000000 		.4byte	.LCFI4
 983 0054 58020000 		.4byte	.LFE34
 984 0058 0200     		.2byte	0x2
 985 005a 77       		.byte	0x77
 986 005b 28       		.sleb128 40
 987 005c 00000000 		.4byte	0
 988 0060 00000000 		.4byte	0
 989              		.section	.debug_aranges,"",%progbits
 990 0000 24000000 		.4byte	0x24
 991 0004 0200     		.2byte	0x2
 992 0006 00000000 		.4byte	.Ldebug_info0
 993 000a 04       		.byte	0x4
 994 000b 00       		.byte	0
 995 000c 0000     		.2byte	0
 996 000e 0000     		.2byte	0
 997 0010 00000000 		.4byte	.LFB33
 998 0014 1C000000 		.4byte	.LFE33-.LFB33
 999 0018 00000000 		.4byte	.LFB34
 1000 001c 58020000 		.4byte	.LFE34-.LFB34
 1001 0020 00000000 		.4byte	0
 1002 0024 00000000 		.4byte	0
 1003              		.section	.debug_ranges,"",%progbits
 1004              	.Ldebug_ranges0:
 1005 0000 00000000 		.4byte	.LFB33
 1006 0004 1C000000 		.4byte	.LFE33
 1007 0008 00000000 		.4byte	.LFB34
 1008 000c 58020000 		.4byte	.LFE34
 1009 0010 00000000 		.4byte	0
 1010 0014 00000000 		.4byte	0
 1011              		.section	.debug_line,"",%progbits
 1012              	.Ldebug_line0:
 1013 0000 E8000000 		.section	.debug_str,"MS",%progbits,1
 1013      02004C00 
 1013      00000201 
 1013      FB0E0D00 
 1013      01010101 
 1014              	.LASF13:
 1015 0000 72656733 		.ascii	"reg32\000"
 1015      3200
 1016              	.LASF17:
 1017 0006 73706942 		.ascii	"spiBuffer\000"
ARM GAS  C:\Users\BJRN~1\AppData\Local\Temp\ccpG9JJD.s 			page 22


 1017      75666665 
 1017      7200
 1018              	.LASF26:
 1019 0010 433A5C45 		.ascii	"C:\\Enhed\\Enhed.cydsn\000"
 1019      6E686564 
 1019      5C456E68 
 1019      65642E63 
 1019      7964736E 
 1020              	.LASF15:
 1021 0025 74656D70 		.ascii	"tempValue\000"
 1021      56616C75 
 1021      6500
 1022              	.LASF28:
 1023 002f 6973725F 		.ascii	"isr_spi_rx\000"
 1023      7370695F 
 1023      727800
 1024              	.LASF9:
 1025 003a 666C6F61 		.ascii	"float\000"
 1025      7400
 1026              	.LASF16:
 1027 0040 68756D69 		.ascii	"humiValue\000"
 1027      56616C75 
 1027      6500
 1028              	.LASF1:
 1029 004a 756E7369 		.ascii	"unsigned char\000"
 1029      676E6564 
 1029      20636861 
 1029      7200
 1030              	.LASF18:
 1031 0058 73706954 		.ascii	"spiTxBuffer\000"
 1031      78427566 
 1031      66657200 
 1032              	.LASF5:
 1033 0064 6C6F6E67 		.ascii	"long unsigned int\000"
 1033      20756E73 
 1033      69676E65 
 1033      6420696E 
 1033      7400
 1034              	.LASF3:
 1035 0076 73686F72 		.ascii	"short unsigned int\000"
 1035      7420756E 
 1035      7369676E 
 1035      65642069 
 1035      6E7400
 1036              	.LASF22:
 1037 0089 74656D70 		.ascii	"tempBuffer\000"
 1037      42756666 
 1037      657200
 1038              	.LASF19:
 1039 0094 756E6974 		.ascii	"unitNo\000"
 1039      4E6F00
 1040              	.LASF10:
 1041 009b 646F7562 		.ascii	"double\000"
 1041      6C6500
 1042              	.LASF20:
 1043 00a2 73706943 		.ascii	"spiCounter\000"
 1043      6F756E74 
ARM GAS  C:\Users\BJRN~1\AppData\Local\Temp\ccpG9JJD.s 			page 23


 1043      657200
 1044              	.LASF12:
 1045 00ad 75696E74 		.ascii	"uint32\000"
 1045      333200
 1046              	.LASF23:
 1047 00b4 68756D69 		.ascii	"humiBuffer\000"
 1047      42756666 
 1047      657200
 1048              	.LASF8:
 1049 00bf 756E7369 		.ascii	"unsigned int\000"
 1049      676E6564 
 1049      20696E74 
 1049      00
 1050              	.LASF7:
 1051 00cc 6C6F6E67 		.ascii	"long long unsigned int\000"
 1051      206C6F6E 
 1051      6720756E 
 1051      7369676E 
 1051      65642069 
 1052              	.LASF14:
 1053 00e3 73697A65 		.ascii	"sizetype\000"
 1053      74797065 
 1053      00
 1054              	.LASF6:
 1055 00ec 6C6F6E67 		.ascii	"long long int\000"
 1055      206C6F6E 
 1055      6720696E 
 1055      7400
 1056              	.LASF25:
 1057 00fa 2E5C7370 		.ascii	".\\spi_handler.c\000"
 1057      695F6861 
 1057      6E646C65 
 1057      722E6300 
 1058              	.LASF11:
 1059 010a 63686172 		.ascii	"char\000"
 1059      00
 1060              	.LASF21:
 1061 010f 73706952 		.ascii	"spiReadCounter\000"
 1061      65616443 
 1061      6F756E74 
 1061      657200
 1062              	.LASF2:
 1063 011e 73686F72 		.ascii	"short int\000"
 1063      7420696E 
 1063      7400
 1064              	.LASF27:
 1065 0128 7370695F 		.ascii	"spi_init\000"
 1065      696E6974 
 1065      00
 1066              	.LASF24:
 1067 0131 474E5520 		.ascii	"GNU C 4.7.3 20130312 (release) [ARM/embedded-4_7-br"
 1067      4320342E 
 1067      372E3320 
 1067      32303133 
 1067      30333132 
 1068 0164 616E6368 		.ascii	"anch revision 196615]\000"
 1068      20726576 
ARM GAS  C:\Users\BJRN~1\AppData\Local\Temp\ccpG9JJD.s 			page 24


 1068      6973696F 
 1068      6E203139 
 1068      36363135 
 1069              	.LASF4:
 1070 017a 6C6F6E67 		.ascii	"long int\000"
 1070      20696E74 
 1070      00
 1071              	.LASF0:
 1072 0183 7369676E 		.ascii	"signed char\000"
 1072      65642063 
 1072      68617200 
 1073              		.ident	"GCC: (GNU Tools for ARM Embedded Processors) 4.7.3 20130312 (release) [ARM/embedded-4_7-br
