ARM GAS  C:\Users\BJRN~1\AppData\Local\Temp\ccnncPHl.s 			page 1


   1              		.cpu cortex-m0
   2              		.fpu softvfp
   3              		.eabi_attribute 20, 1
   4              		.eabi_attribute 21, 1
   5              		.eabi_attribute 23, 3
   6              		.eabi_attribute 24, 1
   7              		.eabi_attribute 25, 1
   8              		.eabi_attribute 26, 1
   9              		.eabi_attribute 30, 6
  10              		.eabi_attribute 34, 0
  11              		.eabi_attribute 18, 4
  12              		.code	16
  13              		.file	"sprinkler.c"
  14              		.text
  15              	.Ltext0:
  16              		.cfi_sections	.debug_frame
  17              		.section	.text.sprinkler_init,"ax",%progbits
  18              		.align	2
  19              		.global	sprinkler_init
  20              		.code	16
  21              		.thumb_func
  22              		.type	sprinkler_init, %function
  23              	sprinkler_init:
  24              	.LFB33:
  25              		.file 1 ".\\sprinkler.c"
   1:.\sprinkler.c **** //sprinkler.c
   2:.\sprinkler.c **** //
   3:.\sprinkler.c **** //Authour: Jakob Schmidt
   4:.\sprinkler.c **** //Version: 1.0
   5:.\sprinkler.c **** //Date: 14-11-14
   6:.\sprinkler.c **** 
   7:.\sprinkler.c **** #include "sprinkler.h"
   8:.\sprinkler.c **** 
   9:.\sprinkler.c **** //Constructor implementation
  10:.\sprinkler.c **** void sprinkler_init()
  11:.\sprinkler.c **** {
  26              		.loc 1 11 0
  27              		.cfi_startproc
  28 0000 80B5     		push	{r7, lr}
  29              	.LCFI0:
  30              		.cfi_def_cfa_offset 8
  31              		.cfi_offset 7, -8
  32              		.cfi_offset 14, -4
  33 0002 00AF     		add	r7, sp, #0
  34              	.LCFI1:
  35              		.cfi_def_cfa_register 7
  12:.\sprinkler.c ****     //Do nothing
  13:.\sprinkler.c **** }
  36              		.loc 1 13 0
  37 0004 BD46     		mov	sp, r7
  38              		@ sp needed for prologue
  39 0006 80BD     		pop	{r7, pc}
  40              		.cfi_endproc
  41              	.LFE33:
  42              		.size	sprinkler_init, .-sprinkler_init
  43              		.section	.text.sprinkler_exit,"ax",%progbits
  44              		.align	2
ARM GAS  C:\Users\BJRN~1\AppData\Local\Temp\ccnncPHl.s 			page 2


  45              		.global	sprinkler_exit
  46              		.code	16
  47              		.thumb_func
  48              		.type	sprinkler_exit, %function
  49              	sprinkler_exit:
  50              	.LFB34:
  14:.\sprinkler.c **** 
  15:.\sprinkler.c **** void sprinkler_exit()
  16:.\sprinkler.c **** {
  51              		.loc 1 16 0
  52              		.cfi_startproc
  53 0000 80B5     		push	{r7, lr}
  54              	.LCFI2:
  55              		.cfi_def_cfa_offset 8
  56              		.cfi_offset 7, -8
  57              		.cfi_offset 14, -4
  58 0002 00AF     		add	r7, sp, #0
  59              	.LCFI3:
  60              		.cfi_def_cfa_register 7
  17:.\sprinkler.c ****     //Do nothing
  18:.\sprinkler.c **** }
  61              		.loc 1 18 0
  62 0004 BD46     		mov	sp, r7
  63              		@ sp needed for prologue
  64 0006 80BD     		pop	{r7, pc}
  65              		.cfi_endproc
  66              	.LFE34:
  67              		.size	sprinkler_exit, .-sprinkler_exit
  68              		.section	.text.sprinkler_setValue,"ax",%progbits
  69              		.align	2
  70              		.global	sprinkler_setValue
  71              		.code	16
  72              		.thumb_func
  73              		.type	sprinkler_setValue, %function
  74              	sprinkler_setValue:
  75              	.LFB35:
  19:.\sprinkler.c **** 
  20:.\sprinkler.c **** int sprinkler_setValue(unsigned char active)
  21:.\sprinkler.c **** {   
  76              		.loc 1 21 0
  77              		.cfi_startproc
  78 0000 80B5     		push	{r7, lr}
  79              	.LCFI4:
  80              		.cfi_def_cfa_offset 8
  81              		.cfi_offset 7, -8
  82              		.cfi_offset 14, -4
  83 0002 82B0     		sub	sp, sp, #8
  84              	.LCFI5:
  85              		.cfi_def_cfa_offset 16
  86 0004 00AF     		add	r7, sp, #0
  87              	.LCFI6:
  88              		.cfi_def_cfa_register 7
  89 0006 021C     		mov	r2, r0
  90 0008 FB1D     		add	r3, r7, #7
  91 000a 1A70     		strb	r2, [r3]
  22:.\sprinkler.c ****     if(active != 1 || active != 0)
  92              		.loc 1 22 0
ARM GAS  C:\Users\BJRN~1\AppData\Local\Temp\ccnncPHl.s 			page 3


  93 000c FB1D     		add	r3, r7, #7
  94 000e 1B78     		ldrb	r3, [r3]
  95 0010 012B     		cmp	r3, #1
  96 0012 03D1     		bne	.L4
  97              		.loc 1 22 0 is_stmt 0 discriminator 1
  98 0014 FB1D     		add	r3, r7, #7
  99 0016 1B78     		ldrb	r3, [r3]
 100 0018 002B     		cmp	r3, #0
 101 001a 02D0     		beq	.L5
 102              	.L4:
  23:.\sprinkler.c ****         return -16;
 103              		.loc 1 23 0 is_stmt 1
 104 001c 1023     		mov	r3, #16
 105 001e 5B42     		neg	r3, r3
 106 0020 00E0     		b	.L6
 107              	.L5:
  24:.\sprinkler.c ****     
  25:.\sprinkler.c ****     return 0;
 108              		.loc 1 25 0
 109 0022 0023     		mov	r3, #0
 110              	.L6:
  26:.\sprinkler.c **** }...
 111              		.loc 1 26 0
 112 0024 181C     		mov	r0, r3
 113 0026 BD46     		mov	sp, r7
 114 0028 02B0     		add	sp, sp, #8
 115              		@ sp needed for prologue
 116 002a 80BD     		pop	{r7, pc}
 117              		.cfi_endproc
 118              	.LFE35:
 119              		.size	sprinkler_setValue, .-sprinkler_setValue
 120              		.text
 121              	.Letext0: