ARM GAS  C:\Users\MICKKI~1\AppData\Local\Temp\ccu1L5tb.s 			page 1


   1              		.cpu cortex-m0
   2              		.fpu softvfp
   3              		.eabi_attribute 20, 1
   4              		.eabi_attribute 21, 1
   5              		.eabi_attribute 23, 3
   6              		.eabi_attribute 24, 1
   7              		.eabi_attribute 25, 1
   8              		.eabi_attribute 26, 1
   9              		.eabi_attribute 30, 6
  10              		.eabi_attribute 34, 0
  11              		.eabi_attribute 18, 4
  12              		.code	16
  13              		.file	"SPI_1_SPI.c"
  14              		.text
  15              	.Ltext0:
  16              		.cfi_sections	.debug_frame
  17              		.section	.text.SPI_1_SpiInit,"ax",%progbits
  18              		.align	2
  19              		.global	SPI_1_SpiInit
  20              		.code	16
  21              		.thumb_func
  22              		.type	SPI_1_SpiInit, %function
  23              	SPI_1_SpiInit:
  24              	.LFB0:
  25              		.file 1 ".\\Generated_Source\\PSoC4\\SPI_1_SPI.c"
   1:.\Generated_Source\PSoC4/SPI_1_SPI.c **** /*******************************************************************************
   2:.\Generated_Source\PSoC4/SPI_1_SPI.c **** * File Name: SPI_1_SPI.c
   3:.\Generated_Source\PSoC4/SPI_1_SPI.c **** * Version 1.20
   4:.\Generated_Source\PSoC4/SPI_1_SPI.c **** *
   5:.\Generated_Source\PSoC4/SPI_1_SPI.c **** * Description:
   6:.\Generated_Source\PSoC4/SPI_1_SPI.c **** *  This file provides the source code to the API for the SCB Component in
   7:.\Generated_Source\PSoC4/SPI_1_SPI.c **** *  SPI mode.
   8:.\Generated_Source\PSoC4/SPI_1_SPI.c **** *
   9:.\Generated_Source\PSoC4/SPI_1_SPI.c **** * Note:
  10:.\Generated_Source\PSoC4/SPI_1_SPI.c **** *
  11:.\Generated_Source\PSoC4/SPI_1_SPI.c **** *******************************************************************************
  12:.\Generated_Source\PSoC4/SPI_1_SPI.c **** * Copyright 2013-2014, Cypress Semiconductor Corporation.  All rights reserved.
  13:.\Generated_Source\PSoC4/SPI_1_SPI.c **** * You may use this file only in accordance with the license, terms, conditions,
  14:.\Generated_Source\PSoC4/SPI_1_SPI.c **** * disclaimers, and limitations in the end user license agreement accompanying
  15:.\Generated_Source\PSoC4/SPI_1_SPI.c **** * the software package with which this file was provided.
  16:.\Generated_Source\PSoC4/SPI_1_SPI.c **** *******************************************************************************/
  17:.\Generated_Source\PSoC4/SPI_1_SPI.c **** 
  18:.\Generated_Source\PSoC4/SPI_1_SPI.c **** #include "SPI_1_PVT.h"
  19:.\Generated_Source\PSoC4/SPI_1_SPI.c **** #include "SPI_1_SPI_UART_PVT.h"
  20:.\Generated_Source\PSoC4/SPI_1_SPI.c **** 
  21:.\Generated_Source\PSoC4/SPI_1_SPI.c **** #if(SPI_1_SCB_MODE_UNCONFIG_CONST_CFG)
  22:.\Generated_Source\PSoC4/SPI_1_SPI.c **** 
  23:.\Generated_Source\PSoC4/SPI_1_SPI.c ****     /***************************************
  24:.\Generated_Source\PSoC4/SPI_1_SPI.c ****     *  Config Structure Initialization
  25:.\Generated_Source\PSoC4/SPI_1_SPI.c ****     ***************************************/
  26:.\Generated_Source\PSoC4/SPI_1_SPI.c **** 
  27:.\Generated_Source\PSoC4/SPI_1_SPI.c ****     const SPI_1_SPI_INIT_STRUCT SPI_1_configSpi =
  28:.\Generated_Source\PSoC4/SPI_1_SPI.c ****     {
  29:.\Generated_Source\PSoC4/SPI_1_SPI.c ****         SPI_1_SPI_MODE,
  30:.\Generated_Source\PSoC4/SPI_1_SPI.c ****         SPI_1_SPI_SUB_MODE,
  31:.\Generated_Source\PSoC4/SPI_1_SPI.c ****         SPI_1_SPI_CLOCK_MODE,
  32:.\Generated_Source\PSoC4/SPI_1_SPI.c ****         SPI_1_SPI_OVS_FACTOR,
ARM GAS  C:\Users\MICKKI~1\AppData\Local\Temp\ccu1L5tb.s 			page 2


  33:.\Generated_Source\PSoC4/SPI_1_SPI.c ****         SPI_1_SPI_MEDIAN_FILTER_ENABLE,
  34:.\Generated_Source\PSoC4/SPI_1_SPI.c ****         SPI_1_SPI_LATE_MISO_SAMPLE_ENABLE,
  35:.\Generated_Source\PSoC4/SPI_1_SPI.c ****         SPI_1_SPI_WAKE_ENABLE,
  36:.\Generated_Source\PSoC4/SPI_1_SPI.c ****         SPI_1_SPI_RX_DATA_BITS_NUM,
  37:.\Generated_Source\PSoC4/SPI_1_SPI.c ****         SPI_1_SPI_TX_DATA_BITS_NUM,
  38:.\Generated_Source\PSoC4/SPI_1_SPI.c ****         SPI_1_SPI_BITS_ORDER,
  39:.\Generated_Source\PSoC4/SPI_1_SPI.c ****         SPI_1_SPI_TRANSFER_SEPARATION,
  40:.\Generated_Source\PSoC4/SPI_1_SPI.c ****         0u,
  41:.\Generated_Source\PSoC4/SPI_1_SPI.c ****         NULL,
  42:.\Generated_Source\PSoC4/SPI_1_SPI.c ****         0u,
  43:.\Generated_Source\PSoC4/SPI_1_SPI.c ****         NULL,
  44:.\Generated_Source\PSoC4/SPI_1_SPI.c ****         (uint32) SPI_1_SCB_IRQ_INTERNAL,
  45:.\Generated_Source\PSoC4/SPI_1_SPI.c ****         SPI_1_SPI_INTR_RX_MASK,
  46:.\Generated_Source\PSoC4/SPI_1_SPI.c ****         SPI_1_SPI_RX_TRIGGER_LEVEL,
  47:.\Generated_Source\PSoC4/SPI_1_SPI.c ****         SPI_1_SPI_INTR_TX_MASK,
  48:.\Generated_Source\PSoC4/SPI_1_SPI.c ****         SPI_1_SPI_TX_TRIGGER_LEVEL
  49:.\Generated_Source\PSoC4/SPI_1_SPI.c ****     };
  50:.\Generated_Source\PSoC4/SPI_1_SPI.c **** 
  51:.\Generated_Source\PSoC4/SPI_1_SPI.c **** 
  52:.\Generated_Source\PSoC4/SPI_1_SPI.c ****     /*******************************************************************************
  53:.\Generated_Source\PSoC4/SPI_1_SPI.c ****     * Function Name: SPI_1_SpiInit
  54:.\Generated_Source\PSoC4/SPI_1_SPI.c ****     ********************************************************************************
  55:.\Generated_Source\PSoC4/SPI_1_SPI.c ****     *
  56:.\Generated_Source\PSoC4/SPI_1_SPI.c ****     * Summary:
  57:.\Generated_Source\PSoC4/SPI_1_SPI.c ****     *  Configures the SCB for the SPI operation.
  58:.\Generated_Source\PSoC4/SPI_1_SPI.c ****     *
  59:.\Generated_Source\PSoC4/SPI_1_SPI.c ****     * Parameters:
  60:.\Generated_Source\PSoC4/SPI_1_SPI.c ****     *  config:  Pointer to a structure that contains the following ordered list of
  61:.\Generated_Source\PSoC4/SPI_1_SPI.c ****     *           fields. These fields match the selections available in the
  62:.\Generated_Source\PSoC4/SPI_1_SPI.c ****     *           customizer.
  63:.\Generated_Source\PSoC4/SPI_1_SPI.c ****     *
  64:.\Generated_Source\PSoC4/SPI_1_SPI.c ****     * Return:
  65:.\Generated_Source\PSoC4/SPI_1_SPI.c ****     *  None
  66:.\Generated_Source\PSoC4/SPI_1_SPI.c ****     *
  67:.\Generated_Source\PSoC4/SPI_1_SPI.c ****     *******************************************************************************/
  68:.\Generated_Source\PSoC4/SPI_1_SPI.c ****     void SPI_1_SpiInit(const SPI_1_SPI_INIT_STRUCT *config)
  69:.\Generated_Source\PSoC4/SPI_1_SPI.c ****     {
  70:.\Generated_Source\PSoC4/SPI_1_SPI.c ****         if(NULL == config)
  71:.\Generated_Source\PSoC4/SPI_1_SPI.c ****         {
  72:.\Generated_Source\PSoC4/SPI_1_SPI.c ****             CYASSERT(0u != 0u); /* Halt execution due to bad function parameter */
  73:.\Generated_Source\PSoC4/SPI_1_SPI.c ****         }
  74:.\Generated_Source\PSoC4/SPI_1_SPI.c ****         else
  75:.\Generated_Source\PSoC4/SPI_1_SPI.c ****         {
  76:.\Generated_Source\PSoC4/SPI_1_SPI.c ****             /* Configure pins */
  77:.\Generated_Source\PSoC4/SPI_1_SPI.c ****             SPI_1_SetPins(SPI_1_SCB_MODE_SPI, config->mode, SPI_1_DUMMY_PARAM);
  78:.\Generated_Source\PSoC4/SPI_1_SPI.c **** 
  79:.\Generated_Source\PSoC4/SPI_1_SPI.c ****             /* Store internal configuration */
  80:.\Generated_Source\PSoC4/SPI_1_SPI.c ****             SPI_1_scbMode       = (uint8) SPI_1_SCB_MODE_SPI;
  81:.\Generated_Source\PSoC4/SPI_1_SPI.c ****             SPI_1_scbEnableWake = (uint8) config->enableWake;
  82:.\Generated_Source\PSoC4/SPI_1_SPI.c ****             SPI_1_scbEnableIntr = (uint8) config->enableInterrupt;
  83:.\Generated_Source\PSoC4/SPI_1_SPI.c **** 
  84:.\Generated_Source\PSoC4/SPI_1_SPI.c ****             /* Set RX direction internal variables */
  85:.\Generated_Source\PSoC4/SPI_1_SPI.c ****             SPI_1_rxBuffer      =         config->rxBuffer;
  86:.\Generated_Source\PSoC4/SPI_1_SPI.c ****             SPI_1_rxDataBits    = (uint8) config->rxDataBits;
  87:.\Generated_Source\PSoC4/SPI_1_SPI.c ****             SPI_1_rxBufferSize  = (uint8) config->rxBufferSize;
  88:.\Generated_Source\PSoC4/SPI_1_SPI.c **** 
  89:.\Generated_Source\PSoC4/SPI_1_SPI.c ****             /* Set TX direction internal variables */
ARM GAS  C:\Users\MICKKI~1\AppData\Local\Temp\ccu1L5tb.s 			page 3


  90:.\Generated_Source\PSoC4/SPI_1_SPI.c ****             SPI_1_txBuffer      =         config->txBuffer;
  91:.\Generated_Source\PSoC4/SPI_1_SPI.c ****             SPI_1_txDataBits    = (uint8) config->txDataBits;
  92:.\Generated_Source\PSoC4/SPI_1_SPI.c ****             SPI_1_txBufferSize  = (uint8) config->txBufferSize;
  93:.\Generated_Source\PSoC4/SPI_1_SPI.c **** 
  94:.\Generated_Source\PSoC4/SPI_1_SPI.c ****             /* Configure SPI interface */
  95:.\Generated_Source\PSoC4/SPI_1_SPI.c ****             SPI_1_CTRL_REG     = SPI_1_GET_CTRL_OVS(config->oversample)        |
  96:.\Generated_Source\PSoC4/SPI_1_SPI.c ****                                             SPI_1_GET_CTRL_EC_AM_MODE(config->enableWake) |
  97:.\Generated_Source\PSoC4/SPI_1_SPI.c ****                                             SPI_1_CTRL_SPI;
  98:.\Generated_Source\PSoC4/SPI_1_SPI.c **** 
  99:.\Generated_Source\PSoC4/SPI_1_SPI.c ****             SPI_1_SPI_CTRL_REG = SPI_1_GET_SPI_CTRL_CONTINUOUS    (config->transferSeperation)  |
 100:.\Generated_Source\PSoC4/SPI_1_SPI.c ****                                             SPI_1_GET_SPI_CTRL_SELECT_PRECEDE(config->submode &
 101:.\Generated_Source\PSoC4/SPI_1_SPI.c ****                                                                           SPI_1_SPI_MODE_TI_PRECEDE
 102:.\Generated_Source\PSoC4/SPI_1_SPI.c ****                                             SPI_1_GET_SPI_CTRL_SCLK_MODE     (config->sclkMode)    
 103:.\Generated_Source\PSoC4/SPI_1_SPI.c ****                                             SPI_1_GET_SPI_CTRL_LATE_MISO_SAMPLE(config->enableLateS
 104:.\Generated_Source\PSoC4/SPI_1_SPI.c ****                                             SPI_1_GET_SPI_CTRL_SUB_MODE      (config->submode)     
 105:.\Generated_Source\PSoC4/SPI_1_SPI.c ****                                             SPI_1_GET_SPI_CTRL_MASTER_MODE   (config->mode);
 106:.\Generated_Source\PSoC4/SPI_1_SPI.c **** 
 107:.\Generated_Source\PSoC4/SPI_1_SPI.c ****             /* Configure RX direction */
 108:.\Generated_Source\PSoC4/SPI_1_SPI.c ****             SPI_1_RX_CTRL_REG     =  SPI_1_GET_RX_CTRL_DATA_WIDTH(config->rxDataBits)         |
 109:.\Generated_Source\PSoC4/SPI_1_SPI.c ****                                                 SPI_1_GET_RX_CTRL_BIT_ORDER (config->bitOrder)     
 110:.\Generated_Source\PSoC4/SPI_1_SPI.c ****                                                 SPI_1_GET_RX_CTRL_MEDIAN    (config->enableMedianFi
 111:.\Generated_Source\PSoC4/SPI_1_SPI.c ****                                                 SPI_1_SPI_RX_CTRL;
 112:.\Generated_Source\PSoC4/SPI_1_SPI.c **** 
 113:.\Generated_Source\PSoC4/SPI_1_SPI.c ****             SPI_1_RX_FIFO_CTRL_REG = SPI_1_GET_RX_FIFO_CTRL_TRIGGER_LEVEL(config->rxTriggerLevel);
 114:.\Generated_Source\PSoC4/SPI_1_SPI.c **** 
 115:.\Generated_Source\PSoC4/SPI_1_SPI.c ****             /* Configure TX direction */
 116:.\Generated_Source\PSoC4/SPI_1_SPI.c ****             SPI_1_TX_CTRL_REG      = SPI_1_GET_TX_CTRL_DATA_WIDTH(config->txDataBits) |
 117:.\Generated_Source\PSoC4/SPI_1_SPI.c ****                                                 SPI_1_GET_TX_CTRL_BIT_ORDER (config->bitOrder)   |
 118:.\Generated_Source\PSoC4/SPI_1_SPI.c ****                                                 SPI_1_SPI_TX_CTRL;
 119:.\Generated_Source\PSoC4/SPI_1_SPI.c **** 
 120:.\Generated_Source\PSoC4/SPI_1_SPI.c ****             SPI_1_TX_FIFO_CTRL_REG = SPI_1_GET_TX_FIFO_CTRL_TRIGGER_LEVEL(config->txTriggerLevel);
 121:.\Generated_Source\PSoC4/SPI_1_SPI.c **** 
 122:.\Generated_Source\PSoC4/SPI_1_SPI.c ****             /* Configure interrupt with SPI handler but do not enable it */
 123:.\Generated_Source\PSoC4/SPI_1_SPI.c ****             CyIntDisable    (SPI_1_ISR_NUMBER);
 124:.\Generated_Source\PSoC4/SPI_1_SPI.c ****             CyIntSetPriority(SPI_1_ISR_NUMBER, SPI_1_ISR_PRIORITY);
 125:.\Generated_Source\PSoC4/SPI_1_SPI.c ****             (void) CyIntSetVector(SPI_1_ISR_NUMBER, &SPI_1_SPI_UART_ISR);
 126:.\Generated_Source\PSoC4/SPI_1_SPI.c **** 
 127:.\Generated_Source\PSoC4/SPI_1_SPI.c ****             /* Configure interrupt sources */
 128:.\Generated_Source\PSoC4/SPI_1_SPI.c ****             SPI_1_INTR_I2C_EC_MASK_REG = SPI_1_NO_INTR_SOURCES;
 129:.\Generated_Source\PSoC4/SPI_1_SPI.c ****             SPI_1_INTR_SPI_EC_MASK_REG = SPI_1_NO_INTR_SOURCES;
 130:.\Generated_Source\PSoC4/SPI_1_SPI.c ****             SPI_1_INTR_SLAVE_MASK_REG  = SPI_1_GET_SPI_INTR_SLAVE_MASK(config->rxInterruptMask);
 131:.\Generated_Source\PSoC4/SPI_1_SPI.c ****             SPI_1_INTR_MASTER_MASK_REG = SPI_1_GET_SPI_INTR_MASTER_MASK(config->txInterruptMask);
 132:.\Generated_Source\PSoC4/SPI_1_SPI.c ****             SPI_1_INTR_RX_MASK_REG     = SPI_1_GET_SPI_INTR_RX_MASK(config->rxInterruptMask);
 133:.\Generated_Source\PSoC4/SPI_1_SPI.c ****             SPI_1_INTR_TX_MASK_REG     = SPI_1_GET_SPI_INTR_TX_MASK(config->txInterruptMask);
 134:.\Generated_Source\PSoC4/SPI_1_SPI.c **** 
 135:.\Generated_Source\PSoC4/SPI_1_SPI.c ****             /* Clear RX buffer indexes */
 136:.\Generated_Source\PSoC4/SPI_1_SPI.c ****             SPI_1_rxBufferHead     = 0u;
 137:.\Generated_Source\PSoC4/SPI_1_SPI.c ****             SPI_1_rxBufferTail     = 0u;
 138:.\Generated_Source\PSoC4/SPI_1_SPI.c ****             SPI_1_rxBufferOverflow = 0u;
 139:.\Generated_Source\PSoC4/SPI_1_SPI.c **** 
 140:.\Generated_Source\PSoC4/SPI_1_SPI.c ****             /* Clrea TX buffer indexes */
 141:.\Generated_Source\PSoC4/SPI_1_SPI.c ****             SPI_1_txBufferHead = 0u;
 142:.\Generated_Source\PSoC4/SPI_1_SPI.c ****             SPI_1_txBufferTail = 0u;
 143:.\Generated_Source\PSoC4/SPI_1_SPI.c ****         }
 144:.\Generated_Source\PSoC4/SPI_1_SPI.c ****     }
 145:.\Generated_Source\PSoC4/SPI_1_SPI.c **** 
 146:.\Generated_Source\PSoC4/SPI_1_SPI.c **** #else
ARM GAS  C:\Users\MICKKI~1\AppData\Local\Temp\ccu1L5tb.s 			page 4


 147:.\Generated_Source\PSoC4/SPI_1_SPI.c **** 
 148:.\Generated_Source\PSoC4/SPI_1_SPI.c ****     /*******************************************************************************
 149:.\Generated_Source\PSoC4/SPI_1_SPI.c ****     * Function Name: SPI_1_SpiInit
 150:.\Generated_Source\PSoC4/SPI_1_SPI.c ****     ********************************************************************************
 151:.\Generated_Source\PSoC4/SPI_1_SPI.c ****     *
 152:.\Generated_Source\PSoC4/SPI_1_SPI.c ****     * Summary:
 153:.\Generated_Source\PSoC4/SPI_1_SPI.c ****     *  Configures the SCB for the SPI operation.
 154:.\Generated_Source\PSoC4/SPI_1_SPI.c ****     *
 155:.\Generated_Source\PSoC4/SPI_1_SPI.c ****     * Parameters:
 156:.\Generated_Source\PSoC4/SPI_1_SPI.c ****     *  None
 157:.\Generated_Source\PSoC4/SPI_1_SPI.c ****     *
 158:.\Generated_Source\PSoC4/SPI_1_SPI.c ****     * Return:
 159:.\Generated_Source\PSoC4/SPI_1_SPI.c ****     *  None
 160:.\Generated_Source\PSoC4/SPI_1_SPI.c ****     *
 161:.\Generated_Source\PSoC4/SPI_1_SPI.c ****     *******************************************************************************/
 162:.\Generated_Source\PSoC4/SPI_1_SPI.c ****     void SPI_1_SpiInit(void)
 163:.\Generated_Source\PSoC4/SPI_1_SPI.c ****     {
  26              		.loc 1 163 0
  27              		.cfi_startproc
  28 0000 80B5     		push	{r7, lr}
  29              	.LCFI0:
  30              		.cfi_def_cfa_offset 8
  31              		.cfi_offset 7, -8
  32              		.cfi_offset 14, -4
  33 0002 00AF     		add	r7, sp, #0
  34              	.LCFI1:
  35              		.cfi_def_cfa_register 7
 164:.\Generated_Source\PSoC4/SPI_1_SPI.c ****         /* Configure SPI interface */
 165:.\Generated_Source\PSoC4/SPI_1_SPI.c ****         SPI_1_CTRL_REG     = SPI_1_SPI_DEFAULT_CTRL;
  36              		.loc 1 165 0
  37 0004 124B     		ldr	r3, .L2
  38 0006 134A     		ldr	r2, .L2+4
  39 0008 1A60     		str	r2, [r3]
 166:.\Generated_Source\PSoC4/SPI_1_SPI.c ****         SPI_1_SPI_CTRL_REG = SPI_1_SPI_DEFAULT_SPI_CTRL;
  40              		.loc 1 166 0
  41 000a 134B     		ldr	r3, .L2+8
  42 000c 0122     		mov	r2, #1
  43 000e 1A60     		str	r2, [r3]
 167:.\Generated_Source\PSoC4/SPI_1_SPI.c **** 
 168:.\Generated_Source\PSoC4/SPI_1_SPI.c ****         /* Configure TX and RX direction */
 169:.\Generated_Source\PSoC4/SPI_1_SPI.c ****         SPI_1_RX_CTRL_REG      = SPI_1_SPI_DEFAULT_RX_CTRL;
  44              		.loc 1 169 0
  45 0010 124B     		ldr	r3, .L2+12
  46 0012 134A     		ldr	r2, .L2+16
  47 0014 1A60     		str	r2, [r3]
 170:.\Generated_Source\PSoC4/SPI_1_SPI.c ****         SPI_1_RX_FIFO_CTRL_REG = SPI_1_SPI_DEFAULT_RX_FIFO_CTRL;
  48              		.loc 1 170 0
  49 0016 134B     		ldr	r3, .L2+20
  50 0018 0722     		mov	r2, #7
  51 001a 1A60     		str	r2, [r3]
 171:.\Generated_Source\PSoC4/SPI_1_SPI.c **** 
 172:.\Generated_Source\PSoC4/SPI_1_SPI.c ****         /* Configure TX and RX direction */
 173:.\Generated_Source\PSoC4/SPI_1_SPI.c ****         SPI_1_TX_CTRL_REG      = SPI_1_SPI_DEFAULT_TX_CTRL;
  52              		.loc 1 173 0
  53 001c 124B     		ldr	r3, .L2+24
  54 001e 104A     		ldr	r2, .L2+16
  55 0020 1A60     		str	r2, [r3]
ARM GAS  C:\Users\MICKKI~1\AppData\Local\Temp\ccu1L5tb.s 			page 5


 174:.\Generated_Source\PSoC4/SPI_1_SPI.c ****         SPI_1_TX_FIFO_CTRL_REG = SPI_1_SPI_DEFAULT_TX_FIFO_CTRL;
  56              		.loc 1 174 0
  57 0022 124B     		ldr	r3, .L2+28
  58 0024 0022     		mov	r2, #0
  59 0026 1A60     		str	r2, [r3]
 175:.\Generated_Source\PSoC4/SPI_1_SPI.c **** 
 176:.\Generated_Source\PSoC4/SPI_1_SPI.c ****         /* Configure interrupt with SPI handler but do not enable it */
 177:.\Generated_Source\PSoC4/SPI_1_SPI.c ****     #if(SPI_1_SCB_IRQ_INTERNAL)
 178:.\Generated_Source\PSoC4/SPI_1_SPI.c ****             CyIntDisable    (SPI_1_ISR_NUMBER);
 179:.\Generated_Source\PSoC4/SPI_1_SPI.c ****             CyIntSetPriority(SPI_1_ISR_NUMBER, SPI_1_ISR_PRIORITY);
 180:.\Generated_Source\PSoC4/SPI_1_SPI.c ****             (void) CyIntSetVector(SPI_1_ISR_NUMBER, &SPI_1_SPI_UART_ISR);
 181:.\Generated_Source\PSoC4/SPI_1_SPI.c ****     #endif /* (SPI_1_SCB_IRQ_INTERNAL) */
 182:.\Generated_Source\PSoC4/SPI_1_SPI.c **** 
 183:.\Generated_Source\PSoC4/SPI_1_SPI.c ****         /* Configure interrupt sources */
 184:.\Generated_Source\PSoC4/SPI_1_SPI.c ****         SPI_1_INTR_I2C_EC_MASK_REG = SPI_1_SPI_DEFAULT_INTR_I2C_EC_MASK;
  60              		.loc 1 184 0
  61 0028 114B     		ldr	r3, .L2+32
  62 002a 0022     		mov	r2, #0
  63 002c 1A60     		str	r2, [r3]
 185:.\Generated_Source\PSoC4/SPI_1_SPI.c ****         SPI_1_INTR_SPI_EC_MASK_REG = SPI_1_SPI_DEFAULT_INTR_SPI_EC_MASK;
  64              		.loc 1 185 0
  65 002e 114B     		ldr	r3, .L2+36
  66 0030 0022     		mov	r2, #0
  67 0032 1A60     		str	r2, [r3]
 186:.\Generated_Source\PSoC4/SPI_1_SPI.c ****         SPI_1_INTR_SLAVE_MASK_REG  = SPI_1_SPI_DEFAULT_INTR_SLAVE_MASK;
  68              		.loc 1 186 0
  69 0034 104B     		ldr	r3, .L2+40
  70 0036 0022     		mov	r2, #0
  71 0038 1A60     		str	r2, [r3]
 187:.\Generated_Source\PSoC4/SPI_1_SPI.c ****         SPI_1_INTR_MASTER_MASK_REG = SPI_1_SPI_DEFAULT_INTR_MASTER_MASK;
  72              		.loc 1 187 0
  73 003a 104B     		ldr	r3, .L2+44
  74 003c 0022     		mov	r2, #0
  75 003e 1A60     		str	r2, [r3]
 188:.\Generated_Source\PSoC4/SPI_1_SPI.c ****         SPI_1_INTR_RX_MASK_REG     = SPI_1_SPI_DEFAULT_INTR_RX_MASK;
  76              		.loc 1 188 0
  77 0040 0F4B     		ldr	r3, .L2+48
  78 0042 0022     		mov	r2, #0
  79 0044 1A60     		str	r2, [r3]
 189:.\Generated_Source\PSoC4/SPI_1_SPI.c ****         SPI_1_INTR_TX_MASK_REG     = SPI_1_SPI_DEFAULT_INTR_TX_MASK;
  80              		.loc 1 189 0
  81 0046 0F4B     		ldr	r3, .L2+52
  82 0048 0022     		mov	r2, #0
  83 004a 1A60     		str	r2, [r3]
 190:.\Generated_Source\PSoC4/SPI_1_SPI.c **** 
 191:.\Generated_Source\PSoC4/SPI_1_SPI.c ****     #if(SPI_1_INTERNAL_RX_SW_BUFFER_CONST)
 192:.\Generated_Source\PSoC4/SPI_1_SPI.c ****         SPI_1_rxBufferHead     = 0u;
 193:.\Generated_Source\PSoC4/SPI_1_SPI.c ****         SPI_1_rxBufferTail     = 0u;
 194:.\Generated_Source\PSoC4/SPI_1_SPI.c ****         SPI_1_rxBufferOverflow = 0u;
 195:.\Generated_Source\PSoC4/SPI_1_SPI.c ****     #endif /* (SPI_1_INTERNAL_RX_SW_BUFFER_CONST) */
 196:.\Generated_Source\PSoC4/SPI_1_SPI.c **** 
 197:.\Generated_Source\PSoC4/SPI_1_SPI.c ****     #if(SPI_1_INTERNAL_TX_SW_BUFFER_CONST)
 198:.\Generated_Source\PSoC4/SPI_1_SPI.c ****         SPI_1_txBufferHead = 0u;
 199:.\Generated_Source\PSoC4/SPI_1_SPI.c ****         SPI_1_txBufferTail = 0u;
 200:.\Generated_Source\PSoC4/SPI_1_SPI.c ****     #endif /* (SPI_1_INTERNAL_TX_SW_BUFFER_CONST) */
 201:.\Generated_Source\PSoC4/SPI_1_SPI.c ****     }
  84              		.loc 1 201 0
ARM GAS  C:\Users\MICKKI~1\AppData\Local\Temp\ccu1L5tb.s 			page 6


  85 004c BD46     		mov	sp, r7
  86              		@ sp needed for prologue
  87 004e 80BD     		pop	{r7, pc}
  88              	.L3:
  89              		.align	2
  90              	.L2:
  91 0050 00000640 		.word	1074135040
  92 0054 0F000001 		.word	16777231
  93 0058 20000640 		.word	1074135072
  94 005c 00030640 		.word	1074135808
  95 0060 07010080 		.word	-2147483385
  96 0064 04030640 		.word	1074135812
  97 0068 00020640 		.word	1074135552
  98 006c 04020640 		.word	1074135556
  99 0070 880E0640 		.word	1074138760
 100 0074 C80E0640 		.word	1074138824
 101 0078 480F0640 		.word	1074138952
 102 007c 080F0640 		.word	1074138888
 103 0080 C80F0640 		.word	1074139080
 104 0084 880F0640 		.word	1074139016
 105              		.cfi_endproc
 106              	.LFE0:
 107              		.size	SPI_1_SpiInit, .-SPI_1_SpiInit
 108              		.section	.text.SPI_1_SpiSetActiveSlaveSelect,"ax",%progbits
 109              		.align	2
 110              		.global	SPI_1_SpiSetActiveSlaveSelect
 111              		.code	16
 112              		.thumb_func
 113              		.type	SPI_1_SpiSetActiveSlaveSelect, %function
 114              	SPI_1_SpiSetActiveSlaveSelect:
 115              	.LFB1:
 202:.\Generated_Source\PSoC4/SPI_1_SPI.c **** #endif /* (SPI_1_SCB_MODE_UNCONFIG_CONST_CFG) */
 203:.\Generated_Source\PSoC4/SPI_1_SPI.c **** 
 204:.\Generated_Source\PSoC4/SPI_1_SPI.c **** 
 205:.\Generated_Source\PSoC4/SPI_1_SPI.c **** /*******************************************************************************
 206:.\Generated_Source\PSoC4/SPI_1_SPI.c **** * Function Name: SPI_1_SetActiveSlaveSelect
 207:.\Generated_Source\PSoC4/SPI_1_SPI.c **** ********************************************************************************
 208:.\Generated_Source\PSoC4/SPI_1_SPI.c **** *
 209:.\Generated_Source\PSoC4/SPI_1_SPI.c **** * Summary:
 210:.\Generated_Source\PSoC4/SPI_1_SPI.c **** *  Selects one of the four SPI slave select signals.
 211:.\Generated_Source\PSoC4/SPI_1_SPI.c **** *  The component should be in one of the following states to change the active
 212:.\Generated_Source\PSoC4/SPI_1_SPI.c **** *  slave select signal source correctly:
 213:.\Generated_Source\PSoC4/SPI_1_SPI.c **** *   - the component is disabled
 214:.\Generated_Source\PSoC4/SPI_1_SPI.c **** *   - the component has completed all transactions (TX FIFO is empty and the
 215:.\Generated_Source\PSoC4/SPI_1_SPI.c **** *     SpiDone flag is set)
 216:.\Generated_Source\PSoC4/SPI_1_SPI.c **** *  This function does not check that these conditions have been met.
 217:.\Generated_Source\PSoC4/SPI_1_SPI.c **** *  At the initialization time the active slave select line is slave select 0.
 218:.\Generated_Source\PSoC4/SPI_1_SPI.c **** *
 219:.\Generated_Source\PSoC4/SPI_1_SPI.c **** * Parameters:
 220:.\Generated_Source\PSoC4/SPI_1_SPI.c **** *  activeSelect: The four lines are available to utilize the Slave Select function.
 221:.\Generated_Source\PSoC4/SPI_1_SPI.c **** *
 222:.\Generated_Source\PSoC4/SPI_1_SPI.c **** * Return:
 223:.\Generated_Source\PSoC4/SPI_1_SPI.c **** *  None
 224:.\Generated_Source\PSoC4/SPI_1_SPI.c **** *
 225:.\Generated_Source\PSoC4/SPI_1_SPI.c **** *******************************************************************************/
 226:.\Generated_Source\PSoC4/SPI_1_SPI.c **** void SPI_1_SpiSetActiveSlaveSelect(uint32 activeSelect)
 227:.\Generated_Source\PSoC4/SPI_1_SPI.c **** {
ARM GAS  C:\Users\MICKKI~1\AppData\Local\Temp\ccu1L5tb.s 			page 7


 116              		.loc 1 227 0
 117              		.cfi_startproc
 118 0000 80B5     		push	{r7, lr}
 119              	.LCFI2:
 120              		.cfi_def_cfa_offset 8
 121              		.cfi_offset 7, -8
 122              		.cfi_offset 14, -4
 123 0002 84B0     		sub	sp, sp, #16
 124              	.LCFI3:
 125              		.cfi_def_cfa_offset 24
 126 0004 00AF     		add	r7, sp, #0
 127              	.LCFI4:
 128              		.cfi_def_cfa_register 7
 129 0006 7860     		str	r0, [r7, #4]
 228:.\Generated_Source\PSoC4/SPI_1_SPI.c ****     uint32 spiCtrl;
 229:.\Generated_Source\PSoC4/SPI_1_SPI.c **** 
 230:.\Generated_Source\PSoC4/SPI_1_SPI.c ****     spiCtrl = SPI_1_SPI_CTRL_REG;
 130              		.loc 1 230 0
 131 0008 0A4B     		ldr	r3, .L5
 132 000a 1B68     		ldr	r3, [r3]
 133 000c FB60     		str	r3, [r7, #12]
 231:.\Generated_Source\PSoC4/SPI_1_SPI.c **** 
 232:.\Generated_Source\PSoC4/SPI_1_SPI.c ****     spiCtrl &= (uint32) ~SPI_1_SPI_CTRL_SLAVE_SELECT_MASK;
 134              		.loc 1 232 0
 135 000e FA68     		ldr	r2, [r7, #12]
 136 0010 094B     		ldr	r3, .L5+4
 137 0012 1340     		and	r3, r2
 138 0014 FB60     		str	r3, [r7, #12]
 233:.\Generated_Source\PSoC4/SPI_1_SPI.c ****     spiCtrl |= (uint32)  SPI_1_GET_SPI_CTRL_SS(activeSelect);
 139              		.loc 1 233 0
 140 0016 7B68     		ldr	r3, [r7, #4]
 141 0018 9A06     		lsl	r2, r3, #26
 142 001a C023     		mov	r3, #192
 143 001c 1B05     		lsl	r3, r3, #20
 144 001e 1340     		and	r3, r2
 145 0020 FA68     		ldr	r2, [r7, #12]
 146 0022 1343     		orr	r3, r2
 147 0024 FB60     		str	r3, [r7, #12]
 234:.\Generated_Source\PSoC4/SPI_1_SPI.c **** 
 235:.\Generated_Source\PSoC4/SPI_1_SPI.c ****     SPI_1_SPI_CTRL_REG = spiCtrl;
 148              		.loc 1 235 0
 149 0026 034B     		ldr	r3, .L5
 150 0028 FA68     		ldr	r2, [r7, #12]
 151 002a 1A60     		str	r2, [r3]
 236:.\Generated_Source\PSoC4/SPI_1_SPI.c **** }
 152              		.loc 1 236 0
 153 002c BD46     		mov	sp, r7
 154 002e 04B0     		add	sp, sp, #16
 155              		@ sp needed for prologue
 156 0030 80BD     		pop	{r7, pc}
 157              	.L6:
 158 0032 C046     		.align	2
 159              	.L5:
 160 0034 20000640 		.word	1074135072
 161 0038 FFFFFFF3 		.word	-201326593
 162              		.cfi_endproc
 163              	.LFE1:
ARM GAS  C:\Users\MICKKI~1\AppData\Local\Temp\ccu1L5tb.s 			page 8


 164              		.size	SPI_1_SpiSetActiveSlaveSelect, .-SPI_1_SpiSetActiveSlaveSelect
 165              		.text
 166              	.Letext0:
 167              		.file 2 "./Generated_Source/PSoC4/cytypes.h"