ARM GAS  C:\Users\BJRN~1\AppData\Local\Temp\ccTGIXHQ.s 			page 1


   1              		.cpu cortex-m0
   2              		.fpu softvfp
   3              		.eabi_attribute 20, 1
   4              		.eabi_attribute 21, 1
   5              		.eabi_attribute 23, 3
   6              		.eabi_attribute 24, 1
   7              		.eabi_attribute 25, 1
   8              		.eabi_attribute 26, 1
   9              		.eabi_attribute 30, 6
  10              		.eabi_attribute 34, 0
  11              		.eabi_attribute 18, 4
  12              		.code	16
  13              		.file	"Timer_PM.c"
  14              		.text
  15              	.Ltext0:
  16              		.cfi_sections	.debug_frame
  17              		.bss
  18              		.align	2
  19              	Timer_backup:
  20 0000 00000000 		.space	12
  20      00000000 
  20      00000000 
  21              		.section	.text.Timer_SaveConfig,"ax",%progbits
  22              		.align	2
  23              		.global	Timer_SaveConfig
  24              		.code	16
  25              		.thumb_func
  26              		.type	Timer_SaveConfig, %function
  27              	Timer_SaveConfig:
  28              	.LFB0:
  29              		.file 1 ".\\Generated_Source\\PSoC4\\Timer_PM.c"
   1:.\Generated_Source\PSoC4/Timer_PM.c **** /*******************************************************************************
   2:.\Generated_Source\PSoC4/Timer_PM.c **** * File Name: Timer_PM.c
   3:.\Generated_Source\PSoC4/Timer_PM.c **** * Version 2.50
   4:.\Generated_Source\PSoC4/Timer_PM.c **** *
   5:.\Generated_Source\PSoC4/Timer_PM.c **** *  Description:
   6:.\Generated_Source\PSoC4/Timer_PM.c **** *     This file provides the power management source code to API for the
   7:.\Generated_Source\PSoC4/Timer_PM.c **** *     Timer.
   8:.\Generated_Source\PSoC4/Timer_PM.c **** *
   9:.\Generated_Source\PSoC4/Timer_PM.c **** *   Note:
  10:.\Generated_Source\PSoC4/Timer_PM.c **** *     None
  11:.\Generated_Source\PSoC4/Timer_PM.c **** *
  12:.\Generated_Source\PSoC4/Timer_PM.c **** *******************************************************************************
  13:.\Generated_Source\PSoC4/Timer_PM.c **** * Copyright 2008-2012, Cypress Semiconductor Corporation.  All rights reserved.
  14:.\Generated_Source\PSoC4/Timer_PM.c **** * You may use this file only in accordance with the license, terms, conditions,
  15:.\Generated_Source\PSoC4/Timer_PM.c **** * disclaimers, and limitations in the end user license agreement accompanying
  16:.\Generated_Source\PSoC4/Timer_PM.c **** * the software package with which this file was provided.
  17:.\Generated_Source\PSoC4/Timer_PM.c **** ********************************************************************************/
  18:.\Generated_Source\PSoC4/Timer_PM.c **** 
  19:.\Generated_Source\PSoC4/Timer_PM.c **** #include "Timer.h"
  20:.\Generated_Source\PSoC4/Timer_PM.c **** static Timer_backupStruct Timer_backup;
  21:.\Generated_Source\PSoC4/Timer_PM.c **** 
  22:.\Generated_Source\PSoC4/Timer_PM.c **** 
  23:.\Generated_Source\PSoC4/Timer_PM.c **** /*******************************************************************************
  24:.\Generated_Source\PSoC4/Timer_PM.c **** * Function Name: Timer_SaveConfig
  25:.\Generated_Source\PSoC4/Timer_PM.c **** ********************************************************************************
  26:.\Generated_Source\PSoC4/Timer_PM.c **** *
ARM GAS  C:\Users\BJRN~1\AppData\Local\Temp\ccTGIXHQ.s 			page 2


  27:.\Generated_Source\PSoC4/Timer_PM.c **** * Summary:
  28:.\Generated_Source\PSoC4/Timer_PM.c **** *     Save the current user configuration
  29:.\Generated_Source\PSoC4/Timer_PM.c **** *
  30:.\Generated_Source\PSoC4/Timer_PM.c **** * Parameters:
  31:.\Generated_Source\PSoC4/Timer_PM.c **** *  void
  32:.\Generated_Source\PSoC4/Timer_PM.c **** *
  33:.\Generated_Source\PSoC4/Timer_PM.c **** * Return:
  34:.\Generated_Source\PSoC4/Timer_PM.c **** *  void
  35:.\Generated_Source\PSoC4/Timer_PM.c **** *
  36:.\Generated_Source\PSoC4/Timer_PM.c **** * Global variables:
  37:.\Generated_Source\PSoC4/Timer_PM.c **** *  Timer_backup:  Variables of this global structure are modified to
  38:.\Generated_Source\PSoC4/Timer_PM.c **** *  store the values of non retention configuration registers when Sleep() API is
  39:.\Generated_Source\PSoC4/Timer_PM.c **** *  called.
  40:.\Generated_Source\PSoC4/Timer_PM.c **** *
  41:.\Generated_Source\PSoC4/Timer_PM.c **** *******************************************************************************/
  42:.\Generated_Source\PSoC4/Timer_PM.c **** void Timer_SaveConfig(void) 
  43:.\Generated_Source\PSoC4/Timer_PM.c **** {
  30              		.loc 1 43 0
  31              		.cfi_startproc
  32 0000 80B5     		push	{r7, lr}
  33              	.LCFI0:
  34              		.cfi_def_cfa_offset 8
  35              		.cfi_offset 7, -8
  36              		.cfi_offset 14, -4
  37 0002 00AF     		add	r7, sp, #0
  38              	.LCFI1:
  39              		.cfi_def_cfa_register 7
  44:.\Generated_Source\PSoC4/Timer_PM.c ****     #if (!Timer_UsingFixedFunction)
  45:.\Generated_Source\PSoC4/Timer_PM.c ****         /* Backup the UDB non-rentention registers for CY_UDB_V0 */
  46:.\Generated_Source\PSoC4/Timer_PM.c ****         #if (CY_UDB_V0)
  47:.\Generated_Source\PSoC4/Timer_PM.c ****             Timer_backup.TimerUdb = Timer_ReadCounter();
  48:.\Generated_Source\PSoC4/Timer_PM.c ****             Timer_backup.TimerPeriod = Timer_ReadPeriod();
  49:.\Generated_Source\PSoC4/Timer_PM.c ****             Timer_backup.InterruptMaskValue = Timer_STATUS_MASK;
  50:.\Generated_Source\PSoC4/Timer_PM.c ****             #if (Timer_UsingHWCaptureCounter)
  51:.\Generated_Source\PSoC4/Timer_PM.c ****                 Timer_backup.TimerCaptureCounter = Timer_ReadCaptureCount();
  52:.\Generated_Source\PSoC4/Timer_PM.c ****             #endif /* Backup the UDB non-rentention register capture counter for CY_UDB_V0 */
  53:.\Generated_Source\PSoC4/Timer_PM.c ****         #endif /* Backup the UDB non-rentention registers for CY_UDB_V0 */
  54:.\Generated_Source\PSoC4/Timer_PM.c **** 
  55:.\Generated_Source\PSoC4/Timer_PM.c ****         #if (CY_UDB_V1)
  56:.\Generated_Source\PSoC4/Timer_PM.c ****             Timer_backup.TimerUdb = Timer_ReadCounter();
  40              		.loc 1 56 0
  41 0004 FFF7FEFF 		bl	Timer_ReadCounter
  42 0008 021C     		mov	r2, r0
  43 000a 074B     		ldr	r3, .L2
  44 000c 5A60     		str	r2, [r3, #4]
  57:.\Generated_Source\PSoC4/Timer_PM.c ****             Timer_backup.InterruptMaskValue = Timer_STATUS_MASK;
  45              		.loc 1 57 0
  46 000e 074B     		ldr	r3, .L2+4
  47 0010 1B78     		ldrb	r3, [r3]
  48 0012 DAB2     		uxtb	r2, r3
  49 0014 044B     		ldr	r3, .L2
  50 0016 1A72     		strb	r2, [r3, #8]
  58:.\Generated_Source\PSoC4/Timer_PM.c ****             #if (Timer_UsingHWCaptureCounter)
  59:.\Generated_Source\PSoC4/Timer_PM.c ****                 Timer_backup.TimerCaptureCounter = Timer_ReadCaptureCount();
  60:.\Generated_Source\PSoC4/Timer_PM.c ****             #endif /* Back Up capture counter register  */
  61:.\Generated_Source\PSoC4/Timer_PM.c ****         #endif /* Backup non retention registers, interrupt mask and capture counter for CY_UDB_V1 
  62:.\Generated_Source\PSoC4/Timer_PM.c **** 
ARM GAS  C:\Users\BJRN~1\AppData\Local\Temp\ccTGIXHQ.s 			page 3


  63:.\Generated_Source\PSoC4/Timer_PM.c ****         #if(!Timer_ControlRegRemoved)
  64:.\Generated_Source\PSoC4/Timer_PM.c ****             Timer_backup.TimerControlRegister = Timer_ReadControlRegister();
  51              		.loc 1 64 0
  52 0018 FFF7FEFF 		bl	Timer_ReadControlRegister
  53 001c 031C     		mov	r3, r0
  54 001e 1A1C     		mov	r2, r3
  55 0020 014B     		ldr	r3, .L2
  56 0022 5A72     		strb	r2, [r3, #9]
  65:.\Generated_Source\PSoC4/Timer_PM.c ****         #endif /* Backup the enable state of the Timer component */
  66:.\Generated_Source\PSoC4/Timer_PM.c ****     #endif /* Backup non retention registers in UDB implementation. All fixed function registers ar
  67:.\Generated_Source\PSoC4/Timer_PM.c **** }
  57              		.loc 1 67 0
  58 0024 BD46     		mov	sp, r7
  59              		@ sp needed for prologue
  60 0026 80BD     		pop	{r7, pc}
  61              	.L3:
  62              		.align	2
  63              	.L2:
  64 0028 00000000 		.word	Timer_backup
  65 002c 82000F40 		.word	1074724994
  66              		.cfi_endproc
  67              	.LFE0:
  68              		.size	Timer_SaveConfig, .-Timer_SaveConfig
  69              		.section	.text.Timer_RestoreConfig,"ax",%progbits
  70              		.align	2
  71              		.global	Timer_RestoreConfig
  72              		.code	16
  73              		.thumb_func
  74              		.type	Timer_RestoreConfig, %function
  75              	Timer_RestoreConfig:
  76              	.LFB1:
  68:.\Generated_Source\PSoC4/Timer_PM.c **** 
  69:.\Generated_Source\PSoC4/Timer_PM.c **** 
  70:.\Generated_Source\PSoC4/Timer_PM.c **** /*******************************************************************************
  71:.\Generated_Source\PSoC4/Timer_PM.c **** * Function Name: Timer_RestoreConfig
  72:.\Generated_Source\PSoC4/Timer_PM.c **** ********************************************************************************
  73:.\Generated_Source\PSoC4/Timer_PM.c **** *
  74:.\Generated_Source\PSoC4/Timer_PM.c **** * Summary:
  75:.\Generated_Source\PSoC4/Timer_PM.c **** *  Restores the current user configuration.
  76:.\Generated_Source\PSoC4/Timer_PM.c **** *
  77:.\Generated_Source\PSoC4/Timer_PM.c **** * Parameters:
  78:.\Generated_Source\PSoC4/Timer_PM.c **** *  void
  79:.\Generated_Source\PSoC4/Timer_PM.c **** *
  80:.\Generated_Source\PSoC4/Timer_PM.c **** * Return:
  81:.\Generated_Source\PSoC4/Timer_PM.c **** *  void
  82:.\Generated_Source\PSoC4/Timer_PM.c **** *
  83:.\Generated_Source\PSoC4/Timer_PM.c **** * Global variables:
  84:.\Generated_Source\PSoC4/Timer_PM.c **** *  Timer_backup:  Variables of this global structure are used to
  85:.\Generated_Source\PSoC4/Timer_PM.c **** *  restore the values of non retention registers on wakeup from sleep mode.
  86:.\Generated_Source\PSoC4/Timer_PM.c **** *
  87:.\Generated_Source\PSoC4/Timer_PM.c **** *******************************************************************************/
  88:.\Generated_Source\PSoC4/Timer_PM.c **** void Timer_RestoreConfig(void) 
  89:.\Generated_Source\PSoC4/Timer_PM.c **** {   
  77              		.loc 1 89 0
  78              		.cfi_startproc
  79 0000 80B5     		push	{r7, lr}
  80              	.LCFI2:
ARM GAS  C:\Users\BJRN~1\AppData\Local\Temp\ccTGIXHQ.s 			page 4


  81              		.cfi_def_cfa_offset 8
  82              		.cfi_offset 7, -8
  83              		.cfi_offset 14, -4
  84 0002 00AF     		add	r7, sp, #0
  85              	.LCFI3:
  86              		.cfi_def_cfa_register 7
  90:.\Generated_Source\PSoC4/Timer_PM.c ****     #if (!Timer_UsingFixedFunction)
  91:.\Generated_Source\PSoC4/Timer_PM.c ****         /* Restore the UDB non-rentention registers for CY_UDB_V0 */
  92:.\Generated_Source\PSoC4/Timer_PM.c ****         #if (CY_UDB_V0)
  93:.\Generated_Source\PSoC4/Timer_PM.c ****             /* Interrupt State Backup for Critical Region*/
  94:.\Generated_Source\PSoC4/Timer_PM.c ****             uint8 Timer_interruptState;
  95:.\Generated_Source\PSoC4/Timer_PM.c **** 
  96:.\Generated_Source\PSoC4/Timer_PM.c ****             Timer_WriteCounter(Timer_backup.TimerUdb);
  97:.\Generated_Source\PSoC4/Timer_PM.c ****             Timer_WritePeriod(Timer_backup.TimerPeriod);
  98:.\Generated_Source\PSoC4/Timer_PM.c ****             /* CyEnterCriticalRegion and CyExitCriticalRegion are used to mark following region cri
  99:.\Generated_Source\PSoC4/Timer_PM.c ****             /* Enter Critical Region*/
 100:.\Generated_Source\PSoC4/Timer_PM.c ****             Timer_interruptState = CyEnterCriticalSection();
 101:.\Generated_Source\PSoC4/Timer_PM.c ****             /* Use the interrupt output of the status register for IRQ output */
 102:.\Generated_Source\PSoC4/Timer_PM.c ****             Timer_STATUS_AUX_CTRL |= Timer_STATUS_ACTL_INT_EN_MASK;
 103:.\Generated_Source\PSoC4/Timer_PM.c ****             /* Exit Critical Region*/
 104:.\Generated_Source\PSoC4/Timer_PM.c ****             CyExitCriticalSection(Timer_interruptState);
 105:.\Generated_Source\PSoC4/Timer_PM.c ****             Timer_STATUS_MASK =Timer_backup.InterruptMaskValue;
 106:.\Generated_Source\PSoC4/Timer_PM.c ****             #if (Timer_UsingHWCaptureCounter)
 107:.\Generated_Source\PSoC4/Timer_PM.c ****                 Timer_SetCaptureCount(Timer_backup.TimerCaptureCounter);
 108:.\Generated_Source\PSoC4/Timer_PM.c ****             #endif /* Restore the UDB non-rentention register capture counter for CY_UDB_V0 */
 109:.\Generated_Source\PSoC4/Timer_PM.c ****         #endif /* Restore the UDB non-rentention registers for CY_UDB_V0 */
 110:.\Generated_Source\PSoC4/Timer_PM.c **** 
 111:.\Generated_Source\PSoC4/Timer_PM.c ****         #if (CY_UDB_V1)
 112:.\Generated_Source\PSoC4/Timer_PM.c ****             Timer_WriteCounter(Timer_backup.TimerUdb);
  87              		.loc 1 112 0
  88 0004 074B     		ldr	r3, .L5
  89 0006 5B68     		ldr	r3, [r3, #4]
  90 0008 181C     		mov	r0, r3
  91 000a FFF7FEFF 		bl	Timer_WriteCounter
 113:.\Generated_Source\PSoC4/Timer_PM.c ****             Timer_STATUS_MASK =Timer_backup.InterruptMaskValue;
  92              		.loc 1 113 0
  93 000e 064B     		ldr	r3, .L5+4
  94 0010 044A     		ldr	r2, .L5
  95 0012 127A     		ldrb	r2, [r2, #8]
  96 0014 1A70     		strb	r2, [r3]
 114:.\Generated_Source\PSoC4/Timer_PM.c ****             #if (Timer_UsingHWCaptureCounter)
 115:.\Generated_Source\PSoC4/Timer_PM.c ****                 Timer_SetCaptureCount(Timer_backup.TimerCaptureCounter);
 116:.\Generated_Source\PSoC4/Timer_PM.c ****             #endif /* Restore Capture counter register*/
 117:.\Generated_Source\PSoC4/Timer_PM.c ****         #endif /* Restore up non retention registers, interrupt mask and capture counter for CY_UDB
 118:.\Generated_Source\PSoC4/Timer_PM.c **** 
 119:.\Generated_Source\PSoC4/Timer_PM.c ****         #if(!Timer_ControlRegRemoved)
 120:.\Generated_Source\PSoC4/Timer_PM.c ****             Timer_WriteControlRegister(Timer_backup.TimerControlRegister);
  97              		.loc 1 120 0
  98 0016 034B     		ldr	r3, .L5
  99 0018 5B7A     		ldrb	r3, [r3, #9]
 100 001a 181C     		mov	r0, r3
 101 001c FFF7FEFF 		bl	Timer_WriteControlRegister
 121:.\Generated_Source\PSoC4/Timer_PM.c ****         #endif /* Restore the enable state of the Timer component */
 122:.\Generated_Source\PSoC4/Timer_PM.c ****     #endif /* Restore non retention registers in the UDB implementation only */
 123:.\Generated_Source\PSoC4/Timer_PM.c **** }
 102              		.loc 1 123 0
 103 0020 BD46     		mov	sp, r7
ARM GAS  C:\Users\BJRN~1\AppData\Local\Temp\ccTGIXHQ.s 			page 5


 104              		@ sp needed for prologue
 105 0022 80BD     		pop	{r7, pc}
 106              	.L6:
 107              		.align	2
 108              	.L5:
 109 0024 00000000 		.word	Timer_backup
 110 0028 82000F40 		.word	1074724994
 111              		.cfi_endproc
 112              	.LFE1:
 113              		.size	Timer_RestoreConfig, .-Timer_RestoreConfig
 114              		.section	.text.Timer_Sleep,"ax",%progbits
 115              		.align	2
 116              		.global	Timer_Sleep
 117              		.code	16
 118              		.thumb_func
 119              		.type	Timer_Sleep, %function
 120              	Timer_Sleep:
 121              	.LFB2:
 124:.\Generated_Source\PSoC4/Timer_PM.c **** 
 125:.\Generated_Source\PSoC4/Timer_PM.c **** 
 126:.\Generated_Source\PSoC4/Timer_PM.c **** /*******************************************************************************
 127:.\Generated_Source\PSoC4/Timer_PM.c **** * Function Name: Timer_Sleep
 128:.\Generated_Source\PSoC4/Timer_PM.c **** ********************************************************************************
 129:.\Generated_Source\PSoC4/Timer_PM.c **** *
 130:.\Generated_Source\PSoC4/Timer_PM.c **** * Summary:
 131:.\Generated_Source\PSoC4/Timer_PM.c **** *     Stop and Save the user configuration
 132:.\Generated_Source\PSoC4/Timer_PM.c **** *
 133:.\Generated_Source\PSoC4/Timer_PM.c **** * Parameters:
 134:.\Generated_Source\PSoC4/Timer_PM.c **** *  void
 135:.\Generated_Source\PSoC4/Timer_PM.c **** *
 136:.\Generated_Source\PSoC4/Timer_PM.c **** * Return:
 137:.\Generated_Source\PSoC4/Timer_PM.c **** *  void
 138:.\Generated_Source\PSoC4/Timer_PM.c **** *
 139:.\Generated_Source\PSoC4/Timer_PM.c **** * Global variables:
 140:.\Generated_Source\PSoC4/Timer_PM.c **** *  Timer_backup.TimerEnableState:  Is modified depending on the
 141:.\Generated_Source\PSoC4/Timer_PM.c **** *  enable state of the block before entering sleep mode.
 142:.\Generated_Source\PSoC4/Timer_PM.c **** *
 143:.\Generated_Source\PSoC4/Timer_PM.c **** *******************************************************************************/
 144:.\Generated_Source\PSoC4/Timer_PM.c **** void Timer_Sleep(void) 
 145:.\Generated_Source\PSoC4/Timer_PM.c **** {
 122              		.loc 1 145 0
 123              		.cfi_startproc
 124 0000 80B5     		push	{r7, lr}
 125              	.LCFI4:
 126              		.cfi_def_cfa_offset 8
 127              		.cfi_offset 7, -8
 128              		.cfi_offset 14, -4
 129 0002 00AF     		add	r7, sp, #0
 130              	.LCFI5:
 131              		.cfi_def_cfa_register 7
 146:.\Generated_Source\PSoC4/Timer_PM.c ****     #if(!Timer_ControlRegRemoved)
 147:.\Generated_Source\PSoC4/Timer_PM.c ****         /* Save Counter's enable state */
 148:.\Generated_Source\PSoC4/Timer_PM.c ****         if(Timer_CTRL_ENABLE == (Timer_CONTROL & Timer_CTRL_ENABLE))
 132              		.loc 1 148 0
 133 0004 094B     		ldr	r3, .L10
 134 0006 1B78     		ldrb	r3, [r3]
 135 0008 DBB2     		uxtb	r3, r3
ARM GAS  C:\Users\BJRN~1\AppData\Local\Temp\ccTGIXHQ.s 			page 6


 136 000a DBB2     		uxtb	r3, r3
 137 000c 5BB2     		sxtb	r3, r3
 138 000e 002B     		cmp	r3, #0
 139 0010 03DA     		bge	.L8
 149:.\Generated_Source\PSoC4/Timer_PM.c ****         {
 150:.\Generated_Source\PSoC4/Timer_PM.c ****             /* Timer is enabled */
 151:.\Generated_Source\PSoC4/Timer_PM.c ****             Timer_backup.TimerEnableState = 1u;
 140              		.loc 1 151 0
 141 0012 074B     		ldr	r3, .L10+4
 142 0014 0122     		mov	r2, #1
 143 0016 1A70     		strb	r2, [r3]
 144 0018 02E0     		b	.L9
 145              	.L8:
 152:.\Generated_Source\PSoC4/Timer_PM.c ****         }
 153:.\Generated_Source\PSoC4/Timer_PM.c ****         else
 154:.\Generated_Source\PSoC4/Timer_PM.c ****         {
 155:.\Generated_Source\PSoC4/Timer_PM.c ****             /* Timer is disabled */
 156:.\Generated_Source\PSoC4/Timer_PM.c ****             Timer_backup.TimerEnableState = 0u;
 146              		.loc 1 156 0
 147 001a 054B     		ldr	r3, .L10+4
 148 001c 0022     		mov	r2, #0
 149 001e 1A70     		strb	r2, [r3]
 150              	.L9:
 157:.\Generated_Source\PSoC4/Timer_PM.c ****         }
 158:.\Generated_Source\PSoC4/Timer_PM.c ****     #endif /* Back up enable state from the Timer control register */
 159:.\Generated_Source\PSoC4/Timer_PM.c ****     Timer_Stop();
 151              		.loc 1 159 0
 152 0020 FFF7FEFF 		bl	Timer_Stop
 160:.\Generated_Source\PSoC4/Timer_PM.c ****     Timer_SaveConfig();
 153              		.loc 1 160 0
 154 0024 FFF7FEFF 		bl	Timer_SaveConfig
 161:.\Generated_Source\PSoC4/Timer_PM.c **** }
 155              		.loc 1 161 0
 156 0028 BD46     		mov	sp, r7
 157              		@ sp needed for prologue
 158 002a 80BD     		pop	{r7, pc}
 159              	.L11:
 160              		.align	2
 161              	.L10:
 162 002c 71000F40 		.word	1074724977
 163 0030 00000000 		.word	Timer_backup
 164              		.cfi_endproc
 165              	.LFE2:
 166              		.size	Timer_Sleep, .-Timer_Sleep
 167              		.section	.text.Timer_Wakeup,"ax",%progbits
 168              		.align	2
 169              		.global	Timer_Wakeup
 170              		.code	16
 171              		.thumb_func
 172              		.type	Timer_Wakeup, %function
 173              	Timer_Wakeup:
 174              	.LFB3:
 162:.\Generated_Source\PSoC4/Timer_PM.c **** 
 163:.\Generated_Source\PSoC4/Timer_PM.c **** 
 164:.\Generated_Source\PSoC4/Timer_PM.c **** /*******************************************************************************
 165:.\Generated_Source\PSoC4/Timer_PM.c **** * Function Name: Timer_Wakeup
 166:.\Generated_Source\PSoC4/Timer_PM.c **** ********************************************************************************
ARM GAS  C:\Users\BJRN~1\AppData\Local\Temp\ccTGIXHQ.s 			page 7


 167:.\Generated_Source\PSoC4/Timer_PM.c **** *
 168:.\Generated_Source\PSoC4/Timer_PM.c **** * Summary:
 169:.\Generated_Source\PSoC4/Timer_PM.c **** *  Restores and enables the user configuration
 170:.\Generated_Source\PSoC4/Timer_PM.c **** *
 171:.\Generated_Source\PSoC4/Timer_PM.c **** * Parameters:
 172:.\Generated_Source\PSoC4/Timer_PM.c **** *  void
 173:.\Generated_Source\PSoC4/Timer_PM.c **** *
 174:.\Generated_Source\PSoC4/Timer_PM.c **** * Return:
 175:.\Generated_Source\PSoC4/Timer_PM.c **** *  void
 176:.\Generated_Source\PSoC4/Timer_PM.c **** *
 177:.\Generated_Source\PSoC4/Timer_PM.c **** * Global variables:
 178:.\Generated_Source\PSoC4/Timer_PM.c **** *  Timer_backup.enableState:  Is used to restore the enable state of
 179:.\Generated_Source\PSoC4/Timer_PM.c **** *  block on wakeup from sleep mode.
 180:.\Generated_Source\PSoC4/Timer_PM.c **** *
 181:.\Generated_Source\PSoC4/Timer_PM.c **** *******************************************************************************/
 182:.\Generated_Source\PSoC4/Timer_PM.c **** void Timer_Wakeup(void) 
 183:.\Generated_Source\PSoC4/Timer_PM.c **** {
 175              		.loc 1 183 0
 176              		.cfi_startproc
 177 0000 80B5     		push	{r7, lr}
 178              	.LCFI6:
 179              		.cfi_def_cfa_offset 8
 180              		.cfi_offset 7, -8
 181              		.cfi_offset 14, -4
 182 0002 00AF     		add	r7, sp, #0
 183              	.LCFI7:
 184              		.cfi_def_cfa_register 7
 184:.\Generated_Source\PSoC4/Timer_PM.c ****     Timer_RestoreConfig();
 185              		.loc 1 184 0
 186 0004 FFF7FEFF 		bl	Timer_RestoreConfig
 185:.\Generated_Source\PSoC4/Timer_PM.c ****     #if(!Timer_ControlRegRemoved)
 186:.\Generated_Source\PSoC4/Timer_PM.c ****         if(Timer_backup.TimerEnableState == 1u)
 187              		.loc 1 186 0
 188 0008 034B     		ldr	r3, .L14
 189 000a 1B78     		ldrb	r3, [r3]
 190 000c 012B     		cmp	r3, #1
 191 000e 01D1     		bne	.L12
 187:.\Generated_Source\PSoC4/Timer_PM.c ****         {     /* Enable Timer's operation */
 188:.\Generated_Source\PSoC4/Timer_PM.c ****                 Timer_Enable();
 192              		.loc 1 188 0
 193 0010 FFF7FEFF 		bl	Timer_Enable
 194              	.L12:
 189:.\Generated_Source\PSoC4/Timer_PM.c ****         } /* Do nothing if Timer was disabled before */
 190:.\Generated_Source\PSoC4/Timer_PM.c ****     #endif /* Remove this code section if Control register is removed */
 191:.\Generated_Source\PSoC4/Timer_PM.c **** }
 195              		.loc 1 191 0
 196 0014 BD46     		mov	sp, r7
 197              		@ sp needed for prologue
 198 0016 80BD     		pop	{r7, pc}
 199              	.L15:
 200              		.align	2
 201              	.L14:
 202 0018 00000000 		.word	Timer_backup
 203              		.cfi_endproc
 204              	.LFE3:
 205              		.size	Timer_Wakeup, .-Timer_Wakeup
 206              		.text
ARM GAS  C:\Users\BJRN~1\AppData\Local\Temp\ccTGIXHQ.s 			page 8


 207              	.Letext0:
 208              		.file 2 ".\\Generated_Source\\PSoC4\\cytypes.h"
 209              		.file 3 ".\\Generated_Source\\PSoC4\\Timer.h"