ARM GAS  C:\Users\BJRN~1\AppData\Local\Temp\ccMzWzU1.s 			page 1


   1              		.cpu cortex-m0
   2              		.fpu softvfp
   3              		.eabi_attribute 20, 1
   4              		.eabi_attribute 21, 1
   5              		.eabi_attribute 23, 3
   6              		.eabi_attribute 24, 1
   7              		.eabi_attribute 25, 1
   8              		.eabi_attribute 26, 1
   9              		.eabi_attribute 30, 6
  10              		.eabi_attribute 34, 0
  11              		.eabi_attribute 18, 4
  12              		.code	16
  13              		.file	"loadData.c"
  14              		.text
  15              	.Ltext0:
  16              		.cfi_sections	.debug_frame
  17              		.bss
  18              		.align	2
  19              	bufferPtr_:
  20 0000 00000000 		.space	4
  21              	movement_:
  22 0004 00       		.space	1
  23 0005 000000   		.section	.text.loadData_init,"ax",%progbits
  24              		.align	2
  25              		.global	loadData_init
  26              		.code	16
  27              		.thumb_func
  28              		.type	loadData_init, %function
  29              	loadData_init:
  30              	.LFB0:
  31              		.file 1 ".\\loadData.c"
   1:.\loadData.c  **** /*
   2:.\loadData.c  **** * File: loadData.c 
   3:.\loadData.c  **** * Description: Implementation of controller class loadData
   4:.\loadData.c  **** * Project: PRJ3
   5:.\loadData.c  **** * 
   6:.\loadData.c  **** * Author: Bjørn Sørensen
   7:.\loadData.c  **** */
   8:.\loadData.c  **** 
   9:.\loadData.c  **** #include "loadData.h"
  10:.\loadData.c  **** 
  11:.\loadData.c  **** // Private data
  12:.\loadData.c  **** /*static parameters * parametersPtr_;
  13:.\loadData.c  **** static sensorPackage * sensorPackagePtr_;*/
  14:.\loadData.c  **** static buffer * bufferPtr_;
  15:.\loadData.c  **** static unsigned char movement_;
  16:.\loadData.c  **** 
  17:.\loadData.c  **** // Public methods
  18:.\loadData.c  **** extern void loadData_init(buffer *buf)  //  parameters *par, sensorPackage *pack, 
  19:.\loadData.c  **** {
  32              		.loc 1 19 0
  33              		.cfi_startproc
  34 0000 80B5     		push	{r7, lr}
  35              	.LCFI0:
  36              		.cfi_def_cfa_offset 8
  37              		.cfi_offset 7, -8
  38              		.cfi_offset 14, -4
ARM GAS  C:\Users\BJRN~1\AppData\Local\Temp\ccMzWzU1.s 			page 2


  39 0002 82B0     		sub	sp, sp, #8
  40              	.LCFI1:
  41              		.cfi_def_cfa_offset 16
  42 0004 00AF     		add	r7, sp, #0
  43              	.LCFI2:
  44              		.cfi_def_cfa_register 7
  45 0006 7860     		str	r0, [r7, #4]
  20:.\loadData.c  ****     // Set pointers accordingly
  21:.\loadData.c  ****     /*parametersPtr_ = par;
  22:.\loadData.c  ****     sensorPackagePtr_ = pack;*/
  23:.\loadData.c  ****     bufferPtr_ = buf;
  46              		.loc 1 23 0
  47 0008 024B     		ldr	r3, .L2
  48 000a 7A68     		ldr	r2, [r7, #4]
  49 000c 1A60     		str	r2, [r3]
  24:.\loadData.c  ****     
  25:.\loadData.c  ****     // Start logData timer
  26:.\loadData.c  ****     
  27:.\loadData.c  ****     
  28:.\loadData.c  **** }
  50              		.loc 1 28 0
  51 000e BD46     		mov	sp, r7
  52 0010 02B0     		add	sp, sp, #8
  53              		@ sp needed for prologue
  54 0012 80BD     		pop	{r7, pc}
  55              	.L3:
  56              		.align	2
  57              	.L2:
  58 0014 00000000 		.word	bufferPtr_
  59              		.cfi_endproc
  60              	.LFE0:
  61              		.size	loadData_init, .-loadData_init
  62              		.section	.text.loadData_getBuffer,"ax",%progbits
  63              		.align	2
  64              		.global	loadData_getBuffer
  65              		.code	16
  66              		.thumb_func
  67              		.type	loadData_getBuffer, %function
  68              	loadData_getBuffer:
  69              	.LFB1:
  29:.\loadData.c  **** 
  30:.\loadData.c  **** int loadData_getBuffer( char ** buf, unsigned int * len)
  31:.\loadData.c  **** {
  70              		.loc 1 31 0
  71              		.cfi_startproc
  72 0000 80B5     		push	{r7, lr}
  73              	.LCFI3:
  74              		.cfi_def_cfa_offset 8
  75              		.cfi_offset 7, -8
  76              		.cfi_offset 14, -4
  77 0002 82B0     		sub	sp, sp, #8
  78              	.LCFI4:
  79              		.cfi_def_cfa_offset 16
  80 0004 00AF     		add	r7, sp, #0
  81              	.LCFI5:
  82              		.cfi_def_cfa_register 7
  83 0006 7860     		str	r0, [r7, #4]
ARM GAS  C:\Users\BJRN~1\AppData\Local\Temp\ccMzWzU1.s 			page 3


  84 0008 3960     		str	r1, [r7]
  32:.\loadData.c  ****     buffer_getData(bufferPtr_, buf, len);
  85              		.loc 1 32 0
  86 000a 074B     		ldr	r3, .L6
  87 000c 1968     		ldr	r1, [r3]
  88 000e 7A68     		ldr	r2, [r7, #4]
  89 0010 3B68     		ldr	r3, [r7]
  90 0012 081C     		mov	r0, r1
  91 0014 111C     		mov	r1, r2
  92 0016 1A1C     		mov	r2, r3
  93 0018 FFF7FEFF 		bl	buffer_getData
  33:.\loadData.c  ****     return 0;
  94              		.loc 1 33 0
  95 001c 0023     		mov	r3, #0
  34:.\loadData.c  **** }
  96              		.loc 1 34 0
  97 001e 181C     		mov	r0, r3
  98 0020 BD46     		mov	sp, r7
  99 0022 02B0     		add	sp, sp, #8
 100              		@ sp needed for prologue
 101 0024 80BD     		pop	{r7, pc}
 102              	.L7:
 103 0026 C046     		.align	2
 104              	.L6:
 105 0028 00000000 		.word	bufferPtr_
 106              		.cfi_endproc
 107              	.LFE1:
 108              		.size	loadData_getBuffer, .-loadData_getBuffer
 109              		.section	.text.loadData_movementDetect,"ax",%progbits
 110              		.align	2
 111              		.global	loadData_movementDetect
 112              		.code	16
 113              		.thumb_func
 114              		.type	loadData_movementDetect, %function
 115              	loadData_movementDetect:
 116              	.LFB2:
  35:.\loadData.c  **** 
  36:.\loadData.c  **** int loadData_movementDetect()
  37:.\loadData.c  **** {
 117              		.loc 1 37 0
 118              		.cfi_startproc
 119 0000 80B5     		push	{r7, lr}
 120              	.LCFI6:
 121              		.cfi_def_cfa_offset 8
 122              		.cfi_offset 7, -8
 123              		.cfi_offset 14, -4
 124 0002 00AF     		add	r7, sp, #0
 125              	.LCFI7:
 126              		.cfi_def_cfa_register 7
  38:.\loadData.c  ****     // Clear active flag in parameters
  39:.\loadData.c  ****     // Start 30 minute timer
  40:.\loadData.c  ****     // Set movement flag
  41:.\loadData.c  ****     return 0;
 127              		.loc 1 41 0
 128 0004 0023     		mov	r3, #0
  42:.\loadData.c  **** }
 129              		.loc 1 42 0
ARM GAS  C:\Users\BJRN~1\AppData\Local\Temp\ccMzWzU1.s 			page 4


 130 0006 181C     		mov	r0, r3
 131 0008 BD46     		mov	sp, r7
 132              		@ sp needed for prologue
 133 000a 80BD     		pop	{r7, pc}
 134              		.cfi_endproc
 135              	.LFE2:
 136              		.size	loadData_movementDetect, .-loadData_movementDetect
 137              		.section	.text.loadData_logDataTimeout,"ax",%progbits
 138              		.align	2
 139              		.global	loadData_logDataTimeout
 140              		.code	16
 141              		.thumb_func
 142              		.type	loadData_logDataTimeout, %function
 143              	loadData_logDataTimeout:
 144              	.LFB3:
  43:.\loadData.c  **** 
  44:.\loadData.c  **** int loadData_logDataTimeout()
  45:.\loadData.c  **** {
 145              		.loc 1 45 0
 146              		.cfi_startproc
 147 0000 80B5     		push	{r7, lr}
 148              	.LCFI8:
 149              		.cfi_def_cfa_offset 8
 150              		.cfi_offset 7, -8
 151              		.cfi_offset 14, -4
 152 0002 00AF     		add	r7, sp, #0
 153              	.LCFI9:
 154              		.cfi_def_cfa_register 7
  46:.\loadData.c  ****     // Collect data from sensorpackage
  47:.\loadData.c  ****     // Save data as string i buffer, with movement set accordingly
  48:.\loadData.c  ****     // Clear movement flag
  49:.\loadData.c  ****     return 0;
 155              		.loc 1 49 0
 156 0004 0023     		mov	r3, #0
  50:.\loadData.c  **** }
 157              		.loc 1 50 0
 158 0006 181C     		mov	r0, r3
 159 0008 BD46     		mov	sp, r7
 160              		@ sp needed for prologue
 161 000a 80BD     		pop	{r7, pc}
 162              		.cfi_endproc
 163              	.LFE3:
 164              		.size	loadData_logDataTimeout, .-loadData_logDataTimeout
 165              		.section	.text.loadData_waterTimeout,"ax",%progbits
 166              		.align	2
 167              		.global	loadData_waterTimeout
 168              		.code	16
 169              		.thumb_func
 170              		.type	loadData_waterTimeout, %function
 171              	loadData_waterTimeout:
 172              	.LFB4:
  51:.\loadData.c  **** int  loadData_waterTimeout()
  52:.\loadData.c  **** {
 173              		.loc 1 52 0
 174              		.cfi_startproc
 175 0000 80B5     		push	{r7, lr}
 176              	.LCFI10:
ARM GAS  C:\Users\BJRN~1\AppData\Local\Temp\ccMzWzU1.s 			page 5


 177              		.cfi_def_cfa_offset 8
 178              		.cfi_offset 7, -8
 179              		.cfi_offset 14, -4
 180 0002 00AF     		add	r7, sp, #0
 181              	.LCFI11:
 182              		.cfi_def_cfa_register 7
  53:.\loadData.c  ****     // Set active_ flag in parameters
  54:.\loadData.c  ****     return 0;
 183              		.loc 1 54 0
 184 0004 0023     		mov	r3, #0
  55:.\loadData.c  **** }...
 185              		.loc 1 55 0
 186 0006 181C     		mov	r0, r3
 187 0008 BD46     		mov	sp, r7
 188              		@ sp needed for prologue
 189 000a 80BD     		pop	{r7, pc}
 190              		.cfi_endproc
 191              	.LFE4:
 192              		.size	loadData_waterTimeout, .-loadData_waterTimeout
 193              		.text
 194              	.Letext0:
 195              		.file 2 ".\\buffer.h"