ARM GAS  C:\Users\BJRN~1\AppData\Local\Temp\ccgbCeXQ.s 			page 1


   1              		.cpu cortex-m0
   2              		.fpu softvfp
   3              		.eabi_attribute 20, 1
   4              		.eabi_attribute 21, 1
   5              		.eabi_attribute 23, 3
   6              		.eabi_attribute 24, 1
   7              		.eabi_attribute 25, 1
   8              		.eabi_attribute 26, 1
   9              		.eabi_attribute 30, 6
  10              		.eabi_attribute 34, 0
  11              		.eabi_attribute 18, 4
  12              		.code	16
  13              		.file	"test_controllers.c"
  14              		.text
  15              	.Ltext0:
  16              		.cfi_sections	.debug_frame
  17              		.section	.rodata
  18              		.align	2
  19              	.LC0:
  20 0000 45303031 		.ascii	"E001\000"
  20      00
  21 0005 000000   		.section	.text.main,"ax",%progbits
  22              		.align	2
  23              		.global	main
  24              		.code	16
  25              		.thumb_func
  26              		.type	main, %function
  27              	main:
  28              	.LFB33:
  29              		.file 1 ".\\test_controllers.c"
   1:.\test_controllers.c **** /*
   2:.\test_controllers.c **** * File: test_controllers.c
   3:.\test_controllers.c **** * Description: Test program for controller classes
   4:.\test_controllers.c **** * Project: PRJ3
   5:.\test_controllers.c **** * 
   6:.\test_controllers.c **** * Author: Bjørn Sørensen
   7:.\test_controllers.c **** */
   8:.\test_controllers.c **** 
   9:.\test_controllers.c **** 
  10:.\test_controllers.c **** #include <project.h>
  11:.\test_controllers.c **** #include "loadData.h"
  12:.\test_controllers.c **** #include "buffer.h"
  13:.\test_controllers.c **** 
  14:.\test_controllers.c **** int main()
  15:.\test_controllers.c **** {
  30              		.loc 1 15 0
  31              		.cfi_startproc
  32 0000 80B5     		push	{r7, lr}
  33              	.LCFI0:
  34              		.cfi_def_cfa_offset 8
  35              		.cfi_offset 7, -8
  36              		.cfi_offset 14, -4
  37 0002 92B0     		sub	sp, sp, #72
  38              	.LCFI1:
  39              		.cfi_def_cfa_offset 80
  40 0004 00AF     		add	r7, sp, #0
  41              	.LCFI2:
ARM GAS  C:\Users\BJRN~1\AppData\Local\Temp\ccgbCeXQ.s 			page 2


  42              		.cfi_def_cfa_register 7
  16:.\test_controllers.c ****     // Create objects
  17:.\test_controllers.c ****     buffer bufferObj;
  18:.\test_controllers.c ****     buffer_init(&bufferObj);
  43              		.loc 1 18 0
  44 0006 3B1C     		mov	r3, r7
  45 0008 0C33     		add	r3, r3, #12
  46 000a 181C     		mov	r0, r3
  47 000c FFF7FEFF 		bl	buffer_init
  19:.\test_controllers.c ****     
  20:.\test_controllers.c ****     
  21:.\test_controllers.c ****     // Init controller
  22:.\test_controllers.c ****     loadData_init(&bufferObj);
  48              		.loc 1 22 0
  49 0010 3B1C     		mov	r3, r7
  50 0012 0C33     		add	r3, r3, #12
  51 0014 181C     		mov	r0, r3
  52 0016 FFF7FEFF 		bl	loadData_init
  23:.\test_controllers.c ****     
  24:.\test_controllers.c ****     // Start timer
  25:.\test_controllers.c ****     logDataTimer_Start();
  53              		.loc 1 25 0
  54 001a FFF7FEFF 		bl	logDataTimer_Start
  26:.\test_controllers.c ****     
  27:.\test_controllers.c ****     // Create some data in log
  28:.\test_controllers.c ****     buffer_saveData(&bufferObj, "E001", 4);
  55              		.loc 1 28 0
  56 001e 3A1C     		mov	r2, r7
  57 0020 0C32     		add	r2, r2, #12
  58 0022 094B     		ldr	r3, .L3
  59 0024 101C     		mov	r0, r2
  60 0026 191C     		mov	r1, r3
  61 0028 0422     		mov	r2, #4
  62 002a FFF7FEFF 		bl	buffer_saveData
  29:.\test_controllers.c ****     
  30:.\test_controllers.c ****     
  31:.\test_controllers.c ****     char * read;
  32:.\test_controllers.c ****     unsigned int read_len;
  33:.\test_controllers.c ****     loadData_getBuffer(&read, &read_len);
  63              		.loc 1 33 0
  64 002e 3A1C     		mov	r2, r7
  65 0030 0832     		add	r2, r2, #8
  66 0032 3B1D     		add	r3, r7, #4
  67 0034 101C     		mov	r0, r2
  68 0036 191C     		mov	r1, r3
  69 0038 FFF7FEFF 		bl	loadData_getBuffer
  34:.\test_controllers.c ****     
  35:.\test_controllers.c ****     
  36:.\test_controllers.c ****     return 0;
  70              		.loc 1 36 0
  71 003c 0023     		mov	r3, #0
  37:.\test_controllers.c **** }...
  72              		.loc 1 37 0
  73 003e 181C     		mov	r0, r3
  74 0040 BD46     		mov	sp, r7
  75 0042 12B0     		add	sp, sp, #72
  76              		@ sp needed for prologue
ARM GAS  C:\Users\BJRN~1\AppData\Local\Temp\ccgbCeXQ.s 			page 3


  77 0044 80BD     		pop	{r7, pc}
  78              	.L4:
  79 0046 C046     		.align	2
  80              	.L3:
  81 0048 00000000 		.word	.LC0
  82              		.cfi_endproc
  83              	.LFE33:
  84              		.size	main, .-main
  85              		.text
  86              	.Letext0:
  87              		.file 2 ".\\buffer.h"