ARM GAS  C:\Users\BJRN~1\AppData\Local\Temp\ccUg91dw.s 			page 1


   1              		.cpu cortex-m0
   2              		.fpu softvfp
   3              		.eabi_attribute 20, 1
   4              		.eabi_attribute 21, 1
   5              		.eabi_attribute 23, 3
   6              		.eabi_attribute 24, 1
   7              		.eabi_attribute 25, 1
   8              		.eabi_attribute 26, 1
   9              		.eabi_attribute 30, 6
  10              		.eabi_attribute 34, 0
  11              		.eabi_attribute 18, 4
  12              		.code	16
  13              		.file	"waterTimer.c"
  14              		.text
  15              	.Ltext0:
  16              		.cfi_sections	.debug_frame
  17              		.global	waterTimer_initVar
  18              		.bss
  19              		.type	waterTimer_initVar, %object
  20              		.size	waterTimer_initVar, 1
  21              	waterTimer_initVar:
  22 0000 00       		.space	1
  23              		.section	.text.waterTimer_Init,"ax",%progbits
  24              		.align	2
  25              		.global	waterTimer_Init
  26              		.code	16
  27              		.thumb_func
  28              		.type	waterTimer_Init, %function
  29              	waterTimer_Init:
  30              	.LFB0:
  31              		.file 1 ".\\Generated_Source\\PSoC4\\waterTimer.c"
   1:.\Generated_Source\PSoC4/waterTimer.c **** /*******************************************************************************
   2:.\Generated_Source\PSoC4/waterTimer.c **** * File Name: waterTimer.c
   3:.\Generated_Source\PSoC4/waterTimer.c **** * Version 2.50
   4:.\Generated_Source\PSoC4/waterTimer.c **** *
   5:.\Generated_Source\PSoC4/waterTimer.c **** * Description:
   6:.\Generated_Source\PSoC4/waterTimer.c **** *  The Timer component consists of a 8, 16, 24 or 32-bit timer with
   7:.\Generated_Source\PSoC4/waterTimer.c **** *  a selectable period between 2 and 2^Width - 1.  The timer may free run
   8:.\Generated_Source\PSoC4/waterTimer.c **** *  or be used as a capture timer as well.  The capture can be initiated
   9:.\Generated_Source\PSoC4/waterTimer.c **** *  by a positive or negative edge signal as well as via software.
  10:.\Generated_Source\PSoC4/waterTimer.c **** *  A trigger input can be programmed to enable the timer on rising edge
  11:.\Generated_Source\PSoC4/waterTimer.c **** *  falling edge, either edge or continous run.
  12:.\Generated_Source\PSoC4/waterTimer.c **** *  Interrupts may be generated due to a terminal count condition
  13:.\Generated_Source\PSoC4/waterTimer.c **** *  or a capture event.
  14:.\Generated_Source\PSoC4/waterTimer.c **** *
  15:.\Generated_Source\PSoC4/waterTimer.c **** * Note:
  16:.\Generated_Source\PSoC4/waterTimer.c **** *
  17:.\Generated_Source\PSoC4/waterTimer.c **** ********************************************************************************
  18:.\Generated_Source\PSoC4/waterTimer.c **** * Copyright 2008-2012, Cypress Semiconductor Corporation.  All rights reserved.
  19:.\Generated_Source\PSoC4/waterTimer.c **** * You may use this file only in accordance with the license, terms, conditions,
  20:.\Generated_Source\PSoC4/waterTimer.c **** * disclaimers, and limitations in the end user license agreement accompanying
  21:.\Generated_Source\PSoC4/waterTimer.c **** * the software package with which this file was provided.
  22:.\Generated_Source\PSoC4/waterTimer.c **** ********************************************************************************/
  23:.\Generated_Source\PSoC4/waterTimer.c **** 
  24:.\Generated_Source\PSoC4/waterTimer.c **** #include "waterTimer.h"
  25:.\Generated_Source\PSoC4/waterTimer.c **** 
  26:.\Generated_Source\PSoC4/waterTimer.c **** uint8 waterTimer_initVar = 0u;
ARM GAS  C:\Users\BJRN~1\AppData\Local\Temp\ccUg91dw.s 			page 2


  27:.\Generated_Source\PSoC4/waterTimer.c **** 
  28:.\Generated_Source\PSoC4/waterTimer.c **** 
  29:.\Generated_Source\PSoC4/waterTimer.c **** /*******************************************************************************
  30:.\Generated_Source\PSoC4/waterTimer.c **** * Function Name: waterTimer_Init
  31:.\Generated_Source\PSoC4/waterTimer.c **** ********************************************************************************
  32:.\Generated_Source\PSoC4/waterTimer.c **** *
  33:.\Generated_Source\PSoC4/waterTimer.c **** * Summary:
  34:.\Generated_Source\PSoC4/waterTimer.c **** *  Initialize to the schematic state
  35:.\Generated_Source\PSoC4/waterTimer.c **** *
  36:.\Generated_Source\PSoC4/waterTimer.c **** * Parameters:
  37:.\Generated_Source\PSoC4/waterTimer.c **** *  void
  38:.\Generated_Source\PSoC4/waterTimer.c **** *
  39:.\Generated_Source\PSoC4/waterTimer.c **** * Return:
  40:.\Generated_Source\PSoC4/waterTimer.c **** *  void
  41:.\Generated_Source\PSoC4/waterTimer.c **** *
  42:.\Generated_Source\PSoC4/waterTimer.c **** *******************************************************************************/
  43:.\Generated_Source\PSoC4/waterTimer.c **** void waterTimer_Init(void) 
  44:.\Generated_Source\PSoC4/waterTimer.c **** {
  32              		.loc 1 44 0
  33              		.cfi_startproc
  34 0000 90B5     		push	{r4, r7, lr}
  35              	.LCFI0:
  36              		.cfi_def_cfa_offset 12
  37              		.cfi_offset 4, -12
  38              		.cfi_offset 7, -8
  39              		.cfi_offset 14, -4
  40 0002 83B0     		sub	sp, sp, #12
  41              	.LCFI1:
  42              		.cfi_def_cfa_offset 24
  43 0004 00AF     		add	r7, sp, #0
  44              	.LCFI2:
  45              		.cfi_def_cfa_register 7
  45:.\Generated_Source\PSoC4/waterTimer.c ****     #if(!waterTimer_UsingFixedFunction)
  46:.\Generated_Source\PSoC4/waterTimer.c ****             /* Interrupt State Backup for Critical Region*/
  47:.\Generated_Source\PSoC4/waterTimer.c ****             uint8 waterTimer_interruptState;
  48:.\Generated_Source\PSoC4/waterTimer.c ****     #endif /* Interrupt state back up for Fixed Function only */
  49:.\Generated_Source\PSoC4/waterTimer.c **** 
  50:.\Generated_Source\PSoC4/waterTimer.c ****     #if (waterTimer_UsingFixedFunction)
  51:.\Generated_Source\PSoC4/waterTimer.c ****         /* Clear all bits but the enable bit (if it's already set) for Timer operation */
  52:.\Generated_Source\PSoC4/waterTimer.c ****         waterTimer_CONTROL &= waterTimer_CTRL_ENABLE;
  53:.\Generated_Source\PSoC4/waterTimer.c **** 
  54:.\Generated_Source\PSoC4/waterTimer.c ****         /* Clear the mode bits for continuous run mode */
  55:.\Generated_Source\PSoC4/waterTimer.c ****         #if (CY_PSOC5A)
  56:.\Generated_Source\PSoC4/waterTimer.c ****             waterTimer_CONTROL2 &= ((uint8)(~waterTimer_CTRL_MODE_MASK));
  57:.\Generated_Source\PSoC4/waterTimer.c ****         #endif /* Clear bits in CONTROL2 only in PSOC5A */
  58:.\Generated_Source\PSoC4/waterTimer.c **** 
  59:.\Generated_Source\PSoC4/waterTimer.c ****         #if (CY_PSOC3 || CY_PSOC5LP)
  60:.\Generated_Source\PSoC4/waterTimer.c ****             waterTimer_CONTROL3 &= ((uint8)(~waterTimer_CTRL_MODE_MASK));
  61:.\Generated_Source\PSoC4/waterTimer.c ****         #endif /* CONTROL3 register exists only in PSoC3 OR PSoC5LP */
  62:.\Generated_Source\PSoC4/waterTimer.c **** 
  63:.\Generated_Source\PSoC4/waterTimer.c ****         /* Check if One Shot mode is enabled i.e. RunMode !=0*/
  64:.\Generated_Source\PSoC4/waterTimer.c ****         #if (waterTimer_RunModeUsed != 0x0u)
  65:.\Generated_Source\PSoC4/waterTimer.c ****             /* Set 3rd bit of Control register to enable one shot mode */
  66:.\Generated_Source\PSoC4/waterTimer.c ****             waterTimer_CONTROL |= 0x04u;
  67:.\Generated_Source\PSoC4/waterTimer.c ****         #endif /* One Shot enabled only when RunModeUsed is not Continuous*/
  68:.\Generated_Source\PSoC4/waterTimer.c **** 
  69:.\Generated_Source\PSoC4/waterTimer.c ****         #if (waterTimer_RunModeUsed == 2)
ARM GAS  C:\Users\BJRN~1\AppData\Local\Temp\ccUg91dw.s 			page 3


  70:.\Generated_Source\PSoC4/waterTimer.c ****             #if (CY_PSOC5A)
  71:.\Generated_Source\PSoC4/waterTimer.c ****                 /* Set last 2 bits of control2 register if one shot(halt on
  72:.\Generated_Source\PSoC4/waterTimer.c ****                 interrupt) is enabled*/
  73:.\Generated_Source\PSoC4/waterTimer.c ****                 waterTimer_CONTROL2 |= 0x03u;
  74:.\Generated_Source\PSoC4/waterTimer.c ****             #endif /* Set One-Shot Halt on Interrupt bit in CONTROL2 for PSoC5A */
  75:.\Generated_Source\PSoC4/waterTimer.c **** 
  76:.\Generated_Source\PSoC4/waterTimer.c ****             #if (CY_PSOC3 || CY_PSOC5LP)
  77:.\Generated_Source\PSoC4/waterTimer.c ****                 /* Set last 2 bits of control3 register if one shot(halt on
  78:.\Generated_Source\PSoC4/waterTimer.c ****                 interrupt) is enabled*/
  79:.\Generated_Source\PSoC4/waterTimer.c ****                 waterTimer_CONTROL3 |= 0x03u;
  80:.\Generated_Source\PSoC4/waterTimer.c ****             #endif /* Set One-Shot Halt on Interrupt bit in CONTROL3 for PSoC3 or PSoC5LP */
  81:.\Generated_Source\PSoC4/waterTimer.c **** 
  82:.\Generated_Source\PSoC4/waterTimer.c ****         #endif /* Remove section if One Shot Halt on Interrupt is not enabled */
  83:.\Generated_Source\PSoC4/waterTimer.c **** 
  84:.\Generated_Source\PSoC4/waterTimer.c ****         #if (waterTimer_UsingHWEnable != 0)
  85:.\Generated_Source\PSoC4/waterTimer.c ****             #if (CY_PSOC5A)
  86:.\Generated_Source\PSoC4/waterTimer.c ****                 /* Set the default Run Mode of the Timer to Continuous */
  87:.\Generated_Source\PSoC4/waterTimer.c ****                 waterTimer_CONTROL2 |= waterTimer_CTRL_MODE_PULSEWIDTH;
  88:.\Generated_Source\PSoC4/waterTimer.c ****             #endif /* Set Continuous Run Mode in CONTROL2 for PSoC5A */
  89:.\Generated_Source\PSoC4/waterTimer.c **** 
  90:.\Generated_Source\PSoC4/waterTimer.c ****             #if (CY_PSOC3 || CY_PSOC5LP)
  91:.\Generated_Source\PSoC4/waterTimer.c ****                 /* Clear and Set ROD and COD bits of CFG2 register */
  92:.\Generated_Source\PSoC4/waterTimer.c ****                 waterTimer_CONTROL3 &= ((uint8)(~waterTimer_CTRL_RCOD_MASK));
  93:.\Generated_Source\PSoC4/waterTimer.c ****                 waterTimer_CONTROL3 |= waterTimer_CTRL_RCOD;
  94:.\Generated_Source\PSoC4/waterTimer.c **** 
  95:.\Generated_Source\PSoC4/waterTimer.c ****                 /* Clear and Enable the HW enable bit in CFG2 register */
  96:.\Generated_Source\PSoC4/waterTimer.c ****                 waterTimer_CONTROL3 &= ((uint8)(~waterTimer_CTRL_ENBL_MASK));
  97:.\Generated_Source\PSoC4/waterTimer.c ****                 waterTimer_CONTROL3 |= waterTimer_CTRL_ENBL;
  98:.\Generated_Source\PSoC4/waterTimer.c **** 
  99:.\Generated_Source\PSoC4/waterTimer.c ****                 /* Set the default Run Mode of the Timer to Continuous */
 100:.\Generated_Source\PSoC4/waterTimer.c ****                 waterTimer_CONTROL3 |= waterTimer_CTRL_MODE_CONTINUOUS;
 101:.\Generated_Source\PSoC4/waterTimer.c ****             #endif /* Set Continuous Run Mode in CONTROL3 for PSoC3ES3 or PSoC5A */
 102:.\Generated_Source\PSoC4/waterTimer.c **** 
 103:.\Generated_Source\PSoC4/waterTimer.c ****         #endif /* Configure Run Mode with hardware enable */
 104:.\Generated_Source\PSoC4/waterTimer.c **** 
 105:.\Generated_Source\PSoC4/waterTimer.c ****         /* Clear and Set SYNCTC and SYNCCMP bits of RT1 register */
 106:.\Generated_Source\PSoC4/waterTimer.c ****         waterTimer_RT1 &= ((uint8)(~waterTimer_RT1_MASK));
 107:.\Generated_Source\PSoC4/waterTimer.c ****         waterTimer_RT1 |= waterTimer_SYNC;
 108:.\Generated_Source\PSoC4/waterTimer.c **** 
 109:.\Generated_Source\PSoC4/waterTimer.c ****         /*Enable DSI Sync all all inputs of the Timer*/
 110:.\Generated_Source\PSoC4/waterTimer.c ****         waterTimer_RT1 &= ((uint8)(~waterTimer_SYNCDSI_MASK));
 111:.\Generated_Source\PSoC4/waterTimer.c ****         waterTimer_RT1 |= waterTimer_SYNCDSI_EN;
 112:.\Generated_Source\PSoC4/waterTimer.c **** 
 113:.\Generated_Source\PSoC4/waterTimer.c ****         /* Set the IRQ to use the status register interrupts */
 114:.\Generated_Source\PSoC4/waterTimer.c ****         waterTimer_CONTROL2 |= waterTimer_CTRL2_IRQ_SEL;
 115:.\Generated_Source\PSoC4/waterTimer.c ****     #endif /* Configuring registers of fixed function implementation */
 116:.\Generated_Source\PSoC4/waterTimer.c **** 
 117:.\Generated_Source\PSoC4/waterTimer.c ****     /* Set Initial values from Configuration */
 118:.\Generated_Source\PSoC4/waterTimer.c ****     waterTimer_WritePeriod(waterTimer_INIT_PERIOD);
  46              		.loc 1 118 0
  47 0006 114B     		ldr	r3, .L2
  48 0008 181C     		mov	r0, r3
  49 000a FFF7FEFF 		bl	waterTimer_WritePeriod
 119:.\Generated_Source\PSoC4/waterTimer.c ****     waterTimer_WriteCounter(waterTimer_INIT_PERIOD);
  50              		.loc 1 119 0
  51 000e 0F4B     		ldr	r3, .L2
  52 0010 181C     		mov	r0, r3
ARM GAS  C:\Users\BJRN~1\AppData\Local\Temp\ccUg91dw.s 			page 4


  53 0012 FFF7FEFF 		bl	waterTimer_WriteCounter
 120:.\Generated_Source\PSoC4/waterTimer.c **** 
 121:.\Generated_Source\PSoC4/waterTimer.c ****     #if (waterTimer_UsingHWCaptureCounter)/* Capture counter is enabled */
 122:.\Generated_Source\PSoC4/waterTimer.c ****         waterTimer_CAPTURE_COUNT_CTRL |= waterTimer_CNTR_ENABLE;
 123:.\Generated_Source\PSoC4/waterTimer.c ****         waterTimer_SetCaptureCount(waterTimer_INIT_CAPTURE_COUNT);
 124:.\Generated_Source\PSoC4/waterTimer.c ****     #endif /* Configure capture counter value */
 125:.\Generated_Source\PSoC4/waterTimer.c **** 
 126:.\Generated_Source\PSoC4/waterTimer.c ****     #if (!waterTimer_UsingFixedFunction)
 127:.\Generated_Source\PSoC4/waterTimer.c ****         #if (waterTimer_SoftwareCaptureMode)
 128:.\Generated_Source\PSoC4/waterTimer.c ****             waterTimer_SetCaptureMode(waterTimer_INIT_CAPTURE_MODE);
 129:.\Generated_Source\PSoC4/waterTimer.c ****         #endif /* Set Capture Mode for UDB implementation if capture mode is software controlled */
 130:.\Generated_Source\PSoC4/waterTimer.c **** 
 131:.\Generated_Source\PSoC4/waterTimer.c ****         #if (waterTimer_SoftwareTriggerMode)
 132:.\Generated_Source\PSoC4/waterTimer.c ****             if (0u == (waterTimer_CONTROL & waterTimer__B_TIMER__TM_SOFTWARE))
 133:.\Generated_Source\PSoC4/waterTimer.c ****             {
 134:.\Generated_Source\PSoC4/waterTimer.c ****                 waterTimer_SetTriggerMode(waterTimer_INIT_TRIGGER_MODE);
 135:.\Generated_Source\PSoC4/waterTimer.c ****             }
 136:.\Generated_Source\PSoC4/waterTimer.c ****         #endif /* Set trigger mode for UDB Implementation if trigger mode is software controlled */
 137:.\Generated_Source\PSoC4/waterTimer.c **** 
 138:.\Generated_Source\PSoC4/waterTimer.c ****         /* CyEnterCriticalRegion and CyExitCriticalRegion are used to mark following region critica
 139:.\Generated_Source\PSoC4/waterTimer.c ****         /* Enter Critical Region*/
 140:.\Generated_Source\PSoC4/waterTimer.c ****         waterTimer_interruptState = CyEnterCriticalSection();
  54              		.loc 1 140 0
  55 0016 FC1D     		add	r4, r7, #7
  56 0018 FFF7FEFF 		bl	CyEnterCriticalSection
  57 001c 031C     		mov	r3, r0
  58 001e 2370     		strb	r3, [r4]
 141:.\Generated_Source\PSoC4/waterTimer.c **** 
 142:.\Generated_Source\PSoC4/waterTimer.c ****         /* Use the interrupt output of the status register for IRQ output */
 143:.\Generated_Source\PSoC4/waterTimer.c ****         waterTimer_STATUS_AUX_CTRL |= waterTimer_STATUS_ACTL_INT_EN_MASK;
  59              		.loc 1 143 0
  60 0020 0B4B     		ldr	r3, .L2+4
  61 0022 0B4A     		ldr	r2, .L2+4
  62 0024 1278     		ldrb	r2, [r2]
  63 0026 D2B2     		uxtb	r2, r2
  64 0028 1021     		mov	r1, #16
  65 002a 0A43     		orr	r2, r1
  66 002c D2B2     		uxtb	r2, r2
  67 002e 1A70     		strb	r2, [r3]
 144:.\Generated_Source\PSoC4/waterTimer.c **** 
 145:.\Generated_Source\PSoC4/waterTimer.c ****         /* Exit Critical Region*/
 146:.\Generated_Source\PSoC4/waterTimer.c ****         CyExitCriticalSection(waterTimer_interruptState);
  68              		.loc 1 146 0
  69 0030 FB1D     		add	r3, r7, #7
  70 0032 1B78     		ldrb	r3, [r3]
  71 0034 181C     		mov	r0, r3
  72 0036 FFF7FEFF 		bl	CyExitCriticalSection
 147:.\Generated_Source\PSoC4/waterTimer.c **** 
 148:.\Generated_Source\PSoC4/waterTimer.c ****         #if (waterTimer_EnableTriggerMode)
 149:.\Generated_Source\PSoC4/waterTimer.c ****             waterTimer_EnableTrigger();
 150:.\Generated_Source\PSoC4/waterTimer.c ****         #endif /* Set Trigger enable bit for UDB implementation in the control register*/
 151:.\Generated_Source\PSoC4/waterTimer.c **** 
 152:.\Generated_Source\PSoC4/waterTimer.c ****         #if (waterTimer_InterruptOnCaptureCount)
 153:.\Generated_Source\PSoC4/waterTimer.c ****              #if (!waterTimer_ControlRegRemoved)
 154:.\Generated_Source\PSoC4/waterTimer.c ****                 waterTimer_SetInterruptCount(waterTimer_INIT_INT_CAPTURE_COUNT);
 155:.\Generated_Source\PSoC4/waterTimer.c ****             #endif /* Set interrupt count in control register if control register is not removed */
 156:.\Generated_Source\PSoC4/waterTimer.c ****         #endif /*Set interrupt count in UDB implementation if interrupt count feature is checked.*/
ARM GAS  C:\Users\BJRN~1\AppData\Local\Temp\ccUg91dw.s 			page 5


 157:.\Generated_Source\PSoC4/waterTimer.c **** 
 158:.\Generated_Source\PSoC4/waterTimer.c ****         waterTimer_ClearFIFO();
  73              		.loc 1 158 0
  74 003a FFF7FEFF 		bl	waterTimer_ClearFIFO
 159:.\Generated_Source\PSoC4/waterTimer.c ****     #endif /* Configure additional features of UDB implementation */
 160:.\Generated_Source\PSoC4/waterTimer.c **** 
 161:.\Generated_Source\PSoC4/waterTimer.c ****     waterTimer_SetInterruptMode(waterTimer_INIT_INTERRUPT_MODE);
  75              		.loc 1 161 0
  76 003e 0020     		mov	r0, #0
  77 0040 FFF7FEFF 		bl	waterTimer_SetInterruptMode
 162:.\Generated_Source\PSoC4/waterTimer.c **** }
  78              		.loc 1 162 0
  79 0044 BD46     		mov	sp, r7
  80 0046 03B0     		add	sp, sp, #12
  81              		@ sp needed for prologue
  82 0048 90BD     		pop	{r4, r7, pc}
  83              	.L3:
  84 004a C046     		.align	2
  85              	.L2:
  86 004c FFFFFF00 		.word	16777215
  87 0050 92000F40 		.word	1074725010
  88              		.cfi_endproc
  89              	.LFE0:
  90              		.size	waterTimer_Init, .-waterTimer_Init
  91              		.section	.text.waterTimer_Enable,"ax",%progbits
  92              		.align	2
  93              		.global	waterTimer_Enable
  94              		.code	16
  95              		.thumb_func
  96              		.type	waterTimer_Enable, %function
  97              	waterTimer_Enable:
  98              	.LFB1:
 163:.\Generated_Source\PSoC4/waterTimer.c **** 
 164:.\Generated_Source\PSoC4/waterTimer.c **** 
 165:.\Generated_Source\PSoC4/waterTimer.c **** /*******************************************************************************
 166:.\Generated_Source\PSoC4/waterTimer.c **** * Function Name: waterTimer_Enable
 167:.\Generated_Source\PSoC4/waterTimer.c **** ********************************************************************************
 168:.\Generated_Source\PSoC4/waterTimer.c **** *
 169:.\Generated_Source\PSoC4/waterTimer.c **** * Summary:
 170:.\Generated_Source\PSoC4/waterTimer.c **** *  Enable the Timer
 171:.\Generated_Source\PSoC4/waterTimer.c **** *
 172:.\Generated_Source\PSoC4/waterTimer.c **** * Parameters:
 173:.\Generated_Source\PSoC4/waterTimer.c **** *  void
 174:.\Generated_Source\PSoC4/waterTimer.c **** *
 175:.\Generated_Source\PSoC4/waterTimer.c **** * Return:
 176:.\Generated_Source\PSoC4/waterTimer.c **** *  void
 177:.\Generated_Source\PSoC4/waterTimer.c **** *
 178:.\Generated_Source\PSoC4/waterTimer.c **** *******************************************************************************/
 179:.\Generated_Source\PSoC4/waterTimer.c **** void waterTimer_Enable(void) 
 180:.\Generated_Source\PSoC4/waterTimer.c **** {
  99              		.loc 1 180 0
 100              		.cfi_startproc
 101 0000 80B5     		push	{r7, lr}
 102              	.LCFI3:
 103              		.cfi_def_cfa_offset 8
 104              		.cfi_offset 7, -8
 105              		.cfi_offset 14, -4
ARM GAS  C:\Users\BJRN~1\AppData\Local\Temp\ccUg91dw.s 			page 6


 106 0002 00AF     		add	r7, sp, #0
 107              	.LCFI4:
 108              		.cfi_def_cfa_register 7
 181:.\Generated_Source\PSoC4/waterTimer.c ****     /* Globally Enable the Fixed Function Block chosen */
 182:.\Generated_Source\PSoC4/waterTimer.c ****     #if (waterTimer_UsingFixedFunction)
 183:.\Generated_Source\PSoC4/waterTimer.c ****         waterTimer_GLOBAL_ENABLE |= waterTimer_BLOCK_EN_MASK;
 184:.\Generated_Source\PSoC4/waterTimer.c ****         waterTimer_GLOBAL_STBY_ENABLE |= waterTimer_BLOCK_STBY_EN_MASK;
 185:.\Generated_Source\PSoC4/waterTimer.c ****     #endif /* Set Enable bit for enabling Fixed function timer*/
 186:.\Generated_Source\PSoC4/waterTimer.c **** 
 187:.\Generated_Source\PSoC4/waterTimer.c ****     /* Remove assignment if control register is removed */
 188:.\Generated_Source\PSoC4/waterTimer.c ****     #if (!waterTimer_ControlRegRemoved || waterTimer_UsingFixedFunction)
 189:.\Generated_Source\PSoC4/waterTimer.c ****         waterTimer_CONTROL |= waterTimer_CTRL_ENABLE;
 109              		.loc 1 189 0
 110 0004 054B     		ldr	r3, .L5
 111 0006 054A     		ldr	r2, .L5
 112 0008 1278     		ldrb	r2, [r2]
 113 000a D2B2     		uxtb	r2, r2
 114 000c 8021     		mov	r1, #128
 115 000e 4942     		neg	r1, r1
 116 0010 0A43     		orr	r2, r1
 117 0012 D2B2     		uxtb	r2, r2
 118 0014 1A70     		strb	r2, [r3]
 190:.\Generated_Source\PSoC4/waterTimer.c ****     #endif /* Remove assignment if control register is removed */
 191:.\Generated_Source\PSoC4/waterTimer.c **** }
 119              		.loc 1 191 0
 120 0016 BD46     		mov	sp, r7
 121              		@ sp needed for prologue
 122 0018 80BD     		pop	{r7, pc}
 123              	.L6:
 124 001a C046     		.align	2
 125              	.L5:
 126 001c 72000F40 		.word	1074724978
 127              		.cfi_endproc
 128              	.LFE1:
 129              		.size	waterTimer_Enable, .-waterTimer_Enable
 130              		.section	.text.waterTimer_Start,"ax",%progbits
 131              		.align	2
 132              		.global	waterTimer_Start
 133              		.code	16
 134              		.thumb_func
 135              		.type	waterTimer_Start, %function
 136              	waterTimer_Start:
 137              	.LFB2:
 192:.\Generated_Source\PSoC4/waterTimer.c **** 
 193:.\Generated_Source\PSoC4/waterTimer.c **** 
 194:.\Generated_Source\PSoC4/waterTimer.c **** /*******************************************************************************
 195:.\Generated_Source\PSoC4/waterTimer.c **** * Function Name: waterTimer_Start
 196:.\Generated_Source\PSoC4/waterTimer.c **** ********************************************************************************
 197:.\Generated_Source\PSoC4/waterTimer.c **** *
 198:.\Generated_Source\PSoC4/waterTimer.c **** * Summary:
 199:.\Generated_Source\PSoC4/waterTimer.c **** *  The start function initializes the timer with the default values, the
 200:.\Generated_Source\PSoC4/waterTimer.c **** *  enables the timerto begin counting.  It does not enable interrupts,
 201:.\Generated_Source\PSoC4/waterTimer.c **** *  the EnableInt command should be called if interrupt generation is required.
 202:.\Generated_Source\PSoC4/waterTimer.c **** *
 203:.\Generated_Source\PSoC4/waterTimer.c **** * Parameters:
 204:.\Generated_Source\PSoC4/waterTimer.c **** *  void
 205:.\Generated_Source\PSoC4/waterTimer.c **** *
ARM GAS  C:\Users\BJRN~1\AppData\Local\Temp\ccUg91dw.s 			page 7


 206:.\Generated_Source\PSoC4/waterTimer.c **** * Return:
 207:.\Generated_Source\PSoC4/waterTimer.c **** *  void
 208:.\Generated_Source\PSoC4/waterTimer.c **** *
 209:.\Generated_Source\PSoC4/waterTimer.c **** * Global variables:
 210:.\Generated_Source\PSoC4/waterTimer.c **** *  waterTimer_initVar: Is modified when this function is called for the
 211:.\Generated_Source\PSoC4/waterTimer.c **** *   first time. Is used to ensure that initialization happens only once.
 212:.\Generated_Source\PSoC4/waterTimer.c **** *
 213:.\Generated_Source\PSoC4/waterTimer.c **** *******************************************************************************/
 214:.\Generated_Source\PSoC4/waterTimer.c **** void waterTimer_Start(void) 
 215:.\Generated_Source\PSoC4/waterTimer.c **** {
 138              		.loc 1 215 0
 139              		.cfi_startproc
 140 0000 80B5     		push	{r7, lr}
 141              	.LCFI5:
 142              		.cfi_def_cfa_offset 8
 143              		.cfi_offset 7, -8
 144              		.cfi_offset 14, -4
 145 0002 00AF     		add	r7, sp, #0
 146              	.LCFI6:
 147              		.cfi_def_cfa_register 7
 216:.\Generated_Source\PSoC4/waterTimer.c ****     if(waterTimer_initVar == 0u)
 148              		.loc 1 216 0
 149 0004 064B     		ldr	r3, .L9
 150 0006 1B78     		ldrb	r3, [r3]
 151 0008 002B     		cmp	r3, #0
 152 000a 04D1     		bne	.L8
 217:.\Generated_Source\PSoC4/waterTimer.c ****     {
 218:.\Generated_Source\PSoC4/waterTimer.c ****         waterTimer_Init();
 153              		.loc 1 218 0
 154 000c FFF7FEFF 		bl	waterTimer_Init
 219:.\Generated_Source\PSoC4/waterTimer.c **** 
 220:.\Generated_Source\PSoC4/waterTimer.c ****         waterTimer_initVar = 1u;   /* Clear this bit for Initialization */
 155              		.loc 1 220 0
 156 0010 034B     		ldr	r3, .L9
 157 0012 0122     		mov	r2, #1
 158 0014 1A70     		strb	r2, [r3]
 159              	.L8:
 221:.\Generated_Source\PSoC4/waterTimer.c ****     }
 222:.\Generated_Source\PSoC4/waterTimer.c **** 
 223:.\Generated_Source\PSoC4/waterTimer.c ****     /* Enable the Timer */
 224:.\Generated_Source\PSoC4/waterTimer.c ****     waterTimer_Enable();
 160              		.loc 1 224 0
 161 0016 FFF7FEFF 		bl	waterTimer_Enable
 225:.\Generated_Source\PSoC4/waterTimer.c **** }
 162              		.loc 1 225 0
 163 001a BD46     		mov	sp, r7
 164              		@ sp needed for prologue
 165 001c 80BD     		pop	{r7, pc}
 166              	.L10:
 167 001e C046     		.align	2
 168              	.L9:
 169 0020 00000000 		.word	waterTimer_initVar
 170              		.cfi_endproc
 171              	.LFE2:
 172              		.size	waterTimer_Start, .-waterTimer_Start
 173              		.section	.text.waterTimer_Stop,"ax",%progbits
 174              		.align	2
ARM GAS  C:\Users\BJRN~1\AppData\Local\Temp\ccUg91dw.s 			page 8


 175              		.global	waterTimer_Stop
 176              		.code	16
 177              		.thumb_func
 178              		.type	waterTimer_Stop, %function
 179              	waterTimer_Stop:
 180              	.LFB3:
 226:.\Generated_Source\PSoC4/waterTimer.c **** 
 227:.\Generated_Source\PSoC4/waterTimer.c **** 
 228:.\Generated_Source\PSoC4/waterTimer.c **** /*******************************************************************************
 229:.\Generated_Source\PSoC4/waterTimer.c **** * Function Name: waterTimer_Stop
 230:.\Generated_Source\PSoC4/waterTimer.c **** ********************************************************************************
 231:.\Generated_Source\PSoC4/waterTimer.c **** *
 232:.\Generated_Source\PSoC4/waterTimer.c **** * Summary:
 233:.\Generated_Source\PSoC4/waterTimer.c **** *  The stop function halts the timer, but does not change any modes or disable
 234:.\Generated_Source\PSoC4/waterTimer.c **** *  interrupts.
 235:.\Generated_Source\PSoC4/waterTimer.c **** *
 236:.\Generated_Source\PSoC4/waterTimer.c **** * Parameters:
 237:.\Generated_Source\PSoC4/waterTimer.c **** *  void
 238:.\Generated_Source\PSoC4/waterTimer.c **** *
 239:.\Generated_Source\PSoC4/waterTimer.c **** * Return:
 240:.\Generated_Source\PSoC4/waterTimer.c **** *  void
 241:.\Generated_Source\PSoC4/waterTimer.c **** *
 242:.\Generated_Source\PSoC4/waterTimer.c **** * Side Effects: If the Enable mode is set to Hardware only then this function
 243:.\Generated_Source\PSoC4/waterTimer.c **** *               has no effect on the operation of the timer.
 244:.\Generated_Source\PSoC4/waterTimer.c **** *
 245:.\Generated_Source\PSoC4/waterTimer.c **** *******************************************************************************/
 246:.\Generated_Source\PSoC4/waterTimer.c **** void waterTimer_Stop(void) 
 247:.\Generated_Source\PSoC4/waterTimer.c **** {
 181              		.loc 1 247 0
 182              		.cfi_startproc
 183 0000 80B5     		push	{r7, lr}
 184              	.LCFI7:
 185              		.cfi_def_cfa_offset 8
 186              		.cfi_offset 7, -8
 187              		.cfi_offset 14, -4
 188 0002 00AF     		add	r7, sp, #0
 189              	.LCFI8:
 190              		.cfi_def_cfa_register 7
 248:.\Generated_Source\PSoC4/waterTimer.c ****     /* Disable Timer */
 249:.\Generated_Source\PSoC4/waterTimer.c ****     #if(!waterTimer_ControlRegRemoved || waterTimer_UsingFixedFunction)
 250:.\Generated_Source\PSoC4/waterTimer.c ****         waterTimer_CONTROL &= ((uint8)(~waterTimer_CTRL_ENABLE));
 191              		.loc 1 250 0
 192 0004 044B     		ldr	r3, .L12
 193 0006 044A     		ldr	r2, .L12
 194 0008 1278     		ldrb	r2, [r2]
 195 000a D1B2     		uxtb	r1, r2
 196 000c 7F22     		mov	r2, #127
 197 000e 0A40     		and	r2, r1
 198 0010 D2B2     		uxtb	r2, r2
 199 0012 1A70     		strb	r2, [r3]
 251:.\Generated_Source\PSoC4/waterTimer.c ****     #endif /* Remove assignment if control register is removed */
 252:.\Generated_Source\PSoC4/waterTimer.c **** 
 253:.\Generated_Source\PSoC4/waterTimer.c ****     /* Globally disable the Fixed Function Block chosen */
 254:.\Generated_Source\PSoC4/waterTimer.c ****     #if (waterTimer_UsingFixedFunction)
 255:.\Generated_Source\PSoC4/waterTimer.c ****         waterTimer_GLOBAL_ENABLE &= ((uint8)(~waterTimer_BLOCK_EN_MASK));
 256:.\Generated_Source\PSoC4/waterTimer.c ****         waterTimer_GLOBAL_STBY_ENABLE &= ((uint8)(~waterTimer_BLOCK_STBY_EN_MASK));
 257:.\Generated_Source\PSoC4/waterTimer.c ****     #endif /* Disable global enable for the Timer Fixed function block to stop the Timer*/
ARM GAS  C:\Users\BJRN~1\AppData\Local\Temp\ccUg91dw.s 			page 9


 258:.\Generated_Source\PSoC4/waterTimer.c **** }
 200              		.loc 1 258 0
 201 0014 BD46     		mov	sp, r7
 202              		@ sp needed for prologue
 203 0016 80BD     		pop	{r7, pc}
 204              	.L13:
 205              		.align	2
 206              	.L12:
 207 0018 72000F40 		.word	1074724978
 208              		.cfi_endproc
 209              	.LFE3:
 210              		.size	waterTimer_Stop, .-waterTimer_Stop
 211              		.section	.text.waterTimer_SetInterruptMode,"ax",%progbits
 212              		.align	2
 213              		.global	waterTimer_SetInterruptMode
 214              		.code	16
 215              		.thumb_func
 216              		.type	waterTimer_SetInterruptMode, %function
 217              	waterTimer_SetInterruptMode:
 218              	.LFB4:
 259:.\Generated_Source\PSoC4/waterTimer.c **** 
 260:.\Generated_Source\PSoC4/waterTimer.c **** 
 261:.\Generated_Source\PSoC4/waterTimer.c **** /*******************************************************************************
 262:.\Generated_Source\PSoC4/waterTimer.c **** * Function Name: waterTimer_SetInterruptMode
 263:.\Generated_Source\PSoC4/waterTimer.c **** ********************************************************************************
 264:.\Generated_Source\PSoC4/waterTimer.c **** *
 265:.\Generated_Source\PSoC4/waterTimer.c **** * Summary:
 266:.\Generated_Source\PSoC4/waterTimer.c **** *  This function selects which of the interrupt inputs may cause an interrupt.
 267:.\Generated_Source\PSoC4/waterTimer.c **** *  The twosources are caputure and terminal.  One, both or neither may
 268:.\Generated_Source\PSoC4/waterTimer.c **** *  be selected.
 269:.\Generated_Source\PSoC4/waterTimer.c **** *
 270:.\Generated_Source\PSoC4/waterTimer.c **** * Parameters:
 271:.\Generated_Source\PSoC4/waterTimer.c **** *  interruptMode:   This parameter is used to enable interrups on either/or
 272:.\Generated_Source\PSoC4/waterTimer.c **** *                   terminal count or capture.
 273:.\Generated_Source\PSoC4/waterTimer.c **** *
 274:.\Generated_Source\PSoC4/waterTimer.c **** * Return:
 275:.\Generated_Source\PSoC4/waterTimer.c **** *  void
 276:.\Generated_Source\PSoC4/waterTimer.c **** *
 277:.\Generated_Source\PSoC4/waterTimer.c **** *******************************************************************************/
 278:.\Generated_Source\PSoC4/waterTimer.c **** void waterTimer_SetInterruptMode(uint8 interruptMode) 
 279:.\Generated_Source\PSoC4/waterTimer.c **** {
 219              		.loc 1 279 0
 220              		.cfi_startproc
 221 0000 80B5     		push	{r7, lr}
 222              	.LCFI9:
 223              		.cfi_def_cfa_offset 8
 224              		.cfi_offset 7, -8
 225              		.cfi_offset 14, -4
 226 0002 82B0     		sub	sp, sp, #8
 227              	.LCFI10:
 228              		.cfi_def_cfa_offset 16
 229 0004 00AF     		add	r7, sp, #0
 230              	.LCFI11:
 231              		.cfi_def_cfa_register 7
 232 0006 021C     		mov	r2, r0
 233 0008 FB1D     		add	r3, r7, #7
 234 000a 1A70     		strb	r2, [r3]
ARM GAS  C:\Users\BJRN~1\AppData\Local\Temp\ccUg91dw.s 			page 10


 280:.\Generated_Source\PSoC4/waterTimer.c ****     waterTimer_STATUS_MASK = interruptMode;
 235              		.loc 1 280 0
 236 000c 034B     		ldr	r3, .L15
 237 000e FA1D     		add	r2, r7, #7
 238 0010 1278     		ldrb	r2, [r2]
 239 0012 1A70     		strb	r2, [r3]
 281:.\Generated_Source\PSoC4/waterTimer.c **** }
 240              		.loc 1 281 0
 241 0014 BD46     		mov	sp, r7
 242 0016 02B0     		add	sp, sp, #8
 243              		@ sp needed for prologue
 244 0018 80BD     		pop	{r7, pc}
 245              	.L16:
 246 001a C046     		.align	2
 247              	.L15:
 248 001c 82000F40 		.word	1074724994
 249              		.cfi_endproc
 250              	.LFE4:
 251              		.size	waterTimer_SetInterruptMode, .-waterTimer_SetInterruptMode
 252              		.section	.text.waterTimer_SoftwareCapture,"ax",%progbits
 253              		.align	2
 254              		.global	waterTimer_SoftwareCapture
 255              		.code	16
 256              		.thumb_func
 257              		.type	waterTimer_SoftwareCapture, %function
 258              	waterTimer_SoftwareCapture:
 259              	.LFB5:
 282:.\Generated_Source\PSoC4/waterTimer.c **** 
 283:.\Generated_Source\PSoC4/waterTimer.c **** 
 284:.\Generated_Source\PSoC4/waterTimer.c **** /*******************************************************************************
 285:.\Generated_Source\PSoC4/waterTimer.c **** * Function Name: waterTimer_SoftwareCapture
 286:.\Generated_Source\PSoC4/waterTimer.c **** ********************************************************************************
 287:.\Generated_Source\PSoC4/waterTimer.c **** *
 288:.\Generated_Source\PSoC4/waterTimer.c **** * Summary:
 289:.\Generated_Source\PSoC4/waterTimer.c **** *  This function forces a capture independent of the capture signal.
 290:.\Generated_Source\PSoC4/waterTimer.c **** *
 291:.\Generated_Source\PSoC4/waterTimer.c **** * Parameters:
 292:.\Generated_Source\PSoC4/waterTimer.c **** *  void
 293:.\Generated_Source\PSoC4/waterTimer.c **** *
 294:.\Generated_Source\PSoC4/waterTimer.c **** * Return:
 295:.\Generated_Source\PSoC4/waterTimer.c **** *  void
 296:.\Generated_Source\PSoC4/waterTimer.c **** *
 297:.\Generated_Source\PSoC4/waterTimer.c **** * Side Effects:
 298:.\Generated_Source\PSoC4/waterTimer.c **** *  An existing hardware capture could be overwritten.
 299:.\Generated_Source\PSoC4/waterTimer.c **** *
 300:.\Generated_Source\PSoC4/waterTimer.c **** *******************************************************************************/
 301:.\Generated_Source\PSoC4/waterTimer.c **** void waterTimer_SoftwareCapture(void) 
 302:.\Generated_Source\PSoC4/waterTimer.c **** {
 260              		.loc 1 302 0
 261              		.cfi_startproc
 262 0000 80B5     		push	{r7, lr}
 263              	.LCFI12:
 264              		.cfi_def_cfa_offset 8
 265              		.cfi_offset 7, -8
 266              		.cfi_offset 14, -4
 267 0002 00AF     		add	r7, sp, #0
 268              	.LCFI13:
ARM GAS  C:\Users\BJRN~1\AppData\Local\Temp\ccUg91dw.s 			page 11


 269              		.cfi_def_cfa_register 7
 303:.\Generated_Source\PSoC4/waterTimer.c ****     /* Generate a software capture by reading the counter register */
 304:.\Generated_Source\PSoC4/waterTimer.c ****     (void)waterTimer_COUNTER_LSB;
 270              		.loc 1 304 0
 271 0004 014B     		ldr	r3, .L18
 272 0006 1B68     		ldr	r3, [r3]
 305:.\Generated_Source\PSoC4/waterTimer.c ****     /* Capture Data is now in the FIFO */
 306:.\Generated_Source\PSoC4/waterTimer.c **** }
 273              		.loc 1 306 0
 274 0008 BD46     		mov	sp, r7
 275              		@ sp needed for prologue
 276 000a 80BD     		pop	{r7, pc}
 277              	.L19:
 278              		.align	2
 279              	.L18:
 280 000c 00000F40 		.word	1074724864
 281              		.cfi_endproc
 282              	.LFE5:
 283              		.size	waterTimer_SoftwareCapture, .-waterTimer_SoftwareCapture
 284              		.section	.text.waterTimer_ReadStatusRegister,"ax",%progbits
 285              		.align	2
 286              		.global	waterTimer_ReadStatusRegister
 287              		.code	16
 288              		.thumb_func
 289              		.type	waterTimer_ReadStatusRegister, %function
 290              	waterTimer_ReadStatusRegister:
 291              	.LFB6:
 307:.\Generated_Source\PSoC4/waterTimer.c **** 
 308:.\Generated_Source\PSoC4/waterTimer.c **** 
 309:.\Generated_Source\PSoC4/waterTimer.c **** /*******************************************************************************
 310:.\Generated_Source\PSoC4/waterTimer.c **** * Function Name: waterTimer_ReadStatusRegister
 311:.\Generated_Source\PSoC4/waterTimer.c **** ********************************************************************************
 312:.\Generated_Source\PSoC4/waterTimer.c **** *
 313:.\Generated_Source\PSoC4/waterTimer.c **** * Summary:
 314:.\Generated_Source\PSoC4/waterTimer.c **** *  Reads the status register and returns it's state. This function should use
 315:.\Generated_Source\PSoC4/waterTimer.c **** *  defined types for the bit-field information as the bits in this register may
 316:.\Generated_Source\PSoC4/waterTimer.c **** *  be permuteable.
 317:.\Generated_Source\PSoC4/waterTimer.c **** *
 318:.\Generated_Source\PSoC4/waterTimer.c **** * Parameters:
 319:.\Generated_Source\PSoC4/waterTimer.c **** *  void
 320:.\Generated_Source\PSoC4/waterTimer.c **** *
 321:.\Generated_Source\PSoC4/waterTimer.c **** * Return:
 322:.\Generated_Source\PSoC4/waterTimer.c **** *  The contents of the status register
 323:.\Generated_Source\PSoC4/waterTimer.c **** *
 324:.\Generated_Source\PSoC4/waterTimer.c **** * Side Effects:
 325:.\Generated_Source\PSoC4/waterTimer.c **** *  Status register bits may be clear on read.
 326:.\Generated_Source\PSoC4/waterTimer.c **** *
 327:.\Generated_Source\PSoC4/waterTimer.c **** *******************************************************************************/
 328:.\Generated_Source\PSoC4/waterTimer.c **** uint8   waterTimer_ReadStatusRegister(void) 
 329:.\Generated_Source\PSoC4/waterTimer.c **** {
 292              		.loc 1 329 0
 293              		.cfi_startproc
 294 0000 80B5     		push	{r7, lr}
 295              	.LCFI14:
 296              		.cfi_def_cfa_offset 8
 297              		.cfi_offset 7, -8
 298              		.cfi_offset 14, -4
ARM GAS  C:\Users\BJRN~1\AppData\Local\Temp\ccUg91dw.s 			page 12


 299 0002 00AF     		add	r7, sp, #0
 300              	.LCFI15:
 301              		.cfi_def_cfa_register 7
 330:.\Generated_Source\PSoC4/waterTimer.c ****     return (waterTimer_STATUS);
 302              		.loc 1 330 0
 303 0004 024B     		ldr	r3, .L22
 304 0006 1B78     		ldrb	r3, [r3]
 305 0008 DBB2     		uxtb	r3, r3
 331:.\Generated_Source\PSoC4/waterTimer.c **** }
 306              		.loc 1 331 0
 307 000a 181C     		mov	r0, r3
 308 000c BD46     		mov	sp, r7
 309              		@ sp needed for prologue
 310 000e 80BD     		pop	{r7, pc}
 311              	.L23:
 312              		.align	2
 313              	.L22:
 314 0010 62000F40 		.word	1074724962
 315              		.cfi_endproc
 316              	.LFE6:
 317              		.size	waterTimer_ReadStatusRegister, .-waterTimer_ReadStatusRegister
 318              		.section	.text.waterTimer_ReadControlRegister,"ax",%progbits
 319              		.align	2
 320              		.global	waterTimer_ReadControlRegister
 321              		.code	16
 322              		.thumb_func
 323              		.type	waterTimer_ReadControlRegister, %function
 324              	waterTimer_ReadControlRegister:
 325              	.LFB7:
 332:.\Generated_Source\PSoC4/waterTimer.c **** 
 333:.\Generated_Source\PSoC4/waterTimer.c **** 
 334:.\Generated_Source\PSoC4/waterTimer.c **** #if (!waterTimer_ControlRegRemoved) /* Remove API if control register is removed */
 335:.\Generated_Source\PSoC4/waterTimer.c **** 
 336:.\Generated_Source\PSoC4/waterTimer.c **** 
 337:.\Generated_Source\PSoC4/waterTimer.c **** /*******************************************************************************
 338:.\Generated_Source\PSoC4/waterTimer.c **** * Function Name: waterTimer_ReadControlRegister
 339:.\Generated_Source\PSoC4/waterTimer.c **** ********************************************************************************
 340:.\Generated_Source\PSoC4/waterTimer.c **** *
 341:.\Generated_Source\PSoC4/waterTimer.c **** * Summary:
 342:.\Generated_Source\PSoC4/waterTimer.c **** *  Reads the control register and returns it's value.
 343:.\Generated_Source\PSoC4/waterTimer.c **** *
 344:.\Generated_Source\PSoC4/waterTimer.c **** * Parameters:
 345:.\Generated_Source\PSoC4/waterTimer.c **** *  void
 346:.\Generated_Source\PSoC4/waterTimer.c **** *
 347:.\Generated_Source\PSoC4/waterTimer.c **** * Return:
 348:.\Generated_Source\PSoC4/waterTimer.c **** *  The contents of the control register
 349:.\Generated_Source\PSoC4/waterTimer.c **** *
 350:.\Generated_Source\PSoC4/waterTimer.c **** *******************************************************************************/
 351:.\Generated_Source\PSoC4/waterTimer.c **** uint8 waterTimer_ReadControlRegister(void) 
 352:.\Generated_Source\PSoC4/waterTimer.c **** {
 326              		.loc 1 352 0
 327              		.cfi_startproc
 328 0000 80B5     		push	{r7, lr}
 329              	.LCFI16:
 330              		.cfi_def_cfa_offset 8
 331              		.cfi_offset 7, -8
 332              		.cfi_offset 14, -4
ARM GAS  C:\Users\BJRN~1\AppData\Local\Temp\ccUg91dw.s 			page 13


 333 0002 00AF     		add	r7, sp, #0
 334              	.LCFI17:
 335              		.cfi_def_cfa_register 7
 353:.\Generated_Source\PSoC4/waterTimer.c ****     return ((uint8)waterTimer_CONTROL);
 336              		.loc 1 353 0
 337 0004 024B     		ldr	r3, .L26
 338 0006 1B78     		ldrb	r3, [r3]
 339 0008 DBB2     		uxtb	r3, r3
 354:.\Generated_Source\PSoC4/waterTimer.c **** }
 340              		.loc 1 354 0
 341 000a 181C     		mov	r0, r3
 342 000c BD46     		mov	sp, r7
 343              		@ sp needed for prologue
 344 000e 80BD     		pop	{r7, pc}
 345              	.L27:
 346              		.align	2
 347              	.L26:
 348 0010 72000F40 		.word	1074724978
 349              		.cfi_endproc
 350              	.LFE7:
 351              		.size	waterTimer_ReadControlRegister, .-waterTimer_ReadControlRegister
 352              		.section	.text.waterTimer_WriteControlRegister,"ax",%progbits
 353              		.align	2
 354              		.global	waterTimer_WriteControlRegister
 355              		.code	16
 356              		.thumb_func
 357              		.type	waterTimer_WriteControlRegister, %function
 358              	waterTimer_WriteControlRegister:
 359              	.LFB8:
 355:.\Generated_Source\PSoC4/waterTimer.c **** 
 356:.\Generated_Source\PSoC4/waterTimer.c **** 
 357:.\Generated_Source\PSoC4/waterTimer.c **** /*******************************************************************************
 358:.\Generated_Source\PSoC4/waterTimer.c **** * Function Name: waterTimer_WriteControlRegister
 359:.\Generated_Source\PSoC4/waterTimer.c **** ********************************************************************************
 360:.\Generated_Source\PSoC4/waterTimer.c **** *
 361:.\Generated_Source\PSoC4/waterTimer.c **** * Summary:
 362:.\Generated_Source\PSoC4/waterTimer.c **** *  Sets the bit-field of the control register.
 363:.\Generated_Source\PSoC4/waterTimer.c **** *
 364:.\Generated_Source\PSoC4/waterTimer.c **** * Parameters:
 365:.\Generated_Source\PSoC4/waterTimer.c **** *  control: The contents of the control register
 366:.\Generated_Source\PSoC4/waterTimer.c **** *
 367:.\Generated_Source\PSoC4/waterTimer.c **** * Return:
 368:.\Generated_Source\PSoC4/waterTimer.c **** *
 369:.\Generated_Source\PSoC4/waterTimer.c **** *******************************************************************************/
 370:.\Generated_Source\PSoC4/waterTimer.c **** void waterTimer_WriteControlRegister(uint8 control) 
 371:.\Generated_Source\PSoC4/waterTimer.c **** {
 360              		.loc 1 371 0
 361              		.cfi_startproc
 362 0000 80B5     		push	{r7, lr}
 363              	.LCFI18:
 364              		.cfi_def_cfa_offset 8
 365              		.cfi_offset 7, -8
 366              		.cfi_offset 14, -4
 367 0002 82B0     		sub	sp, sp, #8
 368              	.LCFI19:
 369              		.cfi_def_cfa_offset 16
 370 0004 00AF     		add	r7, sp, #0
ARM GAS  C:\Users\BJRN~1\AppData\Local\Temp\ccUg91dw.s 			page 14


 371              	.LCFI20:
 372              		.cfi_def_cfa_register 7
 373 0006 021C     		mov	r2, r0
 374 0008 FB1D     		add	r3, r7, #7
 375 000a 1A70     		strb	r2, [r3]
 372:.\Generated_Source\PSoC4/waterTimer.c ****     waterTimer_CONTROL = control;
 376              		.loc 1 372 0
 377 000c 034B     		ldr	r3, .L29
 378 000e FA1D     		add	r2, r7, #7
 379 0010 1278     		ldrb	r2, [r2]
 380 0012 1A70     		strb	r2, [r3]
 373:.\Generated_Source\PSoC4/waterTimer.c **** }
 381              		.loc 1 373 0
 382 0014 BD46     		mov	sp, r7
 383 0016 02B0     		add	sp, sp, #8
 384              		@ sp needed for prologue
 385 0018 80BD     		pop	{r7, pc}
 386              	.L30:
 387 001a C046     		.align	2
 388              	.L29:
 389 001c 72000F40 		.word	1074724978
 390              		.cfi_endproc
 391              	.LFE8:
 392              		.size	waterTimer_WriteControlRegister, .-waterTimer_WriteControlRegister
 393              		.section	.text.waterTimer_ReadPeriod,"ax",%progbits
 394              		.align	2
 395              		.global	waterTimer_ReadPeriod
 396              		.code	16
 397              		.thumb_func
 398              		.type	waterTimer_ReadPeriod, %function
 399              	waterTimer_ReadPeriod:
 400              	.LFB9:
 374:.\Generated_Source\PSoC4/waterTimer.c **** #endif /* Remove API if control register is removed */
 375:.\Generated_Source\PSoC4/waterTimer.c **** 
 376:.\Generated_Source\PSoC4/waterTimer.c **** 
 377:.\Generated_Source\PSoC4/waterTimer.c **** /*******************************************************************************
 378:.\Generated_Source\PSoC4/waterTimer.c **** * Function Name: waterTimer_ReadPeriod
 379:.\Generated_Source\PSoC4/waterTimer.c **** ********************************************************************************
 380:.\Generated_Source\PSoC4/waterTimer.c **** *
 381:.\Generated_Source\PSoC4/waterTimer.c **** * Summary:
 382:.\Generated_Source\PSoC4/waterTimer.c **** *  This function returns the current value of the Period.
 383:.\Generated_Source\PSoC4/waterTimer.c **** *
 384:.\Generated_Source\PSoC4/waterTimer.c **** * Parameters:
 385:.\Generated_Source\PSoC4/waterTimer.c **** *  void
 386:.\Generated_Source\PSoC4/waterTimer.c **** *
 387:.\Generated_Source\PSoC4/waterTimer.c **** * Return:
 388:.\Generated_Source\PSoC4/waterTimer.c **** *  The present value of the counter.
 389:.\Generated_Source\PSoC4/waterTimer.c **** *
 390:.\Generated_Source\PSoC4/waterTimer.c **** *******************************************************************************/
 391:.\Generated_Source\PSoC4/waterTimer.c **** uint32 waterTimer_ReadPeriod(void) 
 392:.\Generated_Source\PSoC4/waterTimer.c **** {
 401              		.loc 1 392 0
 402              		.cfi_startproc
 403 0000 80B5     		push	{r7, lr}
 404              	.LCFI21:
 405              		.cfi_def_cfa_offset 8
 406              		.cfi_offset 7, -8
ARM GAS  C:\Users\BJRN~1\AppData\Local\Temp\ccUg91dw.s 			page 15


 407              		.cfi_offset 14, -4
 408 0002 00AF     		add	r7, sp, #0
 409              	.LCFI22:
 410              		.cfi_def_cfa_register 7
 393:.\Generated_Source\PSoC4/waterTimer.c ****    #if(waterTimer_UsingFixedFunction)
 394:.\Generated_Source\PSoC4/waterTimer.c ****        return ((uint32)CY_GET_REG16(waterTimer_PERIOD_LSB_PTR));
 395:.\Generated_Source\PSoC4/waterTimer.c ****    #else
 396:.\Generated_Source\PSoC4/waterTimer.c ****        return (CY_GET_REG24(waterTimer_PERIOD_LSB_PTR));
 411              		.loc 1 396 0
 412 0004 034B     		ldr	r3, .L33
 413 0006 181C     		mov	r0, r3
 414 0008 FFF7FEFF 		bl	CyGetReg24
 415 000c 031C     		mov	r3, r0
 397:.\Generated_Source\PSoC4/waterTimer.c ****    #endif /* (waterTimer_UsingFixedFunction) */
 398:.\Generated_Source\PSoC4/waterTimer.c **** }
 416              		.loc 1 398 0
 417 000e 181C     		mov	r0, r3
 418 0010 BD46     		mov	sp, r7
 419              		@ sp needed for prologue
 420 0012 80BD     		pop	{r7, pc}
 421              	.L34:
 422              		.align	2
 423              	.L33:
 424 0014 20000F40 		.word	1074724896
 425              		.cfi_endproc
 426              	.LFE9:
 427              		.size	waterTimer_ReadPeriod, .-waterTimer_ReadPeriod
 428              		.section	.text.waterTimer_WritePeriod,"ax",%progbits
 429              		.align	2
 430              		.global	waterTimer_WritePeriod
 431              		.code	16
 432              		.thumb_func
 433              		.type	waterTimer_WritePeriod, %function
 434              	waterTimer_WritePeriod:
 435              	.LFB10:
 399:.\Generated_Source\PSoC4/waterTimer.c **** 
 400:.\Generated_Source\PSoC4/waterTimer.c **** 
 401:.\Generated_Source\PSoC4/waterTimer.c **** /*******************************************************************************
 402:.\Generated_Source\PSoC4/waterTimer.c **** * Function Name: waterTimer_WritePeriod
 403:.\Generated_Source\PSoC4/waterTimer.c **** ********************************************************************************
 404:.\Generated_Source\PSoC4/waterTimer.c **** *
 405:.\Generated_Source\PSoC4/waterTimer.c **** * Summary:
 406:.\Generated_Source\PSoC4/waterTimer.c **** *  This function is used to change the period of the counter.  The new period
 407:.\Generated_Source\PSoC4/waterTimer.c **** *  will be loaded the next time terminal count is detected.
 408:.\Generated_Source\PSoC4/waterTimer.c **** *
 409:.\Generated_Source\PSoC4/waterTimer.c **** * Parameters:
 410:.\Generated_Source\PSoC4/waterTimer.c **** *  period: This value may be between 1 and (2^Resolution)-1.  A value of 0 will
 411:.\Generated_Source\PSoC4/waterTimer.c **** *          result in the counter remaining at zero.
 412:.\Generated_Source\PSoC4/waterTimer.c **** *
 413:.\Generated_Source\PSoC4/waterTimer.c **** * Return:
 414:.\Generated_Source\PSoC4/waterTimer.c **** *  void
 415:.\Generated_Source\PSoC4/waterTimer.c **** *
 416:.\Generated_Source\PSoC4/waterTimer.c **** *******************************************************************************/
 417:.\Generated_Source\PSoC4/waterTimer.c **** void waterTimer_WritePeriod(uint32 period) 
 418:.\Generated_Source\PSoC4/waterTimer.c **** {
 436              		.loc 1 418 0
 437              		.cfi_startproc
ARM GAS  C:\Users\BJRN~1\AppData\Local\Temp\ccUg91dw.s 			page 16


 438 0000 80B5     		push	{r7, lr}
 439              	.LCFI23:
 440              		.cfi_def_cfa_offset 8
 441              		.cfi_offset 7, -8
 442              		.cfi_offset 14, -4
 443 0002 82B0     		sub	sp, sp, #8
 444              	.LCFI24:
 445              		.cfi_def_cfa_offset 16
 446 0004 00AF     		add	r7, sp, #0
 447              	.LCFI25:
 448              		.cfi_def_cfa_register 7
 449 0006 7860     		str	r0, [r7, #4]
 419:.\Generated_Source\PSoC4/waterTimer.c ****     #if(waterTimer_UsingFixedFunction)
 420:.\Generated_Source\PSoC4/waterTimer.c ****         uint16 period_temp = (uint16)period;
 421:.\Generated_Source\PSoC4/waterTimer.c ****         CY_SET_REG16(waterTimer_PERIOD_LSB_PTR, period_temp);
 422:.\Generated_Source\PSoC4/waterTimer.c ****     #else
 423:.\Generated_Source\PSoC4/waterTimer.c ****         CY_SET_REG24(waterTimer_PERIOD_LSB_PTR, period);
 450              		.loc 1 423 0
 451 0008 044A     		ldr	r2, .L36
 452 000a 7B68     		ldr	r3, [r7, #4]
 453 000c 101C     		mov	r0, r2
 454 000e 191C     		mov	r1, r3
 455 0010 FFF7FEFF 		bl	CySetReg24
 424:.\Generated_Source\PSoC4/waterTimer.c ****     #endif /*Write Period value with appropriate resolution suffix depending on UDB or fixed functi
 425:.\Generated_Source\PSoC4/waterTimer.c **** }
 456              		.loc 1 425 0
 457 0014 BD46     		mov	sp, r7
 458 0016 02B0     		add	sp, sp, #8
 459              		@ sp needed for prologue
 460 0018 80BD     		pop	{r7, pc}
 461              	.L37:
 462 001a C046     		.align	2
 463              	.L36:
 464 001c 20000F40 		.word	1074724896
 465              		.cfi_endproc
 466              	.LFE10:
 467              		.size	waterTimer_WritePeriod, .-waterTimer_WritePeriod
 468              		.section	.text.waterTimer_ReadCapture,"ax",%progbits
 469              		.align	2
 470              		.global	waterTimer_ReadCapture
 471              		.code	16
 472              		.thumb_func
 473              		.type	waterTimer_ReadCapture, %function
 474              	waterTimer_ReadCapture:
 475              	.LFB11:
 426:.\Generated_Source\PSoC4/waterTimer.c **** 
 427:.\Generated_Source\PSoC4/waterTimer.c **** 
 428:.\Generated_Source\PSoC4/waterTimer.c **** /*******************************************************************************
 429:.\Generated_Source\PSoC4/waterTimer.c **** * Function Name: waterTimer_ReadCapture
 430:.\Generated_Source\PSoC4/waterTimer.c **** ********************************************************************************
 431:.\Generated_Source\PSoC4/waterTimer.c **** *
 432:.\Generated_Source\PSoC4/waterTimer.c **** * Summary:
 433:.\Generated_Source\PSoC4/waterTimer.c **** *  This function returns the last value captured.
 434:.\Generated_Source\PSoC4/waterTimer.c **** *
 435:.\Generated_Source\PSoC4/waterTimer.c **** * Parameters:
 436:.\Generated_Source\PSoC4/waterTimer.c **** *  void
 437:.\Generated_Source\PSoC4/waterTimer.c **** *
ARM GAS  C:\Users\BJRN~1\AppData\Local\Temp\ccUg91dw.s 			page 17


 438:.\Generated_Source\PSoC4/waterTimer.c **** * Return:
 439:.\Generated_Source\PSoC4/waterTimer.c **** *  Present Capture value.
 440:.\Generated_Source\PSoC4/waterTimer.c **** *
 441:.\Generated_Source\PSoC4/waterTimer.c **** *******************************************************************************/
 442:.\Generated_Source\PSoC4/waterTimer.c **** uint32 waterTimer_ReadCapture(void) 
 443:.\Generated_Source\PSoC4/waterTimer.c **** {
 476              		.loc 1 443 0
 477              		.cfi_startproc
 478 0000 80B5     		push	{r7, lr}
 479              	.LCFI26:
 480              		.cfi_def_cfa_offset 8
 481              		.cfi_offset 7, -8
 482              		.cfi_offset 14, -4
 483 0002 00AF     		add	r7, sp, #0
 484              	.LCFI27:
 485              		.cfi_def_cfa_register 7
 444:.\Generated_Source\PSoC4/waterTimer.c ****    #if(waterTimer_UsingFixedFunction)
 445:.\Generated_Source\PSoC4/waterTimer.c ****        return ((uint32)CY_GET_REG16(waterTimer_CAPTURE_LSB_PTR));
 446:.\Generated_Source\PSoC4/waterTimer.c ****    #else
 447:.\Generated_Source\PSoC4/waterTimer.c ****        return (CY_GET_REG24(waterTimer_CAPTURE_LSB_PTR));
 486              		.loc 1 447 0
 487 0004 034B     		ldr	r3, .L40
 488 0006 181C     		mov	r0, r3
 489 0008 FFF7FEFF 		bl	CyGetReg24
 490 000c 031C     		mov	r3, r0
 448:.\Generated_Source\PSoC4/waterTimer.c ****    #endif /* (waterTimer_UsingFixedFunction) */
 449:.\Generated_Source\PSoC4/waterTimer.c **** }
 491              		.loc 1 449 0
 492 000e 181C     		mov	r0, r3
 493 0010 BD46     		mov	sp, r7
 494              		@ sp needed for prologue
 495 0012 80BD     		pop	{r7, pc}
 496              	.L41:
 497              		.align	2
 498              	.L40:
 499 0014 40000F40 		.word	1074724928
 500              		.cfi_endproc
 501              	.LFE11:
 502              		.size	waterTimer_ReadCapture, .-waterTimer_ReadCapture
 503              		.section	.text.waterTimer_WriteCounter,"ax",%progbits
 504              		.align	2
 505              		.global	waterTimer_WriteCounter
 506              		.code	16
 507              		.thumb_func
 508              		.type	waterTimer_WriteCounter, %function
 509              	waterTimer_WriteCounter:
 510              	.LFB12:
 450:.\Generated_Source\PSoC4/waterTimer.c **** 
 451:.\Generated_Source\PSoC4/waterTimer.c **** 
 452:.\Generated_Source\PSoC4/waterTimer.c **** /*******************************************************************************
 453:.\Generated_Source\PSoC4/waterTimer.c **** * Function Name: waterTimer_WriteCounter
 454:.\Generated_Source\PSoC4/waterTimer.c **** ********************************************************************************
 455:.\Generated_Source\PSoC4/waterTimer.c **** *
 456:.\Generated_Source\PSoC4/waterTimer.c **** * Summary:
 457:.\Generated_Source\PSoC4/waterTimer.c **** *  This funtion is used to set the counter to a specific value
 458:.\Generated_Source\PSoC4/waterTimer.c **** *
 459:.\Generated_Source\PSoC4/waterTimer.c **** * Parameters:
ARM GAS  C:\Users\BJRN~1\AppData\Local\Temp\ccUg91dw.s 			page 18


 460:.\Generated_Source\PSoC4/waterTimer.c **** *  counter:  New counter value.
 461:.\Generated_Source\PSoC4/waterTimer.c **** *
 462:.\Generated_Source\PSoC4/waterTimer.c **** * Return:
 463:.\Generated_Source\PSoC4/waterTimer.c **** *  void
 464:.\Generated_Source\PSoC4/waterTimer.c **** *
 465:.\Generated_Source\PSoC4/waterTimer.c **** *******************************************************************************/
 466:.\Generated_Source\PSoC4/waterTimer.c **** void waterTimer_WriteCounter(uint32 counter) \
 467:.\Generated_Source\PSoC4/waterTimer.c ****                                    
 468:.\Generated_Source\PSoC4/waterTimer.c **** {
 511              		.loc 1 468 0
 512              		.cfi_startproc
 513 0000 80B5     		push	{r7, lr}
 514              	.LCFI28:
 515              		.cfi_def_cfa_offset 8
 516              		.cfi_offset 7, -8
 517              		.cfi_offset 14, -4
 518 0002 82B0     		sub	sp, sp, #8
 519              	.LCFI29:
 520              		.cfi_def_cfa_offset 16
 521 0004 00AF     		add	r7, sp, #0
 522              	.LCFI30:
 523              		.cfi_def_cfa_register 7
 524 0006 7860     		str	r0, [r7, #4]
 469:.\Generated_Source\PSoC4/waterTimer.c ****    #if(waterTimer_UsingFixedFunction)
 470:.\Generated_Source\PSoC4/waterTimer.c ****         /* This functionality is removed until a FixedFunction HW update to
 471:.\Generated_Source\PSoC4/waterTimer.c ****          * allow this register to be written
 472:.\Generated_Source\PSoC4/waterTimer.c ****          */
 473:.\Generated_Source\PSoC4/waterTimer.c ****         CY_SET_REG16(waterTimer_COUNTER_LSB_PTR, (uint16)counter);
 474:.\Generated_Source\PSoC4/waterTimer.c ****         
 475:.\Generated_Source\PSoC4/waterTimer.c ****     #else
 476:.\Generated_Source\PSoC4/waterTimer.c ****         CY_SET_REG24(waterTimer_COUNTER_LSB_PTR, counter);
 525              		.loc 1 476 0
 526 0008 044A     		ldr	r2, .L43
 527 000a 7B68     		ldr	r3, [r7, #4]
 528 000c 101C     		mov	r0, r2
 529 000e 191C     		mov	r1, r3
 530 0010 FFF7FEFF 		bl	CySetReg24
 477:.\Generated_Source\PSoC4/waterTimer.c ****     #endif /* Set Write Counter only for the UDB implementation (Write Counter not available in fix
 478:.\Generated_Source\PSoC4/waterTimer.c **** }
 531              		.loc 1 478 0
 532 0014 BD46     		mov	sp, r7
 533 0016 02B0     		add	sp, sp, #8
 534              		@ sp needed for prologue
 535 0018 80BD     		pop	{r7, pc}
 536              	.L44:
 537 001a C046     		.align	2
 538              	.L43:
 539 001c 00000F40 		.word	1074724864
 540              		.cfi_endproc
 541              	.LFE12:
 542              		.size	waterTimer_WriteCounter, .-waterTimer_WriteCounter
 543              		.section	.text.waterTimer_ReadCounter,"ax",%progbits
 544              		.align	2
 545              		.global	waterTimer_ReadCounter
 546              		.code	16
 547              		.thumb_func
 548              		.type	waterTimer_ReadCounter, %function
ARM GAS  C:\Users\BJRN~1\AppData\Local\Temp\ccUg91dw.s 			page 19


 549              	waterTimer_ReadCounter:
 550              	.LFB13:
 479:.\Generated_Source\PSoC4/waterTimer.c **** 
 480:.\Generated_Source\PSoC4/waterTimer.c **** 
 481:.\Generated_Source\PSoC4/waterTimer.c **** /*******************************************************************************
 482:.\Generated_Source\PSoC4/waterTimer.c **** * Function Name: waterTimer_ReadCounter
 483:.\Generated_Source\PSoC4/waterTimer.c **** ********************************************************************************
 484:.\Generated_Source\PSoC4/waterTimer.c **** *
 485:.\Generated_Source\PSoC4/waterTimer.c **** * Summary:
 486:.\Generated_Source\PSoC4/waterTimer.c **** *  This function returns the current counter value.
 487:.\Generated_Source\PSoC4/waterTimer.c **** *
 488:.\Generated_Source\PSoC4/waterTimer.c **** * Parameters:
 489:.\Generated_Source\PSoC4/waterTimer.c **** *  void
 490:.\Generated_Source\PSoC4/waterTimer.c **** *
 491:.\Generated_Source\PSoC4/waterTimer.c **** * Return:
 492:.\Generated_Source\PSoC4/waterTimer.c **** *  Present compare value.
 493:.\Generated_Source\PSoC4/waterTimer.c **** *
 494:.\Generated_Source\PSoC4/waterTimer.c **** *******************************************************************************/
 495:.\Generated_Source\PSoC4/waterTimer.c **** uint32 waterTimer_ReadCounter(void) 
 496:.\Generated_Source\PSoC4/waterTimer.c **** {
 551              		.loc 1 496 0
 552              		.cfi_startproc
 553 0000 80B5     		push	{r7, lr}
 554              	.LCFI31:
 555              		.cfi_def_cfa_offset 8
 556              		.cfi_offset 7, -8
 557              		.cfi_offset 14, -4
 558 0002 00AF     		add	r7, sp, #0
 559              	.LCFI32:
 560              		.cfi_def_cfa_register 7
 497:.\Generated_Source\PSoC4/waterTimer.c **** 
 498:.\Generated_Source\PSoC4/waterTimer.c ****     /* Force capture by reading Accumulator */
 499:.\Generated_Source\PSoC4/waterTimer.c ****     /* Must first do a software capture to be able to read the counter */
 500:.\Generated_Source\PSoC4/waterTimer.c ****     /* It is up to the user code to make sure there isn't already captured data in the FIFO */
 501:.\Generated_Source\PSoC4/waterTimer.c ****     (void)waterTimer_COUNTER_LSB;
 561              		.loc 1 501 0
 562 0004 044B     		ldr	r3, .L47
 563 0006 1B68     		ldr	r3, [r3]
 502:.\Generated_Source\PSoC4/waterTimer.c **** 
 503:.\Generated_Source\PSoC4/waterTimer.c ****     /* Read the data from the FIFO (or capture register for Fixed Function)*/
 504:.\Generated_Source\PSoC4/waterTimer.c ****     #if(waterTimer_UsingFixedFunction)
 505:.\Generated_Source\PSoC4/waterTimer.c ****         return ((uint32)CY_GET_REG16(waterTimer_CAPTURE_LSB_PTR));
 506:.\Generated_Source\PSoC4/waterTimer.c ****     #else
 507:.\Generated_Source\PSoC4/waterTimer.c ****         return (CY_GET_REG24(waterTimer_CAPTURE_LSB_PTR));
 564              		.loc 1 507 0
 565 0008 044B     		ldr	r3, .L47+4
 566 000a 181C     		mov	r0, r3
 567 000c FFF7FEFF 		bl	CyGetReg24
 568 0010 031C     		mov	r3, r0
 508:.\Generated_Source\PSoC4/waterTimer.c ****     #endif /* (waterTimer_UsingFixedFunction) */
 509:.\Generated_Source\PSoC4/waterTimer.c **** }
 569              		.loc 1 509 0
 570 0012 181C     		mov	r0, r3
 571 0014 BD46     		mov	sp, r7
 572              		@ sp needed for prologue
 573 0016 80BD     		pop	{r7, pc}
 574              	.L48:
ARM GAS  C:\Users\BJRN~1\AppData\Local\Temp\ccUg91dw.s 			page 20


 575              		.align	2
 576              	.L47:
 577 0018 00000F40 		.word	1074724864
 578 001c 40000F40 		.word	1074724928
 579              		.cfi_endproc
 580              	.LFE13:
 581              		.size	waterTimer_ReadCounter, .-waterTimer_ReadCounter
 582              		.section	.text.waterTimer_ClearFIFO,"ax",%progbits
 583              		.align	2
 584              		.global	waterTimer_ClearFIFO
 585              		.code	16
 586              		.thumb_func
 587              		.type	waterTimer_ClearFIFO, %function
 588              	waterTimer_ClearFIFO:
 589              	.LFB14:
 510:.\Generated_Source\PSoC4/waterTimer.c **** 
 511:.\Generated_Source\PSoC4/waterTimer.c **** 
 512:.\Generated_Source\PSoC4/waterTimer.c **** #if(!waterTimer_UsingFixedFunction) /* UDB Specific Functions */
 513:.\Generated_Source\PSoC4/waterTimer.c **** 
 514:.\Generated_Source\PSoC4/waterTimer.c **** /*******************************************************************************
 515:.\Generated_Source\PSoC4/waterTimer.c ****  * The functions below this point are only available using the UDB
 516:.\Generated_Source\PSoC4/waterTimer.c ****  * implementation.  If a feature is selected, then the API is enabled.
 517:.\Generated_Source\PSoC4/waterTimer.c ****  ******************************************************************************/
 518:.\Generated_Source\PSoC4/waterTimer.c **** 
 519:.\Generated_Source\PSoC4/waterTimer.c **** 
 520:.\Generated_Source\PSoC4/waterTimer.c **** #if (waterTimer_SoftwareCaptureMode)
 521:.\Generated_Source\PSoC4/waterTimer.c **** 
 522:.\Generated_Source\PSoC4/waterTimer.c **** 
 523:.\Generated_Source\PSoC4/waterTimer.c **** /*******************************************************************************
 524:.\Generated_Source\PSoC4/waterTimer.c **** * Function Name: waterTimer_SetCaptureMode
 525:.\Generated_Source\PSoC4/waterTimer.c **** ********************************************************************************
 526:.\Generated_Source\PSoC4/waterTimer.c **** *
 527:.\Generated_Source\PSoC4/waterTimer.c **** * Summary:
 528:.\Generated_Source\PSoC4/waterTimer.c **** *  This function sets the capture mode to either rising or falling edge.
 529:.\Generated_Source\PSoC4/waterTimer.c **** *
 530:.\Generated_Source\PSoC4/waterTimer.c **** * Parameters:
 531:.\Generated_Source\PSoC4/waterTimer.c **** *  captureMode: This parameter sets the capture mode of the UDB capture feature
 532:.\Generated_Source\PSoC4/waterTimer.c **** *  The parameter values are defined using the
 533:.\Generated_Source\PSoC4/waterTimer.c **** *  #define waterTimer__B_TIMER__CM_NONE 0
 534:.\Generated_Source\PSoC4/waterTimer.c **** #define waterTimer__B_TIMER__CM_RISINGEDGE 1
 535:.\Generated_Source\PSoC4/waterTimer.c **** #define waterTimer__B_TIMER__CM_FALLINGEDGE 2
 536:.\Generated_Source\PSoC4/waterTimer.c **** #define waterTimer__B_TIMER__CM_EITHEREDGE 3
 537:.\Generated_Source\PSoC4/waterTimer.c **** #define waterTimer__B_TIMER__CM_SOFTWARE 4
 538:.\Generated_Source\PSoC4/waterTimer.c ****  identifiers
 539:.\Generated_Source\PSoC4/waterTimer.c **** *  The following are the possible values of the parameter
 540:.\Generated_Source\PSoC4/waterTimer.c **** *  waterTimer__B_TIMER__CM_NONE        - Set Capture mode to None
 541:.\Generated_Source\PSoC4/waterTimer.c **** *  waterTimer__B_TIMER__CM_RISINGEDGE  - Rising edge of Capture input
 542:.\Generated_Source\PSoC4/waterTimer.c **** *  waterTimer__B_TIMER__CM_FALLINGEDGE - Falling edge of Capture input
 543:.\Generated_Source\PSoC4/waterTimer.c **** *  waterTimer__B_TIMER__CM_EITHEREDGE  - Either edge of Capture input
 544:.\Generated_Source\PSoC4/waterTimer.c **** *
 545:.\Generated_Source\PSoC4/waterTimer.c **** * Return:
 546:.\Generated_Source\PSoC4/waterTimer.c **** *  void
 547:.\Generated_Source\PSoC4/waterTimer.c **** *
 548:.\Generated_Source\PSoC4/waterTimer.c **** *******************************************************************************/
 549:.\Generated_Source\PSoC4/waterTimer.c **** void waterTimer_SetCaptureMode(uint8 captureMode) 
 550:.\Generated_Source\PSoC4/waterTimer.c **** {
 551:.\Generated_Source\PSoC4/waterTimer.c ****     /* This must only set to two bits of the control register associated */
ARM GAS  C:\Users\BJRN~1\AppData\Local\Temp\ccUg91dw.s 			page 21


 552:.\Generated_Source\PSoC4/waterTimer.c ****     captureMode = ((uint8)((uint8)captureMode << waterTimer_CTRL_CAP_MODE_SHIFT));
 553:.\Generated_Source\PSoC4/waterTimer.c ****     captureMode &= (waterTimer_CTRL_CAP_MODE_MASK);
 554:.\Generated_Source\PSoC4/waterTimer.c **** 
 555:.\Generated_Source\PSoC4/waterTimer.c ****     /* Clear the Current Setting */
 556:.\Generated_Source\PSoC4/waterTimer.c ****     waterTimer_CONTROL &= ((uint8)(~waterTimer_CTRL_CAP_MODE_MASK));
 557:.\Generated_Source\PSoC4/waterTimer.c **** 
 558:.\Generated_Source\PSoC4/waterTimer.c ****     /* Write The New Setting */
 559:.\Generated_Source\PSoC4/waterTimer.c ****     waterTimer_CONTROL |= captureMode;
 560:.\Generated_Source\PSoC4/waterTimer.c **** }
 561:.\Generated_Source\PSoC4/waterTimer.c **** #endif /* Remove API if Capture Mode is not Software Controlled */
 562:.\Generated_Source\PSoC4/waterTimer.c **** 
 563:.\Generated_Source\PSoC4/waterTimer.c **** 
 564:.\Generated_Source\PSoC4/waterTimer.c **** #if (waterTimer_SoftwareTriggerMode)
 565:.\Generated_Source\PSoC4/waterTimer.c **** 
 566:.\Generated_Source\PSoC4/waterTimer.c **** 
 567:.\Generated_Source\PSoC4/waterTimer.c **** /*******************************************************************************
 568:.\Generated_Source\PSoC4/waterTimer.c **** * Function Name: waterTimer_SetTriggerMode
 569:.\Generated_Source\PSoC4/waterTimer.c **** ********************************************************************************
 570:.\Generated_Source\PSoC4/waterTimer.c **** *
 571:.\Generated_Source\PSoC4/waterTimer.c **** * Summary:
 572:.\Generated_Source\PSoC4/waterTimer.c **** *  This function sets the trigger input mode
 573:.\Generated_Source\PSoC4/waterTimer.c **** *
 574:.\Generated_Source\PSoC4/waterTimer.c **** * Parameters:
 575:.\Generated_Source\PSoC4/waterTimer.c **** *  triggerMode: Pass one of the pre-defined Trigger Modes (except Software)
 576:.\Generated_Source\PSoC4/waterTimer.c ****     #define waterTimer__B_TIMER__TM_NONE 0x00u
 577:.\Generated_Source\PSoC4/waterTimer.c ****     #define waterTimer__B_TIMER__TM_RISINGEDGE 0x04u
 578:.\Generated_Source\PSoC4/waterTimer.c ****     #define waterTimer__B_TIMER__TM_FALLINGEDGE 0x08u
 579:.\Generated_Source\PSoC4/waterTimer.c ****     #define waterTimer__B_TIMER__TM_EITHEREDGE 0x0Cu
 580:.\Generated_Source\PSoC4/waterTimer.c ****     #define waterTimer__B_TIMER__TM_SOFTWARE 0x10u
 581:.\Generated_Source\PSoC4/waterTimer.c **** *
 582:.\Generated_Source\PSoC4/waterTimer.c **** * Return:
 583:.\Generated_Source\PSoC4/waterTimer.c **** *  void
 584:.\Generated_Source\PSoC4/waterTimer.c **** *
 585:.\Generated_Source\PSoC4/waterTimer.c **** *******************************************************************************/
 586:.\Generated_Source\PSoC4/waterTimer.c **** void waterTimer_SetTriggerMode(uint8 triggerMode) 
 587:.\Generated_Source\PSoC4/waterTimer.c **** {
 588:.\Generated_Source\PSoC4/waterTimer.c ****     /* This must only set to two bits of the control register associated */
 589:.\Generated_Source\PSoC4/waterTimer.c ****     triggerMode &= waterTimer_CTRL_TRIG_MODE_MASK;
 590:.\Generated_Source\PSoC4/waterTimer.c **** 
 591:.\Generated_Source\PSoC4/waterTimer.c ****     /* Clear the Current Setting */
 592:.\Generated_Source\PSoC4/waterTimer.c ****     waterTimer_CONTROL &= ((uint8)(~waterTimer_CTRL_TRIG_MODE_MASK));
 593:.\Generated_Source\PSoC4/waterTimer.c **** 
 594:.\Generated_Source\PSoC4/waterTimer.c ****     /* Write The New Setting */
 595:.\Generated_Source\PSoC4/waterTimer.c ****     waterTimer_CONTROL |= (triggerMode | waterTimer__B_TIMER__TM_SOFTWARE);
 596:.\Generated_Source\PSoC4/waterTimer.c **** 
 597:.\Generated_Source\PSoC4/waterTimer.c **** }
 598:.\Generated_Source\PSoC4/waterTimer.c **** #endif /* Remove API if Trigger Mode is not Software Controlled */
 599:.\Generated_Source\PSoC4/waterTimer.c **** 
 600:.\Generated_Source\PSoC4/waterTimer.c **** #if (waterTimer_EnableTriggerMode)
 601:.\Generated_Source\PSoC4/waterTimer.c **** 
 602:.\Generated_Source\PSoC4/waterTimer.c **** 
 603:.\Generated_Source\PSoC4/waterTimer.c **** /*******************************************************************************
 604:.\Generated_Source\PSoC4/waterTimer.c **** * Function Name: waterTimer_EnableTrigger
 605:.\Generated_Source\PSoC4/waterTimer.c **** ********************************************************************************
 606:.\Generated_Source\PSoC4/waterTimer.c **** *
 607:.\Generated_Source\PSoC4/waterTimer.c **** * Summary:
 608:.\Generated_Source\PSoC4/waterTimer.c **** *  Sets the control bit enabling Hardware Trigger mode
ARM GAS  C:\Users\BJRN~1\AppData\Local\Temp\ccUg91dw.s 			page 22


 609:.\Generated_Source\PSoC4/waterTimer.c **** *
 610:.\Generated_Source\PSoC4/waterTimer.c **** * Parameters:
 611:.\Generated_Source\PSoC4/waterTimer.c **** *  void
 612:.\Generated_Source\PSoC4/waterTimer.c **** *
 613:.\Generated_Source\PSoC4/waterTimer.c **** * Return:
 614:.\Generated_Source\PSoC4/waterTimer.c **** *  void
 615:.\Generated_Source\PSoC4/waterTimer.c **** *
 616:.\Generated_Source\PSoC4/waterTimer.c **** *******************************************************************************/
 617:.\Generated_Source\PSoC4/waterTimer.c **** void waterTimer_EnableTrigger(void) 
 618:.\Generated_Source\PSoC4/waterTimer.c **** {
 619:.\Generated_Source\PSoC4/waterTimer.c ****     #if (!waterTimer_ControlRegRemoved)   /* Remove assignment if control register is removed */
 620:.\Generated_Source\PSoC4/waterTimer.c ****         waterTimer_CONTROL |= waterTimer_CTRL_TRIG_EN;
 621:.\Generated_Source\PSoC4/waterTimer.c ****     #endif /* Remove code section if control register is not used */
 622:.\Generated_Source\PSoC4/waterTimer.c **** }
 623:.\Generated_Source\PSoC4/waterTimer.c **** 
 624:.\Generated_Source\PSoC4/waterTimer.c **** 
 625:.\Generated_Source\PSoC4/waterTimer.c **** /*******************************************************************************
 626:.\Generated_Source\PSoC4/waterTimer.c **** * Function Name: waterTimer_DisableTrigger
 627:.\Generated_Source\PSoC4/waterTimer.c **** ********************************************************************************
 628:.\Generated_Source\PSoC4/waterTimer.c **** *
 629:.\Generated_Source\PSoC4/waterTimer.c **** * Summary:
 630:.\Generated_Source\PSoC4/waterTimer.c **** *  Clears the control bit enabling Hardware Trigger mode
 631:.\Generated_Source\PSoC4/waterTimer.c **** *
 632:.\Generated_Source\PSoC4/waterTimer.c **** * Parameters:
 633:.\Generated_Source\PSoC4/waterTimer.c **** *  void
 634:.\Generated_Source\PSoC4/waterTimer.c **** *
 635:.\Generated_Source\PSoC4/waterTimer.c **** * Return:
 636:.\Generated_Source\PSoC4/waterTimer.c **** *  void
 637:.\Generated_Source\PSoC4/waterTimer.c **** *
 638:.\Generated_Source\PSoC4/waterTimer.c **** *******************************************************************************/
 639:.\Generated_Source\PSoC4/waterTimer.c **** void waterTimer_DisableTrigger(void) 
 640:.\Generated_Source\PSoC4/waterTimer.c **** {
 641:.\Generated_Source\PSoC4/waterTimer.c ****     #if (!waterTimer_ControlRegRemoved)   /* Remove assignment if control register is removed */
 642:.\Generated_Source\PSoC4/waterTimer.c ****         waterTimer_CONTROL &= ((uint8)(~waterTimer_CTRL_TRIG_EN));
 643:.\Generated_Source\PSoC4/waterTimer.c ****     #endif /* Remove code section if control register is not used */
 644:.\Generated_Source\PSoC4/waterTimer.c **** }
 645:.\Generated_Source\PSoC4/waterTimer.c **** #endif /* Remove API is Trigger Mode is set to None */
 646:.\Generated_Source\PSoC4/waterTimer.c **** 
 647:.\Generated_Source\PSoC4/waterTimer.c **** 
 648:.\Generated_Source\PSoC4/waterTimer.c **** #if(waterTimer_InterruptOnCaptureCount)
 649:.\Generated_Source\PSoC4/waterTimer.c **** #if (!waterTimer_ControlRegRemoved)   /* Remove API if control register is removed */
 650:.\Generated_Source\PSoC4/waterTimer.c **** 
 651:.\Generated_Source\PSoC4/waterTimer.c **** 
 652:.\Generated_Source\PSoC4/waterTimer.c **** /*******************************************************************************
 653:.\Generated_Source\PSoC4/waterTimer.c **** * Function Name: waterTimer_SetInterruptCount
 654:.\Generated_Source\PSoC4/waterTimer.c **** ********************************************************************************
 655:.\Generated_Source\PSoC4/waterTimer.c **** *
 656:.\Generated_Source\PSoC4/waterTimer.c **** * Summary:
 657:.\Generated_Source\PSoC4/waterTimer.c **** *  This function sets the capture count before an interrupt is triggered.
 658:.\Generated_Source\PSoC4/waterTimer.c **** *
 659:.\Generated_Source\PSoC4/waterTimer.c **** * Parameters:
 660:.\Generated_Source\PSoC4/waterTimer.c **** *  interruptCount:  A value between 0 and 3 is valid.  If the value is 0, then
 661:.\Generated_Source\PSoC4/waterTimer.c **** *                   an interrupt will occur each time a capture occurs.
 662:.\Generated_Source\PSoC4/waterTimer.c **** *                   A value of 1 to 3 will cause the interrupt
 663:.\Generated_Source\PSoC4/waterTimer.c **** *                   to delay by the same number of captures.
 664:.\Generated_Source\PSoC4/waterTimer.c **** *
 665:.\Generated_Source\PSoC4/waterTimer.c **** * Return:
ARM GAS  C:\Users\BJRN~1\AppData\Local\Temp\ccUg91dw.s 			page 23


 666:.\Generated_Source\PSoC4/waterTimer.c **** *  void
 667:.\Generated_Source\PSoC4/waterTimer.c **** *
 668:.\Generated_Source\PSoC4/waterTimer.c **** *******************************************************************************/
 669:.\Generated_Source\PSoC4/waterTimer.c **** void waterTimer_SetInterruptCount(uint8 interruptCount) 
 670:.\Generated_Source\PSoC4/waterTimer.c **** {
 671:.\Generated_Source\PSoC4/waterTimer.c ****     /* This must only set to two bits of the control register associated */
 672:.\Generated_Source\PSoC4/waterTimer.c ****     interruptCount &= waterTimer_CTRL_INTCNT_MASK;
 673:.\Generated_Source\PSoC4/waterTimer.c **** 
 674:.\Generated_Source\PSoC4/waterTimer.c ****     /* Clear the Current Setting */
 675:.\Generated_Source\PSoC4/waterTimer.c ****     waterTimer_CONTROL &= ((uint8)(~waterTimer_CTRL_INTCNT_MASK));
 676:.\Generated_Source\PSoC4/waterTimer.c ****     /* Write The New Setting */
 677:.\Generated_Source\PSoC4/waterTimer.c ****     waterTimer_CONTROL |= interruptCount;
 678:.\Generated_Source\PSoC4/waterTimer.c **** }
 679:.\Generated_Source\PSoC4/waterTimer.c **** #endif /* Remove API if control register is removed */
 680:.\Generated_Source\PSoC4/waterTimer.c **** #endif /* waterTimer_InterruptOnCaptureCount */
 681:.\Generated_Source\PSoC4/waterTimer.c **** 
 682:.\Generated_Source\PSoC4/waterTimer.c **** 
 683:.\Generated_Source\PSoC4/waterTimer.c **** #if (waterTimer_UsingHWCaptureCounter)
 684:.\Generated_Source\PSoC4/waterTimer.c **** 
 685:.\Generated_Source\PSoC4/waterTimer.c **** 
 686:.\Generated_Source\PSoC4/waterTimer.c **** /*******************************************************************************
 687:.\Generated_Source\PSoC4/waterTimer.c **** * Function Name: waterTimer_SetCaptureCount
 688:.\Generated_Source\PSoC4/waterTimer.c **** ********************************************************************************
 689:.\Generated_Source\PSoC4/waterTimer.c **** *
 690:.\Generated_Source\PSoC4/waterTimer.c **** * Summary:
 691:.\Generated_Source\PSoC4/waterTimer.c **** *  This function sets the capture count
 692:.\Generated_Source\PSoC4/waterTimer.c **** *
 693:.\Generated_Source\PSoC4/waterTimer.c **** * Parameters:
 694:.\Generated_Source\PSoC4/waterTimer.c **** *  captureCount: A value between 2 and 127 inclusive is valid.  A value of 1
 695:.\Generated_Source\PSoC4/waterTimer.c **** *                to 127 will cause the interrupt to delay by the same number of
 696:.\Generated_Source\PSoC4/waterTimer.c **** *                captures.
 697:.\Generated_Source\PSoC4/waterTimer.c **** *
 698:.\Generated_Source\PSoC4/waterTimer.c **** * Return:
 699:.\Generated_Source\PSoC4/waterTimer.c **** *  void
 700:.\Generated_Source\PSoC4/waterTimer.c **** *
 701:.\Generated_Source\PSoC4/waterTimer.c **** *******************************************************************************/
 702:.\Generated_Source\PSoC4/waterTimer.c **** void waterTimer_SetCaptureCount(uint8 captureCount) 
 703:.\Generated_Source\PSoC4/waterTimer.c **** {
 704:.\Generated_Source\PSoC4/waterTimer.c ****     waterTimer_CAP_COUNT = captureCount;
 705:.\Generated_Source\PSoC4/waterTimer.c **** }
 706:.\Generated_Source\PSoC4/waterTimer.c **** 
 707:.\Generated_Source\PSoC4/waterTimer.c **** 
 708:.\Generated_Source\PSoC4/waterTimer.c **** /*******************************************************************************
 709:.\Generated_Source\PSoC4/waterTimer.c **** * Function Name: waterTimer_ReadCaptureCount
 710:.\Generated_Source\PSoC4/waterTimer.c **** ********************************************************************************
 711:.\Generated_Source\PSoC4/waterTimer.c **** *
 712:.\Generated_Source\PSoC4/waterTimer.c **** * Summary:
 713:.\Generated_Source\PSoC4/waterTimer.c **** *  This function reads the capture count setting
 714:.\Generated_Source\PSoC4/waterTimer.c **** *
 715:.\Generated_Source\PSoC4/waterTimer.c **** * Parameters:
 716:.\Generated_Source\PSoC4/waterTimer.c **** *  void
 717:.\Generated_Source\PSoC4/waterTimer.c **** *
 718:.\Generated_Source\PSoC4/waterTimer.c **** * Return:
 719:.\Generated_Source\PSoC4/waterTimer.c **** *  Returns the Capture Count Setting
 720:.\Generated_Source\PSoC4/waterTimer.c **** *
 721:.\Generated_Source\PSoC4/waterTimer.c **** *******************************************************************************/
 722:.\Generated_Source\PSoC4/waterTimer.c **** uint8 waterTimer_ReadCaptureCount(void) 
ARM GAS  C:\Users\BJRN~1\AppData\Local\Temp\ccUg91dw.s 			page 24


 723:.\Generated_Source\PSoC4/waterTimer.c **** {
 724:.\Generated_Source\PSoC4/waterTimer.c ****     return ((uint8)waterTimer_CAP_COUNT);
 725:.\Generated_Source\PSoC4/waterTimer.c **** }
 726:.\Generated_Source\PSoC4/waterTimer.c **** #endif /* waterTimer_UsingHWCaptureCounter */
 727:.\Generated_Source\PSoC4/waterTimer.c **** 
 728:.\Generated_Source\PSoC4/waterTimer.c **** 
 729:.\Generated_Source\PSoC4/waterTimer.c **** /*******************************************************************************
 730:.\Generated_Source\PSoC4/waterTimer.c **** * Function Name: waterTimer_ClearFIFO
 731:.\Generated_Source\PSoC4/waterTimer.c **** ********************************************************************************
 732:.\Generated_Source\PSoC4/waterTimer.c **** *
 733:.\Generated_Source\PSoC4/waterTimer.c **** * Summary:
 734:.\Generated_Source\PSoC4/waterTimer.c **** *  This function clears all capture data from the capture FIFO
 735:.\Generated_Source\PSoC4/waterTimer.c **** *
 736:.\Generated_Source\PSoC4/waterTimer.c **** * Parameters:
 737:.\Generated_Source\PSoC4/waterTimer.c **** *  void
 738:.\Generated_Source\PSoC4/waterTimer.c **** *
 739:.\Generated_Source\PSoC4/waterTimer.c **** * Return:
 740:.\Generated_Source\PSoC4/waterTimer.c **** *  void
 741:.\Generated_Source\PSoC4/waterTimer.c **** *
 742:.\Generated_Source\PSoC4/waterTimer.c **** *******************************************************************************/
 743:.\Generated_Source\PSoC4/waterTimer.c **** void waterTimer_ClearFIFO(void) 
 744:.\Generated_Source\PSoC4/waterTimer.c **** {
 590              		.loc 1 744 0
 591              		.cfi_startproc
 592 0000 80B5     		push	{r7, lr}
 593              	.LCFI33:
 594              		.cfi_def_cfa_offset 8
 595              		.cfi_offset 7, -8
 596              		.cfi_offset 14, -4
 597 0002 00AF     		add	r7, sp, #0
 598              	.LCFI34:
 599              		.cfi_def_cfa_register 7
 745:.\Generated_Source\PSoC4/waterTimer.c ****     while(0u != (waterTimer_ReadStatusRegister() & waterTimer_STATUS_FIFONEMP))
 600              		.loc 1 745 0
 601 0004 01E0     		b	.L50
 602              	.L51:
 746:.\Generated_Source\PSoC4/waterTimer.c ****     {
 747:.\Generated_Source\PSoC4/waterTimer.c ****         (void)waterTimer_ReadCapture();
 603              		.loc 1 747 0
 604 0006 FFF7FEFF 		bl	waterTimer_ReadCapture
 605              	.L50:
 745:.\Generated_Source\PSoC4/waterTimer.c ****     while(0u != (waterTimer_ReadStatusRegister() & waterTimer_STATUS_FIFONEMP))
 606              		.loc 1 745 0 discriminator 1
 607 000a FFF7FEFF 		bl	waterTimer_ReadStatusRegister
 608 000e 031C     		mov	r3, r0
 609 0010 1A1C     		mov	r2, r3
 610 0012 0823     		mov	r3, #8
 611 0014 1340     		and	r3, r2
 612 0016 F6D1     		bne	.L51
 748:.\Generated_Source\PSoC4/waterTimer.c ****     }
 749:.\Generated_Source\PSoC4/waterTimer.c **** }
 613              		.loc 1 749 0
 614 0018 BD46     		mov	sp, r7
 615              		@ sp needed for prologue
 616 001a 80BD     		pop	{r7, pc}
 617              		.cfi_endproc
 618              	.LFE14:
ARM GAS  C:\Users\BJRN~1\AppData\Local\Temp\ccUg91dw.s 			page 25


 619              		.size	waterTimer_ClearFIFO, .-waterTimer_ClearFIFO
 620              		.text
 621              	.Letext0:
 622              		.file 2 ".\\Generated_Source\\PSoC4\\cytypes.h"