ARM GAS  C:\Users\MICKKI~1\AppData\Local\Temp\ccLWJBAP.s 			page 1


   1              		.cpu cortex-m0
   2              		.fpu softvfp
   3              		.eabi_attribute 20, 1
   4              		.eabi_attribute 21, 1
   5              		.eabi_attribute 23, 3
   6              		.eabi_attribute 24, 1
   7              		.eabi_attribute 25, 1
   8              		.eabi_attribute 26, 1
   9              		.eabi_attribute 30, 6
  10              		.eabi_attribute 34, 0
  11              		.eabi_attribute 18, 4
  12              		.code	16
  13              		.file	"main.c"
  14              		.text
  15              	.Ltext0:
  16              		.cfi_sections	.debug_frame
  17              		.section	.text.main,"ax",%progbits
  18              		.align	2
  19              		.global	main
  20              		.code	16
  21              		.thumb_func
  22              		.type	main, %function
  23              	main:
  24              	.LFB33:
  25              		.file 1 ".\\main.c"
   1:.\main.c      **** /* ========================================
   2:.\main.c      ****  *
   3:.\main.c      ****  * Copyright YOUR COMPANY, THE YEAR
   4:.\main.c      ****  * All Rights Reserved
   5:.\main.c      ****  * UNPUBLISHED, LICENSED SOFTWARE.
   6:.\main.c      ****  *
   7:.\main.c      ****  * CONFIDENTIAL AND PROPRIETARY INFORMATION
   8:.\main.c      ****  * WHICH IS THE PROPERTY OF your company.
   9:.\main.c      ****  *
  10:.\main.c      ****  * ========================================
  11:.\main.c      **** */
  12:.\main.c      **** #include <project.h>
  13:.\main.c      **** 
  14:.\main.c      **** /* Function Prototypes */
  15:.\main.c      **** CY_ISR_PROTO(isr_spi_rx);
  16:.\main.c      **** 
  17:.\main.c      **** int main()
  18:.\main.c      **** {
  26              		.loc 1 18 0
  27              		.cfi_startproc
  28 0000 80B5     		push	{r7, lr}
  29              	.LCFI0:
  30              		.cfi_def_cfa_offset 8
  31              		.cfi_offset 7, -8
  32              		.cfi_offset 14, -4
  33 0002 00AF     		add	r7, sp, #0
  34              	.LCFI1:
  35              		.cfi_def_cfa_register 7
  19:.\main.c      ****     /* Enable global interrupts */
  20:.\main.c      ****     CyGlobalIntEnable;
  36              		.loc 1 20 0
  37              	@ 20 ".\main.c" 1
ARM GAS  C:\Users\MICKKI~1\AppData\Local\Temp\ccLWJBAP.s 			page 2


  38 0004 62B6     		CPSIE   i
  39              	@ 0 "" 2
  21:.\main.c      ****     
  22:.\main.c      ****     /* Init SPI Slave */
  23:.\main.c      **** 	SPIS_1_Start();
  40              		.loc 1 23 0
  41              		.code	16
  42 0006 FFF7FEFF 		bl	SPIS_1_Start
  24:.\main.c      **** 	SPIS_1_SetCustomInterruptHandler(isr_spi_rx);
  43              		.loc 1 24 0
  44 000a 064B     		ldr	r3, .L3
  45 000c 181C     		mov	r0, r3
  46 000e FFF7FEFF 		bl	SPIS_1_SetCustomInterruptHandler
  25:.\main.c      **** 	SPIS_1_SpiUartClearTxBuffer();
  47              		.loc 1 25 0
  48 0012 FFF7FEFF 		bl	SPIS_1_SpiUartClearTxBuffer
  26:.\main.c      ****     
  27:.\main.c      ****     /* Initialize LED */
  28:.\main.c      ****     
  29:.\main.c      ****     RED_LED_Write(1);
  49              		.loc 1 29 0
  50 0016 0120     		mov	r0, #1
  51 0018 FFF7FEFF 		bl	RED_LED_Write
  30:.\main.c      ****     GREEN_LED_Write(1);
  52              		.loc 1 30 0
  53 001c 0120     		mov	r0, #1
  54 001e FFF7FEFF 		bl	GREEN_LED_Write
  55              	.L2:
  31:.\main.c      ****     
  32:.\main.c      ****     for(;;)
  33:.\main.c      ****     {
  34:.\main.c      ****         /* Place your application code here. */
  35:.\main.c      ****     }
  56              		.loc 1 35 0 discriminator 1
  57 0022 FEE7     		b	.L2
  58              	.L4:
  59              		.align	2
  60              	.L3:
  61 0024 00000000 		.word	isr_spi_rx
  62              		.cfi_endproc
  63              	.LFE33:
  64              		.size	main, .-main
  65              		.section	.text.isr_spi_rx,"ax",%progbits
  66              		.align	2
  67              		.global	isr_spi_rx
  68              		.code	16
  69              		.thumb_func
  70              		.type	isr_spi_rx, %function
  71              	isr_spi_rx:
  72              	.LFB34:
  36:.\main.c      **** }
  37:.\main.c      **** 
  38:.\main.c      **** /*
  39:.\main.c      ****  * SPI RX ISR
  40:.\main.c      ****  * Dekoder SPI RX data og udfører kommando iht.
  41:.\main.c      ****  */
  42:.\main.c      **** CY_ISR(isr_spi_rx) {
ARM GAS  C:\Users\MICKKI~1\AppData\Local\Temp\ccLWJBAP.s 			page 3


  73              		.loc 1 42 0
  74              		.cfi_startproc
  75 0000 80B5     		push	{r7, lr}
  76              	.LCFI2:
  77              		.cfi_def_cfa_offset 8
  78              		.cfi_offset 7, -8
  79              		.cfi_offset 14, -4
  80 0002 82B0     		sub	sp, sp, #8
  81              	.LCFI3:
  82              		.cfi_def_cfa_offset 16
  83 0004 00AF     		add	r7, sp, #0
  84              	.LCFI4:
  85              		.cfi_def_cfa_register 7
  43:.\main.c      **** 
  44:.\main.c      **** 	char cmd;
  45:.\main.c      ****     
  46:.\main.c      **** 	//TP_1_Write(1); // Til måling af ISR gennemløbstid
  47:.\main.c      ****  
  48:.\main.c      **** 	cmd = SPIS_1_SpiUartReadRxData(); 
  86              		.loc 1 48 0
  87 0006 FFF7FEFF 		bl	SPIS_1_SpiUartReadRxData
  88 000a 021C     		mov	r2, r0
  89 000c FB1D     		add	r3, r7, #7
  90 000e 1A70     		strb	r2, [r3]
  49:.\main.c      ****     
  50:.\main.c      ****     /*
  51:.\main.c      **** 	 * Her switches på cmd iht. dataprotokollen
  52:.\main.c      ****      *
  53:.\main.c      ****      *  ’A’ / ’a’   0x41 / 0x61     Aktiver Enhed
  54:.\main.c      ****      *  ’D’ / ’d’   0x44 / 0x64     Deaktiver Enhed
  55:.\main.c      ****      *  ’P’ / ’p’   0x50 / 0x70     Parametre sendes til Enhed
  56:.\main.c      ****      *  ’V’ / ’v’   0x56 / 0x76     Verificer Enhed i systemet
  57:.\main.c      ****      *  ’L’ / ’l’   0x4c / 0x6c     Forespørg logdata fra Enhed
  58:.\main.c      ****      *
  59:.\main.c      ****      *  'C'         0x43 / 0x63     Clear SPI buffer    
  60:.\main.c      **** 	 */
  61:.\main.c      **** 
  62:.\main.c      **** 	switch (cmd) {
  91              		.loc 1 62 0
  92 0010 FB1D     		add	r3, r7, #7
  93 0012 1B78     		ldrb	r3, [r3]
  94 0014 413B     		sub	r3, r3, #65
  95 0016 152B     		cmp	r3, #21
  96 0018 20D8     		bhi	.L16
  97 001a 9A00     		lsl	r2, r3, #2
  98 001c 134B     		ldr	r3, .L17
  99 001e D318     		add	r3, r2, r3
 100 0020 1B68     		ldr	r3, [r3]
 101 0022 9F46     		mov	pc, r3
 102              		.section	.rodata
 103              		.align	2
 104              	.L14:
 105 0000 24000000 		.word	.L7
 106 0004 5C000000 		.word	.L16
 107 0008 58000000 		.word	.L8
 108 000c 32000000 		.word	.L9
 109 0010 5C000000 		.word	.L16
ARM GAS  C:\Users\MICKKI~1\AppData\Local\Temp\ccLWJBAP.s 			page 4


 110 0014 5C000000 		.word	.L16
 111 0018 5C000000 		.word	.L16
 112 001c 5C000000 		.word	.L16
 113 0020 5C000000 		.word	.L16
 114 0024 5C000000 		.word	.L16
 115 0028 5C000000 		.word	.L16
 116 002c 5C000000 		.word	.L16
 117 0030 5C000000 		.word	.L16
 118 0034 5C000000 		.word	.L16
 119 0038 5C000000 		.word	.L16
 120 003c 5C000000 		.word	.L16
 121 0040 5C000000 		.word	.L16
 122 0044 4C000000 		.word	.L12
 123 0048 5C000000 		.word	.L16
 124 004c 5C000000 		.word	.L16
 125 0050 5C000000 		.word	.L16
 126 0054 40000000 		.word	.L13
 127              		.section	.text.isr_spi_rx
 128              	.L7:
  63:.\main.c      ****         case 'A':
  64:.\main.c      ****                 RED_LED_Write(1);
 129              		.loc 1 64 0
 130 0024 0120     		mov	r0, #1
 131 0026 FFF7FEFF 		bl	RED_LED_Write
  65:.\main.c      ****                 GREEN_LED_Write(0);
 132              		.loc 1 65 0
 133 002a 0020     		mov	r0, #0
 134 002c FFF7FEFF 		bl	GREEN_LED_Write
  66:.\main.c      ****             break;
 135              		.loc 1 66 0
 136 0030 15E0     		b	.L15
 137              	.L9:
  67:.\main.c      ****         case 'D':
  68:.\main.c      ****                 GREEN_LED_Write(1);
 138              		.loc 1 68 0
 139 0032 0120     		mov	r0, #1
 140 0034 FFF7FEFF 		bl	GREEN_LED_Write
  69:.\main.c      ****                 RED_LED_Write(0);
 141              		.loc 1 69 0
 142 0038 0020     		mov	r0, #0
 143 003a FFF7FEFF 		bl	RED_LED_Write
  70:.\main.c      ****             break;
 144              		.loc 1 70 0
 145 003e 0EE0     		b	.L15
 146              	.L13:
  71:.\main.c      ****         case 'P':
  72:.\main.c      ****             break;
  73:.\main.c      **** 		case 'V':
  74:.\main.c      **** 				SPIS_1_SpiUartClearTxBuffer();
 147              		.loc 1 74 0
 148 0040 FFF7FEFF 		bl	SPIS_1_SpiUartClearTxBuffer
  75:.\main.c      **** 				SPIS_1_SpiUartWriteTxData('V');
 149              		.loc 1 75 0
 150 0044 5620     		mov	r0, #86
 151 0046 FFF7FEFF 		bl	SPIS_1_SpiUartWriteTxData
  76:.\main.c      **** 			break;
 152              		.loc 1 76 0
ARM GAS  C:\Users\MICKKI~1\AppData\Local\Temp\ccLWJBAP.s 			page 5


 153 004a 08E0     		b	.L15
 154              	.L12:
  77:.\main.c      ****         case 'L':
  78:.\main.c      ****             break;
  79:.\main.c      ****         case 'R':
  80:.\main.c      ****                 SPIS_1_SpiUartClearTxBuffer();
 155              		.loc 1 80 0
 156 004c FFF7FEFF 		bl	SPIS_1_SpiUartClearTxBuffer
  81:.\main.c      ****                 SPIS_1_SpiUartWriteTxData('R');
 157              		.loc 1 81 0
 158 0050 5220     		mov	r0, #82
 159 0052 FFF7FEFF 		bl	SPIS_1_SpiUartWriteTxData
  82:.\main.c      ****                 break;
 160              		.loc 1 82 0
 161 0056 02E0     		b	.L15
 162              	.L8:
  83:.\main.c      ****         case 'C':
  84:.\main.c      ****                 SPIS_1_SpiUartClearTxBuffer();
 163              		.loc 1 84 0
 164 0058 FFF7FEFF 		bl	SPIS_1_SpiUartClearTxBuffer
 165              	.L16:
  85:.\main.c      **** 		default:
  86:.\main.c      **** 			break;
 166              		.loc 1 86 0
 167 005c C046     		mov	r8, r8
 168              	.L15:
  87:.\main.c      **** 	}
  88:.\main.c      **** 	
  89:.\main.c      **** 	SPIS_1_ClearRxInterruptSource(SPIS_1_GetRxInterruptSource());
 169              		.loc 1 89 0
 170 005e 044B     		ldr	r3, .L17+4
 171 0060 034A     		ldr	r2, .L17+4
 172 0062 1268     		ldr	r2, [r2]
 173 0064 1A60     		str	r2, [r3]
  90:.\main.c      **** 	//TP_1_Write(0); // Til måling af ISR gennemløbstid
  91:.\main.c      **** }
 174              		.loc 1 91 0
 175 0066 BD46     		mov	sp, r7
 176 0068 02B0     		add	sp, sp, #8
 177              		@ sp needed for prologue
 178 006a 80BD     		pop	{r7, pc}
 179              	.L18:
 180              		.align	2
 181              	.L17:
 182 006c 00000000 		.word	.L14
 183 0070 C00F0740 		.word	1074204608
 184              		.cfi_endproc
 185              	.LFE34:
 186              		.size	isr_spi_rx, .-isr_spi_rx
 187              		.text
 188              	.Letext0:
 189              		.file 2 "./Generated_Source/PSoC4/cytypes.h"