ARM GAS  C:\Users\MICKKI~1\AppData\Local\Temp\ccI9DkKJ.s 			page 1


   1              		.cpu cortex-m0
   2              		.fpu softvfp
   3              		.eabi_attribute 20, 1
   4              		.eabi_attribute 21, 1
   5              		.eabi_attribute 23, 3
   6              		.eabi_attribute 24, 1
   7              		.eabi_attribute 25, 1
   8              		.eabi_attribute 26, 1
   9              		.eabi_attribute 30, 6
  10              		.eabi_attribute 34, 0
  11              		.eabi_attribute 18, 4
  12              		.code	16
  13              		.file	"SPI_handler.c"
  14              		.text
  15              	.Ltext0:
  16              		.cfi_sections	.debug_frame
  17              		.comm	spiBuffer,64,4
  18              		.comm	spiTxBuffer,256,4
  19              		.global	testGetLog
  20              		.data
  21              		.align	2
  22              		.type	testGetLog, %object
  23              		.size	testGetLog, 211
  24              	testGetLog:
  25 0000 44313131 		.ascii	"D111111111E999E666EPOOEMKKE013D111111111E999E666EPO"
  25      31313131 
  25      31314539 
  25      39394536 
  25      36364550 
  26 0033 4F454D4B 		.ascii	"OEMKKE013D111111111E999E666EPOOEMKKE013D111111111E9"
  26      4B453031 
  26      33443131 
  26      31313131 
  26      31313145 
  27 0066 39394536 		.ascii	"99E666EPOOEMKKE013D111111111E999E666EPOOEMKKE013D11"
  27      36364550 
  27      4F4F454D 
  27      4B4B4530 
  27      31334431 
  28 0099 31313131 		.ascii	"1111111E999E666EPOOEMKKE013D888888888E999E666EPOOEM"
  28      31313145 
  28      39393945 
  28      36363645 
  28      504F4F45 
  29 00cc 4B4B4530 		.ascii	"KKE013\000"
  29      313300
  30              		.global	unitNo
  31              		.type	unitNo, %object
  32              		.size	unitNo, 1
  33              	unitNo:
  34 00d3 31       		.byte	49
  35              		.global	spiCounter
  36              		.bss
  37              		.align	2
  38              		.type	spiCounter, %object
  39              		.size	spiCounter, 4
  40              	spiCounter:
ARM GAS  C:\Users\MICKKI~1\AppData\Local\Temp\ccI9DkKJ.s 			page 2


  41 0000 00000000 		.space	4
  42              		.global	spiReadCounter
  43              		.align	2
  44              		.type	spiReadCounter, %object
  45              		.size	spiReadCounter, 4
  46              	spiReadCounter:
  47 0004 00000000 		.space	4
  48              		.global	len
  49              		.data
  50              		.align	2
  51              		.type	len, %object
  52              		.size	len, 4
  53              	len:
  54 00d4 D3000000 		.word	211
  55              		.comm	tempBuffer,6,4
  56              		.comm	humiBuffer,4,4
  57              		.global	__aeabi_d2f
  58              		.section	.text.isr_spi_rx,"ax",%progbits
  59              		.align	2
  60              		.global	isr_spi_rx
  61              		.code	16
  62              		.thumb_func
  63              		.type	isr_spi_rx, %function
  64              	isr_spi_rx:
  65              	.LFB33:
  66              		.file 1 ".\\SPI_handler.c"
   1:.\SPI_handler.c **** #include "SPI_handler.h"
   2:.\SPI_handler.c **** 
   3:.\SPI_handler.c **** char spiBuffer[64];
   4:.\SPI_handler.c **** char spiTxBuffer[256]; 
   5:.\SPI_handler.c **** char testGetLog[] = "D111111111E999E666EPOOEMKKE013D111111111E999E666EPOOEMKKE013D111111111E999E666
   6:.\SPI_handler.c **** char unitNo = '1';
   7:.\SPI_handler.c **** int spiCounter = 0;
   8:.\SPI_handler.c **** int spiReadCounter = 0;
   9:.\SPI_handler.c **** unsigned int len = sizeof(testGetLog);
  10:.\SPI_handler.c **** char tempBuffer[6]; // T T T . T \0
  11:.\SPI_handler.c **** char humiBuffer[4]; // F F F \0
  12:.\SPI_handler.c **** 
  13:.\SPI_handler.c **** /*
  14:.\SPI_handler.c ****  * SPI RX ISR
  15:.\SPI_handler.c ****  * Dekoder SPI RX data og udfører kommando iht. protokol
  16:.\SPI_handler.c ****  */
  17:.\SPI_handler.c **** CY_ISR(isr_spi_rx) {
  67              		.loc 1 17 0
  68              		.cfi_startproc
  69 0000 90B5     		push	{r4, r7, lr}
  70              	.LCFI0:
  71              		.cfi_def_cfa_offset 12
  72              		.cfi_offset 4, -12
  73              		.cfi_offset 7, -8
  74              		.cfi_offset 14, -4
  75 0002 87B0     		sub	sp, sp, #28
  76              	.LCFI1:
  77              		.cfi_def_cfa_offset 40
  78 0004 00AF     		add	r7, sp, #0
  79              	.LCFI2:
  80              		.cfi_def_cfa_register 7
ARM GAS  C:\Users\MICKKI~1\AppData\Local\Temp\ccI9DkKJ.s 			page 3


  18:.\SPI_handler.c **** 
  19:.\SPI_handler.c **** 	char cmd = '0';
  81              		.loc 1 19 0
  82 0006 3B1C     		mov	r3, r7
  83 0008 0F33     		add	r3, r3, #15
  84 000a 3022     		mov	r2, #48
  85 000c 1A70     		strb	r2, [r3]
  20:.\SPI_handler.c ****     int i;
  21:.\SPI_handler.c ****     unsigned int c;
  22:.\SPI_handler.c ****     
  23:.\SPI_handler.c **** 	//TP_1_Write(1); // Til måling af ISR gennemløbstid
  24:.\SPI_handler.c ****  
  25:.\SPI_handler.c **** 	cmd = SPIS_1_SpiUartReadRxData(); 
  86              		.loc 1 25 0
  87 000e FFF7FEFF 		bl	SPIS_1_SpiUartReadRxData
  88 0012 021C     		mov	r2, r0
  89 0014 3B1C     		mov	r3, r7
  90 0016 0F33     		add	r3, r3, #15
  91 0018 1A70     		strb	r2, [r3]
  26:.\SPI_handler.c ****     
  27:.\SPI_handler.c ****     spiBuffer[spiCounter] = cmd;
  92              		.loc 1 27 0
  93 001a 744B     		ldr	r3, .L20
  94 001c 1B68     		ldr	r3, [r3]
  95 001e 744A     		ldr	r2, .L20+4
  96 0020 391C     		mov	r1, r7
  97 0022 0F31     		add	r1, r1, #15
  98 0024 0978     		ldrb	r1, [r1]
  99 0026 D154     		strb	r1, [r2, r3]
  28:.\SPI_handler.c ****     spiCounter++;
 100              		.loc 1 28 0
 101 0028 704B     		ldr	r3, .L20
 102 002a 1B68     		ldr	r3, [r3]
 103 002c 5A1C     		add	r2, r3, #1
 104 002e 6F4B     		ldr	r3, .L20
 105 0030 1A60     		str	r2, [r3]
  29:.\SPI_handler.c ****     
  30:.\SPI_handler.c ****     /*
  31:.\SPI_handler.c **** 	 * Her switches på cmd iht. dataprotokollen
  32:.\SPI_handler.c ****      *
  33:.\SPI_handler.c ****      *  ’A’   0x41     Aktiver Enhed
  34:.\SPI_handler.c ****      *  ’D’   0x44     Deaktiver Enhed
  35:.\SPI_handler.c ****      *  ’P’   0x50     Parametre sendes til Enhed
  36:.\SPI_handler.c ****      *  ’V’   0x56     Verificer Enhed i systemet
  37:.\SPI_handler.c ****      *  ’L’   0x4c     Forespørg logdata fra Enhed
  38:.\SPI_handler.c ****      *
  39:.\SPI_handler.c ****      *  'C'   0x43     Clear/write function char
  40:.\SPI_handler.c ****      *  'R'   0x52     Read function char
  41:.\SPI_handler.c **** 	 */
  42:.\SPI_handler.c ****     
  43:.\SPI_handler.c ****     if ((cmd == 'R') || (cmd == 'C') || (cmd == 'L')){
 106              		.loc 1 43 0
 107 0032 3B1C     		mov	r3, r7
 108 0034 0F33     		add	r3, r3, #15
 109 0036 1B78     		ldrb	r3, [r3]
 110 0038 522B     		cmp	r3, #82
 111 003a 0AD0     		beq	.L2
ARM GAS  C:\Users\MICKKI~1\AppData\Local\Temp\ccI9DkKJ.s 			page 4


 112              		.loc 1 43 0 is_stmt 0 discriminator 1
 113 003c 3B1C     		mov	r3, r7
 114 003e 0F33     		add	r3, r3, #15
 115 0040 1B78     		ldrb	r3, [r3]
 116 0042 432B     		cmp	r3, #67
 117 0044 05D0     		beq	.L2
 118 0046 3B1C     		mov	r3, r7
 119 0048 0F33     		add	r3, r3, #15
 120 004a 1B78     		ldrb	r3, [r3]
 121 004c 4C2B     		cmp	r3, #76
 122 004e 00D0     		beq	.LCB51
 123 0050 C5E0     		b	.L3	@long jump
 124              	.LCB51:
 125              	.L2:
  44:.\SPI_handler.c ****     	switch (spiBuffer[0]) {
 126              		.loc 1 44 0 is_stmt 1
 127 0052 674B     		ldr	r3, .L20+4
 128 0054 1B78     		ldrb	r3, [r3]
 129 0056 413B     		sub	r3, r3, #65
 130 0058 152B     		cmp	r3, #21
 131 005a 00D9     		bls	.LCB57
 132 005c BEE0     		b	.L19	@long jump
 133              	.LCB57:
 134 005e 9A00     		lsl	r2, r3, #2
 135 0060 644B     		ldr	r3, .L20+8
 136 0062 D318     		add	r3, r2, r3
 137 0064 1B68     		ldr	r3, [r3]
 138 0066 9F46     		mov	pc, r3
 139              		.section	.rodata
 140              		.align	2
 141              	.L12:
 142 0000 68000000 		.word	.L5
 143 0004 DC010000 		.word	.L19
 144 0008 D2010000 		.word	.L6
 145 000c 86000000 		.word	.L7
 146 0010 DC010000 		.word	.L19
 147 0014 DC010000 		.word	.L19
 148 0018 DC010000 		.word	.L19
 149 001c DC010000 		.word	.L19
 150 0020 DC010000 		.word	.L19
 151 0024 DC010000 		.word	.L19
 152 0028 DC010000 		.word	.L19
 153 002c 6A010000 		.word	.L8
 154 0030 DC010000 		.word	.L19
 155 0034 DC010000 		.word	.L19
 156 0038 DC010000 		.word	.L19
 157 003c A4000000 		.word	.L9
 158 0040 DC010000 		.word	.L19
 159 0044 AE010000 		.word	.L10
 160 0048 DC010000 		.word	.L19
 161 004c DC010000 		.word	.L19
 162 0050 DC010000 		.word	.L19
 163 0054 42010000 		.word	.L11
 164              		.section	.text.isr_spi_rx
 165              	.L5:
 166              	.LBB2:
  45:.\SPI_handler.c ****             case 'A':
ARM GAS  C:\Users\MICKKI~1\AppData\Local\Temp\ccI9DkKJ.s 			page 5


  46:.\SPI_handler.c ****                     RED_LED_Write(1);
 167              		.loc 1 46 0
 168 0068 0120     		mov	r0, #1
 169 006a FFF7FEFF 		bl	RED_LED_Write
  47:.\SPI_handler.c ****                     GREEN_LED_Write(0);
 170              		.loc 1 47 0
 171 006e 0020     		mov	r0, #0
 172 0070 FFF7FEFF 		bl	GREEN_LED_Write
  48:.\SPI_handler.c ****                     BLUE_LED_Write(1);
 173              		.loc 1 48 0
 174 0074 0120     		mov	r0, #1
 175 0076 FFF7FEFF 		bl	BLUE_LED_Write
  49:.\SPI_handler.c ****                     
  50:.\SPI_handler.c ****                     /* Clear Buffer and Counter */
  51:.\SPI_handler.c ****                     SPIS_1_SpiUartClearTxBuffer();
 176              		.loc 1 51 0
 177 007a FFF7FEFF 		bl	SPIS_1_SpiUartClearTxBuffer
  52:.\SPI_handler.c ****                     spiCounter = 0;
 178              		.loc 1 52 0
 179 007e 5B4B     		ldr	r3, .L20
 180 0080 0022     		mov	r2, #0
 181 0082 1A60     		str	r2, [r3]
  53:.\SPI_handler.c ****                     
  54:.\SPI_handler.c ****                 break;
 182              		.loc 1 54 0
 183 0084 ABE0     		b	.L3
 184              	.L7:
  55:.\SPI_handler.c ****             case 'D':
  56:.\SPI_handler.c ****                     GREEN_LED_Write(1);
 185              		.loc 1 56 0
 186 0086 0120     		mov	r0, #1
 187 0088 FFF7FEFF 		bl	GREEN_LED_Write
  57:.\SPI_handler.c ****                     RED_LED_Write(0);
 188              		.loc 1 57 0
 189 008c 0020     		mov	r0, #0
 190 008e FFF7FEFF 		bl	RED_LED_Write
  58:.\SPI_handler.c ****                     BLUE_LED_Write(1);
 191              		.loc 1 58 0
 192 0092 0120     		mov	r0, #1
 193 0094 FFF7FEFF 		bl	BLUE_LED_Write
  59:.\SPI_handler.c ****                     
  60:.\SPI_handler.c ****                     /* Clear Buffer and Counter */
  61:.\SPI_handler.c ****                     SPIS_1_SpiUartClearTxBuffer();
 194              		.loc 1 61 0
 195 0098 FFF7FEFF 		bl	SPIS_1_SpiUartClearTxBuffer
  62:.\SPI_handler.c ****                     spiCounter = 0;
 196              		.loc 1 62 0
 197 009c 534B     		ldr	r3, .L20
 198 009e 0022     		mov	r2, #0
 199 00a0 1A60     		str	r2, [r3]
  63:.\SPI_handler.c ****                     
  64:.\SPI_handler.c ****                 break;
 200              		.loc 1 64 0
 201 00a2 9CE0     		b	.L3
 202              	.L9:
  65:.\SPI_handler.c ****             case 'P':
  66:.\SPI_handler.c ****                     /* Disable interrupt */
ARM GAS  C:\Users\MICKKI~1\AppData\Local\Temp\ccI9DkKJ.s 			page 6


  67:.\SPI_handler.c ****                     CyGlobalIntDisable;
 203              		.loc 1 67 0
 204              	@ 67 ".\SPI_handler.c" 1
 205 00a4 72B6     		CPSID   i
 206              	@ 0 "" 2
  68:.\SPI_handler.c ****                     
  69:.\SPI_handler.c ****                     GREEN_LED_Write(0);
 207              		.loc 1 69 0
 208              		.code	16
 209 00a6 0020     		mov	r0, #0
 210 00a8 FFF7FEFF 		bl	GREEN_LED_Write
  70:.\SPI_handler.c ****                     RED_LED_Write(0);
 211              		.loc 1 70 0
 212 00ac 0020     		mov	r0, #0
 213 00ae FFF7FEFF 		bl	RED_LED_Write
  71:.\SPI_handler.c ****                     BLUE_LED_Write(0);
 214              		.loc 1 71 0
 215 00b2 0020     		mov	r0, #0
 216 00b4 FFF7FEFF 		bl	BLUE_LED_Write
  72:.\SPI_handler.c ****                     
  73:.\SPI_handler.c ****                     /* Read temp */
  74:.\SPI_handler.c ****                     for(i = 0 ; i < 5 ; i++){
 217              		.loc 1 74 0
 218 00b8 0023     		mov	r3, #0
 219 00ba 7B61     		str	r3, [r7, #20]
 220 00bc 0AE0     		b	.L13
 221              	.L14:
  75:.\SPI_handler.c ****                         tempBuffer[i] = spiBuffer[i+1];
 222              		.loc 1 75 0 discriminator 2
 223 00be 7B69     		ldr	r3, [r7, #20]
 224 00c0 0133     		add	r3, r3, #1
 225 00c2 4B4A     		ldr	r2, .L20+4
 226 00c4 D25C     		ldrb	r2, [r2, r3]
 227 00c6 4C49     		ldr	r1, .L20+12
 228 00c8 7B69     		ldr	r3, [r7, #20]
 229 00ca CB18     		add	r3, r1, r3
 230 00cc 1A70     		strb	r2, [r3]
  74:.\SPI_handler.c ****                     for(i = 0 ; i < 5 ; i++){
 231              		.loc 1 74 0 discriminator 2
 232 00ce 7B69     		ldr	r3, [r7, #20]
 233 00d0 0133     		add	r3, r3, #1
 234 00d2 7B61     		str	r3, [r7, #20]
 235              	.L13:
  74:.\SPI_handler.c ****                     for(i = 0 ; i < 5 ; i++){
 236              		.loc 1 74 0 is_stmt 0 discriminator 1
 237 00d4 7B69     		ldr	r3, [r7, #20]
 238 00d6 042B     		cmp	r3, #4
 239 00d8 F1DD     		ble	.L14
  76:.\SPI_handler.c ****                     }
  77:.\SPI_handler.c ****                     for(i = 0 ; i < 3 ; i++){
 240              		.loc 1 77 0 is_stmt 1
 241 00da 0023     		mov	r3, #0
 242 00dc 7B61     		str	r3, [r7, #20]
 243 00de 0AE0     		b	.L15
 244              	.L16:
  78:.\SPI_handler.c ****                         humiBuffer[i] = spiBuffer[i+6];
 245              		.loc 1 78 0 discriminator 2
ARM GAS  C:\Users\MICKKI~1\AppData\Local\Temp\ccI9DkKJ.s 			page 7


 246 00e0 7B69     		ldr	r3, [r7, #20]
 247 00e2 0633     		add	r3, r3, #6
 248 00e4 424A     		ldr	r2, .L20+4
 249 00e6 D25C     		ldrb	r2, [r2, r3]
 250 00e8 4449     		ldr	r1, .L20+16
 251 00ea 7B69     		ldr	r3, [r7, #20]
 252 00ec CB18     		add	r3, r1, r3
 253 00ee 1A70     		strb	r2, [r3]
  77:.\SPI_handler.c ****                     for(i = 0 ; i < 3 ; i++){
 254              		.loc 1 77 0 discriminator 2
 255 00f0 7B69     		ldr	r3, [r7, #20]
 256 00f2 0133     		add	r3, r3, #1
 257 00f4 7B61     		str	r3, [r7, #20]
 258              	.L15:
  77:.\SPI_handler.c ****                     for(i = 0 ; i < 3 ; i++){
 259              		.loc 1 77 0 is_stmt 0 discriminator 1
 260 00f6 7B69     		ldr	r3, [r7, #20]
 261 00f8 022B     		cmp	r3, #2
 262 00fa F1DD     		ble	.L16
  79:.\SPI_handler.c ****                     }
  80:.\SPI_handler.c ****                     
  81:.\SPI_handler.c ****                     float tempValue = 0;
 263              		.loc 1 81 0 is_stmt 1
 264 00fc 0023     		mov	r3, #0
 265 00fe BB60     		str	r3, [r7, #8]
  82:.\SPI_handler.c ****                     float humiValue = 0;
 266              		.loc 1 82 0
 267 0100 0023     		mov	r3, #0
 268 0102 7B60     		str	r3, [r7, #4]
  83:.\SPI_handler.c ****                     
  84:.\SPI_handler.c ****                     /* Parse charArray's to float's */
  85:.\SPI_handler.c ****                     tempValue = (float)atof(tempBuffer);
 269              		.loc 1 85 0
 270 0104 3C4B     		ldr	r3, .L20+12
 271 0106 181C     		mov	r0, r3
 272 0108 FFF7FEFF 		bl	atof
 273 010c 031C     		mov	r3, r0
 274 010e 0C1C     		mov	r4, r1
 275 0110 181C     		mov	r0, r3
 276 0112 211C     		mov	r1, r4
 277 0114 FFF7FEFF 		bl	__aeabi_d2f
 278 0118 031C     		add	r3, r0, #0
 279 011a BB60     		str	r3, [r7, #8]
  86:.\SPI_handler.c ****                     humiValue = (float)atof(humiBuffer);
 280              		.loc 1 86 0
 281 011c 374B     		ldr	r3, .L20+16
 282 011e 181C     		mov	r0, r3
 283 0120 FFF7FEFF 		bl	atof
 284 0124 031C     		mov	r3, r0
 285 0126 0C1C     		mov	r4, r1
 286 0128 181C     		mov	r0, r3
 287 012a 211C     		mov	r1, r4
 288 012c FFF7FEFF 		bl	__aeabi_d2f
 289 0130 031C     		add	r3, r0, #0
 290 0132 7B60     		str	r3, [r7, #4]
  87:.\SPI_handler.c ****                     
  88:.\SPI_handler.c ****                     //config( humiValue , tempValue );
ARM GAS  C:\Users\MICKKI~1\AppData\Local\Temp\ccI9DkKJ.s 			page 8


  89:.\SPI_handler.c ****                     
  90:.\SPI_handler.c ****                     /* Clear Buffer and Counter */
  91:.\SPI_handler.c ****                     SPIS_1_SpiUartClearTxBuffer();
 291              		.loc 1 91 0
 292 0134 FFF7FEFF 		bl	SPIS_1_SpiUartClearTxBuffer
  92:.\SPI_handler.c ****                     spiCounter = 0;
 293              		.loc 1 92 0
 294 0138 2C4B     		ldr	r3, .L20
 295 013a 0022     		mov	r2, #0
 296 013c 1A60     		str	r2, [r3]
  93:.\SPI_handler.c ****                     
  94:.\SPI_handler.c ****                     /* Re-enable interrupt */
  95:.\SPI_handler.c ****                     CyGlobalIntEnable;
 297              		.loc 1 95 0
 298              	@ 95 ".\SPI_handler.c" 1
 299 013e 62B6     		CPSIE   i
 300              	@ 0 "" 2
  96:.\SPI_handler.c ****                 break;
 301              		.loc 1 96 0
 302              		.code	16
 303 0140 4DE0     		b	.L3
 304              	.L11:
  97:.\SPI_handler.c ****     		case 'V':
  98:.\SPI_handler.c ****                     GREEN_LED_Write(1);
 305              		.loc 1 98 0
 306 0142 0120     		mov	r0, #1
 307 0144 FFF7FEFF 		bl	GREEN_LED_Write
  99:.\SPI_handler.c ****                     RED_LED_Write(1);
 308              		.loc 1 99 0
 309 0148 0120     		mov	r0, #1
 310 014a FFF7FEFF 		bl	RED_LED_Write
 100:.\SPI_handler.c ****                     BLUE_LED_Write(0);
 311              		.loc 1 100 0
 312 014e 0020     		mov	r0, #0
 313 0150 FFF7FEFF 		bl	BLUE_LED_Write
 101:.\SPI_handler.c **** 
 102:.\SPI_handler.c ****                     SPIS_1_SpiUartClearTxBuffer();
 314              		.loc 1 102 0
 315 0154 FFF7FEFF 		bl	SPIS_1_SpiUartClearTxBuffer
 103:.\SPI_handler.c ****                     SPIS_1_SpiUartWriteTxData(unitNo);
 316              		.loc 1 103 0
 317 0158 294B     		ldr	r3, .L20+20
 318 015a 1B78     		ldrb	r3, [r3]
 319 015c 181C     		mov	r0, r3
 320 015e FFF7FEFF 		bl	SPIS_1_SpiUartWriteTxData
 104:.\SPI_handler.c ****                     spiCounter = 0;
 321              		.loc 1 104 0
 322 0162 224B     		ldr	r3, .L20
 323 0164 0022     		mov	r2, #0
 324 0166 1A60     		str	r2, [r3]
 105:.\SPI_handler.c ****     			break;
 325              		.loc 1 105 0
 326 0168 39E0     		b	.L3
 327              	.L8:
 106:.\SPI_handler.c ****             case 'L':
 107:.\SPI_handler.c ****                     for(c = 0 ; c < len ; c++){
 328              		.loc 1 107 0
ARM GAS  C:\Users\MICKKI~1\AppData\Local\Temp\ccI9DkKJ.s 			page 9


 329 016a 0023     		mov	r3, #0
 330 016c 3B61     		str	r3, [r7, #16]
 331 016e 0AE0     		b	.L17
 332              	.L18:
 108:.\SPI_handler.c ****                         spiTxBuffer[c] = testGetLog[c];
 333              		.loc 1 108 0 discriminator 2
 334 0170 244A     		ldr	r2, .L20+24
 335 0172 3B69     		ldr	r3, [r7, #16]
 336 0174 D318     		add	r3, r2, r3
 337 0176 1A78     		ldrb	r2, [r3]
 338 0178 2349     		ldr	r1, .L20+28
 339 017a 3B69     		ldr	r3, [r7, #16]
 340 017c CB18     		add	r3, r1, r3
 341 017e 1A70     		strb	r2, [r3]
 107:.\SPI_handler.c ****                     for(c = 0 ; c < len ; c++){
 342              		.loc 1 107 0 discriminator 2
 343 0180 3B69     		ldr	r3, [r7, #16]
 344 0182 0133     		add	r3, r3, #1
 345 0184 3B61     		str	r3, [r7, #16]
 346              	.L17:
 107:.\SPI_handler.c ****                     for(c = 0 ; c < len ; c++){
 347              		.loc 1 107 0 is_stmt 0 discriminator 1
 348 0186 214B     		ldr	r3, .L20+32
 349 0188 1B68     		ldr	r3, [r3]
 350 018a 3A69     		ldr	r2, [r7, #16]
 351 018c 9A42     		cmp	r2, r3
 352 018e EFD3     		bcc	.L18
 109:.\SPI_handler.c ****                     }
 110:.\SPI_handler.c ****                     
 111:.\SPI_handler.c ****                     SPIS_1_SpiUartClearTxBuffer();
 353              		.loc 1 111 0 is_stmt 1
 354 0190 FFF7FEFF 		bl	SPIS_1_SpiUartClearTxBuffer
 112:.\SPI_handler.c ****                     SPIS_1_SpiUartWriteTxData((char)len);
 355              		.loc 1 112 0
 356 0194 1D4B     		ldr	r3, .L20+32
 357 0196 1B68     		ldr	r3, [r3]
 358 0198 DBB2     		uxtb	r3, r3
 359 019a 181C     		mov	r0, r3
 360 019c FFF7FEFF 		bl	SPIS_1_SpiUartWriteTxData
 113:.\SPI_handler.c ****                     spiCounter = 0;
 361              		.loc 1 113 0
 362 01a0 124B     		ldr	r3, .L20
 363 01a2 0022     		mov	r2, #0
 364 01a4 1A60     		str	r2, [r3]
 114:.\SPI_handler.c ****                     spiReadCounter = 0;
 365              		.loc 1 114 0
 366 01a6 1A4B     		ldr	r3, .L20+36
 367 01a8 0022     		mov	r2, #0
 368 01aa 1A60     		str	r2, [r3]
 115:.\SPI_handler.c ****                 break;
 369              		.loc 1 115 0
 370 01ac 17E0     		b	.L3
 371              	.L10:
 116:.\SPI_handler.c ****             case 'R':
 117:.\SPI_handler.c ****                     SPIS_1_SpiUartClearTxBuffer();
 372              		.loc 1 117 0
 373 01ae FFF7FEFF 		bl	SPIS_1_SpiUartClearTxBuffer
ARM GAS  C:\Users\MICKKI~1\AppData\Local\Temp\ccI9DkKJ.s 			page 10


 118:.\SPI_handler.c ****                     SPIS_1_SpiUartWriteTxData(spiTxBuffer[spiReadCounter]);
 374              		.loc 1 118 0
 375 01b2 174B     		ldr	r3, .L20+36
 376 01b4 1B68     		ldr	r3, [r3]
 377 01b6 144A     		ldr	r2, .L20+28
 378 01b8 D35C     		ldrb	r3, [r2, r3]
 379 01ba 181C     		mov	r0, r3
 380 01bc FFF7FEFF 		bl	SPIS_1_SpiUartWriteTxData
 119:.\SPI_handler.c ****                     spiCounter = 0;
 381              		.loc 1 119 0
 382 01c0 0A4B     		ldr	r3, .L20
 383 01c2 0022     		mov	r2, #0
 384 01c4 1A60     		str	r2, [r3]
 120:.\SPI_handler.c ****                     spiReadCounter++;
 385              		.loc 1 120 0
 386 01c6 124B     		ldr	r3, .L20+36
 387 01c8 1B68     		ldr	r3, [r3]
 388 01ca 5A1C     		add	r2, r3, #1
 389 01cc 104B     		ldr	r3, .L20+36
 390 01ce 1A60     		str	r2, [r3]
 121:.\SPI_handler.c ****                 break;
 391              		.loc 1 121 0
 392 01d0 05E0     		b	.L3
 393              	.L6:
 122:.\SPI_handler.c ****             case 'C':
 123:.\SPI_handler.c ****                     SPIS_1_SpiUartClearRxBuffer();
 394              		.loc 1 123 0
 395 01d2 FFF7FEFF 		bl	SPIS_1_SpiUartClearRxBuffer
 124:.\SPI_handler.c ****                     spiCounter = 0;
 396              		.loc 1 124 0
 397 01d6 054B     		ldr	r3, .L20
 398 01d8 0022     		mov	r2, #0
 399 01da 1A60     		str	r2, [r3]
 400              	.L19:
 125:.\SPI_handler.c ****     		default:
 126:.\SPI_handler.c ****     			break;
 401              		.loc 1 126 0
 402 01dc C046     		mov	r8, r8
 403              	.L3:
 404              	.LBE2:
 127:.\SPI_handler.c ****     	}
 128:.\SPI_handler.c ****     }
 129:.\SPI_handler.c **** 	
 130:.\SPI_handler.c **** 	SPIS_1_ClearRxInterruptSource(SPIS_1_GetRxInterruptSource());
 405              		.loc 1 130 0
 406 01de 0D4B     		ldr	r3, .L20+40
 407 01e0 0C4A     		ldr	r2, .L20+40
 408 01e2 1268     		ldr	r2, [r2]
 409 01e4 1A60     		str	r2, [r3]
 131:.\SPI_handler.c **** 	//TP_1_Write(0); // Til måling af ISR gennemløbstid
 132:.\SPI_handler.c **** }...
 410              		.loc 1 132 0
 411 01e6 BD46     		mov	sp, r7
 412 01e8 07B0     		add	sp, sp, #28
 413              		@ sp needed for prologue
 414 01ea 90BD     		pop	{r4, r7, pc}
 415              	.L21:
ARM GAS  C:\Users\MICKKI~1\AppData\Local\Temp\ccI9DkKJ.s 			page 11


 416              		.align	2
 417              	.L20:
 418 01ec 00000000 		.word	spiCounter
 419 01f0 00000000 		.word	spiBuffer
 420 01f4 00000000 		.word	.L12
 421 01f8 00000000 		.word	tempBuffer
 422 01fc 00000000 		.word	humiBuffer
 423 0200 00000000 		.word	unitNo
 424 0204 00000000 		.word	testGetLog
 425 0208 00000000 		.word	spiTxBuffer
 426 020c 00000000 		.word	len
 427 0210 00000000 		.word	spiReadCounter
 428 0214 C00F0740 		.word	1074204608
 429              		.cfi_endproc
 430              	.LFE33:
 431              		.size	isr_spi_rx, .-isr_spi_rx
 432              		.text
 433              	.Letext0:
 434              		.file 2 "./Generated_Source/PSoC4/cytypes.h"