ARM GAS  C:\Users\Jakob\AppData\Local\Temp\cc5GwTcI.s 			page 1


   1              		.cpu cortex-m0
   2              		.fpu softvfp
   3              		.eabi_attribute 20, 1
   4              		.eabi_attribute 21, 1
   5              		.eabi_attribute 23, 3
   6              		.eabi_attribute 24, 1
   7              		.eabi_attribute 25, 1
   8              		.eabi_attribute 26, 1
   9              		.eabi_attribute 30, 6
  10              		.eabi_attribute 34, 0
  11              		.eabi_attribute 18, 4
  12              		.code	16
  13              		.file	"CapSense_1_CSHL.c"
  14              		.text
  15              	.Ltext0:
  16              		.cfi_sections	.debug_frame
  17              		.comm	CapSense_1_rawFilterData1,2,4
  18              		.global	CapSense_1_sensorBaseline
  19              		.bss
  20              		.align	2
  21              		.type	CapSense_1_sensorBaseline, %object
  22              		.size	CapSense_1_sensorBaseline, 2
  23              	CapSense_1_sensorBaseline:
  24 0000 0000     		.space	2
  25              		.global	CapSense_1_sensorBaselineLow
  26 0002 0000     		.align	2
  27              		.type	CapSense_1_sensorBaselineLow, %object
  28              		.size	CapSense_1_sensorBaselineLow, 1
  29              	CapSense_1_sensorBaselineLow:
  30 0004 00       		.space	1
  31              		.global	CapSense_1_sensorSignal
  32 0005 000000   		.align	2
  33              		.type	CapSense_1_sensorSignal, %object
  34              		.size	CapSense_1_sensorSignal, 1
  35              	CapSense_1_sensorSignal:
  36 0008 00       		.space	1
  37              		.global	CapSense_1_sensorOnMask
  38 0009 000000   		.align	2
  39              		.type	CapSense_1_sensorOnMask, %object
  40              		.size	CapSense_1_sensorOnMask, 1
  41              	CapSense_1_sensorOnMask:
  42 000c 00       		.space	1
  43              		.comm	CapSense_1_lowBaselineResetCnt,1,4
  44              		.global	CapSense_1_lowBaselineReset
  45              		.data
  46              		.align	2
  47              		.type	CapSense_1_lowBaselineReset, %object
  48              		.size	CapSense_1_lowBaselineReset, 1
  49              	CapSense_1_lowBaselineReset:
  50 0000 1E       		.byte	30
  51              		.comm	CapSense_1_fingerThreshold,1,4
  52              		.comm	CapSense_1_noiseThreshold,1,4
  53              		.comm	CapSense_1_negativeNoiseThreshold,1,4
  54              		.comm	CapSense_1_hysteresis,1,4
  55              		.global	CapSense_1_debounce
  56 0001 000000   		.align	2
  57              		.type	CapSense_1_debounce, %object
ARM GAS  C:\Users\Jakob\AppData\Local\Temp\cc5GwTcI.s 			page 2


  58              		.size	CapSense_1_debounce, 1
  59              	CapSense_1_debounce:
  60 0004 05       		.byte	5
  61 0005 000000   		.bss
  62 000d 000000   		.align	2
  63              	CapSense_1_debounceCounter:
  64 0010 0000     		.space	2
  65              		.global	CapSense_1_rawDataIndex
  66 0012 0000     		.section	.rodata
  67              		.align	2
  68              		.type	CapSense_1_rawDataIndex, %object
  69              		.size	CapSense_1_rawDataIndex, 1
  70              	CapSense_1_rawDataIndex:
  71 0000 00       		.space	1
  72              		.global	CapSense_1_numberOfSensors
  73 0001 000000   		.align	2
  74              		.type	CapSense_1_numberOfSensors, %object
  75              		.size	CapSense_1_numberOfSensors, 1
  76              	CapSense_1_numberOfSensors:
  77 0004 01       		.byte	1
  78 0005 000000   		.section	.text.CapSense_1_BaseInit,"ax",%progbits
  79              		.align	2
  80              		.global	CapSense_1_BaseInit
  81              		.code	16
  82              		.thumb_func
  83              		.type	CapSense_1_BaseInit, %function
  84              	CapSense_1_BaseInit:
  85              	.LFB33:
  86              		.file 1 ".\\Generated_Source\\PSoC4\\CapSense_1_CSHL.c"
   1:.\Generated_Source\PSoC4/CapSense_1_CSHL.c **** /*******************************************************************************
   2:.\Generated_Source\PSoC4/CapSense_1_CSHL.c **** * File Name: CapSense_1_CSHL.c
   3:.\Generated_Source\PSoC4/CapSense_1_CSHL.c **** * Version 2.0
   4:.\Generated_Source\PSoC4/CapSense_1_CSHL.c **** *
   5:.\Generated_Source\PSoC4/CapSense_1_CSHL.c **** * Description:
   6:.\Generated_Source\PSoC4/CapSense_1_CSHL.c **** *  This file provides the source code to the High Level APIs for the CapSesne
   7:.\Generated_Source\PSoC4/CapSense_1_CSHL.c **** *  CSD component.
   8:.\Generated_Source\PSoC4/CapSense_1_CSHL.c **** *
   9:.\Generated_Source\PSoC4/CapSense_1_CSHL.c **** * Note:
  10:.\Generated_Source\PSoC4/CapSense_1_CSHL.c **** *
  11:.\Generated_Source\PSoC4/CapSense_1_CSHL.c **** ********************************************************************************
  12:.\Generated_Source\PSoC4/CapSense_1_CSHL.c **** * Copyright 2014, Cypress Semiconductor Corporation.  All rights reserved.
  13:.\Generated_Source\PSoC4/CapSense_1_CSHL.c **** * You may use this file only in accordance with the license, terms, conditions,
  14:.\Generated_Source\PSoC4/CapSense_1_CSHL.c **** * disclaimers, and limitations in the end user license agreement accompanying
  15:.\Generated_Source\PSoC4/CapSense_1_CSHL.c **** * the software package with which this file was provided.
  16:.\Generated_Source\PSoC4/CapSense_1_CSHL.c **** *******************************************************************************/
  17:.\Generated_Source\PSoC4/CapSense_1_CSHL.c **** 
  18:.\Generated_Source\PSoC4/CapSense_1_CSHL.c **** #include "CapSense_1_CSHL.h"
  19:.\Generated_Source\PSoC4/CapSense_1_CSHL.c **** #include "CapSense_1_PVT.h"
  20:.\Generated_Source\PSoC4/CapSense_1_CSHL.c **** 
  21:.\Generated_Source\PSoC4/CapSense_1_CSHL.c **** /* SmartSense functions */
  22:.\Generated_Source\PSoC4/CapSense_1_CSHL.c **** #if (CapSense_1_TUNING_METHOD == CapSense_1__TUNING_AUTO)
  23:.\Generated_Source\PSoC4/CapSense_1_CSHL.c ****     extern void CapSense_1_UpdateThresholds(uint32 sensor);
  24:.\Generated_Source\PSoC4/CapSense_1_CSHL.c **** #endif /* (CapSense_1_TUNING_METHOD == CapSense_1__TUNING_AUTO) */
  25:.\Generated_Source\PSoC4/CapSense_1_CSHL.c **** 
  26:.\Generated_Source\PSoC4/CapSense_1_CSHL.c **** /* Median filter function prototype */
  27:.\Generated_Source\PSoC4/CapSense_1_CSHL.c **** #if ( (0u != (CapSense_1_RAW_FILTER_MASK & CapSense_1_MEDIAN_FILTER)) || \
  28:.\Generated_Source\PSoC4/CapSense_1_CSHL.c ****       (0u != (CapSense_1_POS_FILTERS_MASK & CapSense_1_MEDIAN_FILTER)))
ARM GAS  C:\Users\Jakob\AppData\Local\Temp\cc5GwTcI.s 			page 3


  29:.\Generated_Source\PSoC4/CapSense_1_CSHL.c ****     uint16 CapSense_1_MedianFilter(uint16 x1, uint16 x2, uint16 x3);
  30:.\Generated_Source\PSoC4/CapSense_1_CSHL.c **** #endif /* CapSense_1_RAW_FILTER_MASK && CapSense_1_POS_FILTERS_MASK */
  31:.\Generated_Source\PSoC4/CapSense_1_CSHL.c **** 
  32:.\Generated_Source\PSoC4/CapSense_1_CSHL.c **** /* Averaging filter function prototype */
  33:.\Generated_Source\PSoC4/CapSense_1_CSHL.c **** #if ( (0u != (CapSense_1_RAW_FILTER_MASK & CapSense_1_AVERAGING_FILTER)) || \
  34:.\Generated_Source\PSoC4/CapSense_1_CSHL.c ****       (0u != (CapSense_1_POS_FILTERS_MASK & CapSense_1_AVERAGING_FILTER)) )
  35:.\Generated_Source\PSoC4/CapSense_1_CSHL.c ****     uint16 CapSense_1_AveragingFilter(uint16 x1, uint16 x2, uint16 x3);
  36:.\Generated_Source\PSoC4/CapSense_1_CSHL.c **** #endif /* CapSense_1_RAW_FILTER_MASK && CapSense_1_POS_FILTERS_MASK */
  37:.\Generated_Source\PSoC4/CapSense_1_CSHL.c **** 
  38:.\Generated_Source\PSoC4/CapSense_1_CSHL.c **** /* IIR2Filter(1/2prev + 1/2cur) filter function prototype */
  39:.\Generated_Source\PSoC4/CapSense_1_CSHL.c **** #if ( (0u != (CapSense_1_RAW_FILTER_MASK & CapSense_1_IIR2_FILTER)) || \
  40:.\Generated_Source\PSoC4/CapSense_1_CSHL.c ****       (0u != (CapSense_1_POS_FILTERS_MASK & CapSense_1_IIR2_FILTER)) )
  41:.\Generated_Source\PSoC4/CapSense_1_CSHL.c ****     uint16 CapSense_1_IIR2Filter(uint16 x1, uint16 x2);
  42:.\Generated_Source\PSoC4/CapSense_1_CSHL.c **** #endif /* CapSense_1_RAW_FILTER_MASK && CapSense_1_POS_FILTERS_MASK */
  43:.\Generated_Source\PSoC4/CapSense_1_CSHL.c **** 
  44:.\Generated_Source\PSoC4/CapSense_1_CSHL.c **** /* IIR4Filter(3/4prev + 1/4cur) filter function prototype */
  45:.\Generated_Source\PSoC4/CapSense_1_CSHL.c **** #if ( (0u != (CapSense_1_RAW_FILTER_MASK & CapSense_1_IIR4_FILTER)) || \
  46:.\Generated_Source\PSoC4/CapSense_1_CSHL.c ****       (0u != (CapSense_1_POS_FILTERS_MASK & CapSense_1_IIR4_FILTER)) )
  47:.\Generated_Source\PSoC4/CapSense_1_CSHL.c ****     uint16 CapSense_1_IIR4Filter(uint16 x1, uint16 x2);
  48:.\Generated_Source\PSoC4/CapSense_1_CSHL.c **** #endif /* CapSense_1_RAW_FILTER_MASK && CapSense_1_POS_FILTERS_MASK */
  49:.\Generated_Source\PSoC4/CapSense_1_CSHL.c **** 
  50:.\Generated_Source\PSoC4/CapSense_1_CSHL.c **** /* IIR8Filter(7/8prev + 1/8cur) filter function prototype - RawCounts only */
  51:.\Generated_Source\PSoC4/CapSense_1_CSHL.c **** #if (0u != (CapSense_1_RAW_FILTER_MASK & CapSense_1_IIR8_FILTER))
  52:.\Generated_Source\PSoC4/CapSense_1_CSHL.c ****     uint16 CapSense_1_IIR8Filter(uint16 x1, uint16 x2);
  53:.\Generated_Source\PSoC4/CapSense_1_CSHL.c **** #endif /* CapSense_1_RAW_FILTER_MASK */
  54:.\Generated_Source\PSoC4/CapSense_1_CSHL.c **** 
  55:.\Generated_Source\PSoC4/CapSense_1_CSHL.c **** /* IIR16Filter(15/16prev + 1/16cur) filter function prototype - RawCounts only */
  56:.\Generated_Source\PSoC4/CapSense_1_CSHL.c **** #if (0u != (CapSense_1_RAW_FILTER_MASK & CapSense_1_IIR16_FILTER))
  57:.\Generated_Source\PSoC4/CapSense_1_CSHL.c ****     uint16 CapSense_1_IIR16Filter(uint16 x1, uint16 x2);
  58:.\Generated_Source\PSoC4/CapSense_1_CSHL.c **** #endif /* CapSense_1_RAW_FILTER_MASK */
  59:.\Generated_Source\PSoC4/CapSense_1_CSHL.c **** 
  60:.\Generated_Source\PSoC4/CapSense_1_CSHL.c **** /* JitterFilter filter function prototype */
  61:.\Generated_Source\PSoC4/CapSense_1_CSHL.c **** #if ( (0u != (CapSense_1_RAW_FILTER_MASK & CapSense_1_JITTER_FILTER)) || \
  62:.\Generated_Source\PSoC4/CapSense_1_CSHL.c ****       (0u != (CapSense_1_POS_FILTERS_MASK & CapSense_1_JITTER_FILTER)) )
  63:.\Generated_Source\PSoC4/CapSense_1_CSHL.c ****     uint16 CapSense_1_JitterFilter(uint16 x1, uint16 x2);
  64:.\Generated_Source\PSoC4/CapSense_1_CSHL.c **** #endif /* CapSense_1_RAW_FILTER_MASK && CapSense_1_POS_FILTERS_MASK */
  65:.\Generated_Source\PSoC4/CapSense_1_CSHL.c **** 
  66:.\Generated_Source\PSoC4/CapSense_1_CSHL.c **** /* Storage of filters data */
  67:.\Generated_Source\PSoC4/CapSense_1_CSHL.c **** #if ( (0u != (CapSense_1_RAW_FILTER_MASK & CapSense_1_MEDIAN_FILTER)) || \
  68:.\Generated_Source\PSoC4/CapSense_1_CSHL.c ****       (0u != (CapSense_1_RAW_FILTER_MASK & CapSense_1_AVERAGING_FILTER)) )
  69:.\Generated_Source\PSoC4/CapSense_1_CSHL.c **** 
  70:.\Generated_Source\PSoC4/CapSense_1_CSHL.c ****     uint16 CapSense_1_rawFilterData1[CapSense_1_TOTAL_SENSOR_COUNT];
  71:.\Generated_Source\PSoC4/CapSense_1_CSHL.c ****     uint16 CapSense_1_rawFilterData2[CapSense_1_TOTAL_SENSOR_COUNT];
  72:.\Generated_Source\PSoC4/CapSense_1_CSHL.c **** 
  73:.\Generated_Source\PSoC4/CapSense_1_CSHL.c **** #elif ( (0u != (CapSense_1_RAW_FILTER_MASK & CapSense_1_IIR2_FILTER))   || \
  74:.\Generated_Source\PSoC4/CapSense_1_CSHL.c ****         (0u != (CapSense_1_RAW_FILTER_MASK & CapSense_1_IIR4_FILTER))   || \
  75:.\Generated_Source\PSoC4/CapSense_1_CSHL.c ****         (0u != (CapSense_1_RAW_FILTER_MASK & CapSense_1_JITTER_FILTER)) || \
  76:.\Generated_Source\PSoC4/CapSense_1_CSHL.c ****         (0u != (CapSense_1_RAW_FILTER_MASK & CapSense_1_IIR8_FILTER))   || \
  77:.\Generated_Source\PSoC4/CapSense_1_CSHL.c ****         (0u != (CapSense_1_RAW_FILTER_MASK & CapSense_1_IIR16_FILTER)) )
  78:.\Generated_Source\PSoC4/CapSense_1_CSHL.c ****         
  79:.\Generated_Source\PSoC4/CapSense_1_CSHL.c ****     uint16 CapSense_1_rawFilterData1[CapSense_1_TOTAL_SENSOR_COUNT];
  80:.\Generated_Source\PSoC4/CapSense_1_CSHL.c **** #endif  /* ( (CapSense_1_RAW_FILTER_MASK & CapSense_1_MEDIAN_FILTER) || \
  81:.\Generated_Source\PSoC4/CapSense_1_CSHL.c ****         *    (CapSense_1_RAW_FILTER_MASK & CapSense_1_AVERAGING_FILTER) )
  82:.\Generated_Source\PSoC4/CapSense_1_CSHL.c ****         */
  83:.\Generated_Source\PSoC4/CapSense_1_CSHL.c **** 
  84:.\Generated_Source\PSoC4/CapSense_1_CSHL.c **** extern uint16 CapSense_1_sensorRaw[CapSense_1_TOTAL_SENSOR_COUNT];
  85:.\Generated_Source\PSoC4/CapSense_1_CSHL.c **** extern uint8 CapSense_1_sensorEnableMask[CapSense_1_TOTAL_SENSOR_MASK];
ARM GAS  C:\Users\Jakob\AppData\Local\Temp\cc5GwTcI.s 			page 4


  86:.\Generated_Source\PSoC4/CapSense_1_CSHL.c **** extern const uint8 CapSense_1_widgetNumber[CapSense_1_TOTAL_SENSOR_COUNT];
  87:.\Generated_Source\PSoC4/CapSense_1_CSHL.c **** 
  88:.\Generated_Source\PSoC4/CapSense_1_CSHL.c **** #if (CapSense_1_TUNING_METHOD != CapSense_1__TUNING_NONE)
  89:.\Generated_Source\PSoC4/CapSense_1_CSHL.c **** 	extern uint32 CapSense_1_widgetResolution[CapSense_1_RESOLUTIONS_TBL_SIZE];	
  90:.\Generated_Source\PSoC4/CapSense_1_CSHL.c **** #endif /* (CapSense_1_TUNING_METHOD != CapSense_1__TUNING_NONE) */
  91:.\Generated_Source\PSoC4/CapSense_1_CSHL.c **** 
  92:.\Generated_Source\PSoC4/CapSense_1_CSHL.c **** uint16 CapSense_1_sensorBaseline[CapSense_1_TOTAL_SENSOR_COUNT] = {0u};
  93:.\Generated_Source\PSoC4/CapSense_1_CSHL.c **** uint8 CapSense_1_sensorBaselineLow[CapSense_1_TOTAL_SENSOR_COUNT] = {0u};
  94:.\Generated_Source\PSoC4/CapSense_1_CSHL.c **** uint8 CapSense_1_sensorSignal[CapSense_1_TOTAL_SENSOR_COUNT] = {0u};
  95:.\Generated_Source\PSoC4/CapSense_1_CSHL.c **** uint8 CapSense_1_sensorOnMask[CapSense_1_TOTAL_SENSOR_MASK] = {0u};
  96:.\Generated_Source\PSoC4/CapSense_1_CSHL.c **** 
  97:.\Generated_Source\PSoC4/CapSense_1_CSHL.c **** uint8 CapSense_1_lowBaselineResetCnt[CapSense_1_TOTAL_SENSOR_COUNT];
  98:.\Generated_Source\PSoC4/CapSense_1_CSHL.c **** uint8 CapSense_1_lowBaselineReset[CapSense_1_TOTAL_IMMUNITY_NUM] = {
  99:.\Generated_Source\PSoC4/CapSense_1_CSHL.c ****     30u, 
 100:.\Generated_Source\PSoC4/CapSense_1_CSHL.c **** };
 101:.\Generated_Source\PSoC4/CapSense_1_CSHL.c **** 
 102:.\Generated_Source\PSoC4/CapSense_1_CSHL.c **** 
 103:.\Generated_Source\PSoC4/CapSense_1_CSHL.c **** 
 104:.\Generated_Source\PSoC4/CapSense_1_CSHL.c **** #if (CapSense_1_TUNING_METHOD == CapSense_1__TUNING_AUTO)
 105:.\Generated_Source\PSoC4/CapSense_1_CSHL.c **** 	extern CapSense_1_CONFIG_TYPE_P4_v2_0 CapSense_1_config;
 106:.\Generated_Source\PSoC4/CapSense_1_CSHL.c **** #endif  /* (CapSense_1_TUNING_METHOD == CapSense_1__TUNING_AUTO) */
 107:.\Generated_Source\PSoC4/CapSense_1_CSHL.c **** 
 108:.\Generated_Source\PSoC4/CapSense_1_CSHL.c **** /* Generated by Customizer */
 109:.\Generated_Source\PSoC4/CapSense_1_CSHL.c **** uint8 CapSense_1_fingerThreshold[CapSense_1_THRESHOLD_TBL_SIZE];
 110:.\Generated_Source\PSoC4/CapSense_1_CSHL.c **** 
 111:.\Generated_Source\PSoC4/CapSense_1_CSHL.c **** uint8 CapSense_1_noiseThreshold[CapSense_1_THRESHOLD_TBL_SIZE];
 112:.\Generated_Source\PSoC4/CapSense_1_CSHL.c **** 
 113:.\Generated_Source\PSoC4/CapSense_1_CSHL.c **** uint8 CapSense_1_negativeNoiseThreshold[CapSense_1_THRESHOLD_TBL_SIZE];
 114:.\Generated_Source\PSoC4/CapSense_1_CSHL.c **** 
 115:.\Generated_Source\PSoC4/CapSense_1_CSHL.c **** uint8 CapSense_1_hysteresis[CapSense_1_WIDGET_PARAM_TBL_SIZE];
 116:.\Generated_Source\PSoC4/CapSense_1_CSHL.c **** 
 117:.\Generated_Source\PSoC4/CapSense_1_CSHL.c **** uint8 CapSense_1_debounce[] = {
 118:.\Generated_Source\PSoC4/CapSense_1_CSHL.c ****     5u, 
 119:.\Generated_Source\PSoC4/CapSense_1_CSHL.c **** };
 120:.\Generated_Source\PSoC4/CapSense_1_CSHL.c **** 
 121:.\Generated_Source\PSoC4/CapSense_1_CSHL.c **** static uint8 CapSense_1_debounceCounter[] = {
 122:.\Generated_Source\PSoC4/CapSense_1_CSHL.c ****     0u, 0u, 
 123:.\Generated_Source\PSoC4/CapSense_1_CSHL.c **** };
 124:.\Generated_Source\PSoC4/CapSense_1_CSHL.c **** 
 125:.\Generated_Source\PSoC4/CapSense_1_CSHL.c **** const uint8 CapSense_1_rawDataIndex[] = {
 126:.\Generated_Source\PSoC4/CapSense_1_CSHL.c ****     0u, /* DummyWidget__BTN */
 127:.\Generated_Source\PSoC4/CapSense_1_CSHL.c **** };
 128:.\Generated_Source\PSoC4/CapSense_1_CSHL.c **** 
 129:.\Generated_Source\PSoC4/CapSense_1_CSHL.c **** const uint8 CapSense_1_numberOfSensors[] = {
 130:.\Generated_Source\PSoC4/CapSense_1_CSHL.c ****     1u, /* DummyWidget__BTN */
 131:.\Generated_Source\PSoC4/CapSense_1_CSHL.c **** };
 132:.\Generated_Source\PSoC4/CapSense_1_CSHL.c **** 
 133:.\Generated_Source\PSoC4/CapSense_1_CSHL.c **** 
 134:.\Generated_Source\PSoC4/CapSense_1_CSHL.c **** 
 135:.\Generated_Source\PSoC4/CapSense_1_CSHL.c **** 
 136:.\Generated_Source\PSoC4/CapSense_1_CSHL.c **** /*******************************************************************************
 137:.\Generated_Source\PSoC4/CapSense_1_CSHL.c **** * Function Name: CapSense_1_BaseInit
 138:.\Generated_Source\PSoC4/CapSense_1_CSHL.c **** ********************************************************************************
 139:.\Generated_Source\PSoC4/CapSense_1_CSHL.c **** *
 140:.\Generated_Source\PSoC4/CapSense_1_CSHL.c **** * Summary:
 141:.\Generated_Source\PSoC4/CapSense_1_CSHL.c **** *  Loads the CapSense_1_sensorBaseline[sensor] array element with an 
 142:.\Generated_Source\PSoC4/CapSense_1_CSHL.c **** *  initial value which is equal to the raw count value. 
ARM GAS  C:\Users\Jakob\AppData\Local\Temp\cc5GwTcI.s 			page 5


 143:.\Generated_Source\PSoC4/CapSense_1_CSHL.c **** *  Resets to zero CapSense_1_sensorBaselineLow[sensor] and 
 144:.\Generated_Source\PSoC4/CapSense_1_CSHL.c **** *  CapSense_1_sensorSignal[sensor] array element.
 145:.\Generated_Source\PSoC4/CapSense_1_CSHL.c **** *  Loads the CapSense_1_debounceCounter[sensor] array element with the initial 
 146:.\Generated_Source\PSoC4/CapSense_1_CSHL.c **** *  value equal CapSense_1_debounce[].
 147:.\Generated_Source\PSoC4/CapSense_1_CSHL.c **** *  Loads the CapSense_1_rawFilterData2[sensor] and 
 148:.\Generated_Source\PSoC4/CapSense_1_CSHL.c **** *  CapSense_1_rawFilterData2[sensor] array element with an 
 149:.\Generated_Source\PSoC4/CapSense_1_CSHL.c **** *  initial value which is equal to the raw count value if the raw data filter is enabled.
 150:.\Generated_Source\PSoC4/CapSense_1_CSHL.c **** *
 151:.\Generated_Source\PSoC4/CapSense_1_CSHL.c **** * Parameters:
 152:.\Generated_Source\PSoC4/CapSense_1_CSHL.c **** *  sensor:  Sensor number.
 153:.\Generated_Source\PSoC4/CapSense_1_CSHL.c **** *
 154:.\Generated_Source\PSoC4/CapSense_1_CSHL.c **** * Return:
 155:.\Generated_Source\PSoC4/CapSense_1_CSHL.c **** *  None
 156:.\Generated_Source\PSoC4/CapSense_1_CSHL.c **** *
 157:.\Generated_Source\PSoC4/CapSense_1_CSHL.c **** * Global Variables:
 158:.\Generated_Source\PSoC4/CapSense_1_CSHL.c **** *  CapSense_1_sensorBaseline[]    - used to store the baseline value.
 159:.\Generated_Source\PSoC4/CapSense_1_CSHL.c **** *  CapSense_1_sensorBaselineLow[] - used to store the fraction byte of 
 160:.\Generated_Source\PSoC4/CapSense_1_CSHL.c **** *  the baseline value.
 161:.\Generated_Source\PSoC4/CapSense_1_CSHL.c **** *  CapSense_1_sensorSignal[]      - used to store a difference between 
 162:.\Generated_Source\PSoC4/CapSense_1_CSHL.c **** *  the current value of raw data and the previous value of the baseline.
 163:.\Generated_Source\PSoC4/CapSense_1_CSHL.c **** *  CapSense_1_debounceCounter[]   - used to store the current debounce 
 164:.\Generated_Source\PSoC4/CapSense_1_CSHL.c **** *  counter of the sensor. The widgets which have this parameter are buttons, matrix 
 165:.\Generated_Source\PSoC4/CapSense_1_CSHL.c **** *  buttons, proximity, and guard. All other widgets don't have the  debounce parameter
 166:.\Generated_Source\PSoC4/CapSense_1_CSHL.c **** *  and use the last element of this array with value 0 (it means no debounce).
 167:.\Generated_Source\PSoC4/CapSense_1_CSHL.c **** *  CapSense_1_rawFilterData1[]    - used to store a previous sample of 
 168:.\Generated_Source\PSoC4/CapSense_1_CSHL.c **** *  any enabled raw data filter.
 169:.\Generated_Source\PSoC4/CapSense_1_CSHL.c **** *  CapSense_1_rawFilterData2[]    - used to store before a previous sample
 170:.\Generated_Source\PSoC4/CapSense_1_CSHL.c **** *  of the enabled raw data filter. Required only for median or average filters.
 171:.\Generated_Source\PSoC4/CapSense_1_CSHL.c **** *
 172:.\Generated_Source\PSoC4/CapSense_1_CSHL.c **** * Side Effects:
 173:.\Generated_Source\PSoC4/CapSense_1_CSHL.c **** *  None
 174:.\Generated_Source\PSoC4/CapSense_1_CSHL.c **** * 
 175:.\Generated_Source\PSoC4/CapSense_1_CSHL.c **** *******************************************************************************/
 176:.\Generated_Source\PSoC4/CapSense_1_CSHL.c **** void CapSense_1_BaseInit(uint32 sensor)
 177:.\Generated_Source\PSoC4/CapSense_1_CSHL.c **** {
  87              		.loc 1 177 0
  88              		.cfi_startproc
  89 0000 80B5     		push	{r7, lr}
  90              	.LCFI0:
  91              		.cfi_def_cfa_offset 8
  92              		.cfi_offset 7, -8
  93              		.cfi_offset 14, -4
  94 0002 84B0     		sub	sp, sp, #16
  95              	.LCFI1:
  96              		.cfi_def_cfa_offset 24
  97 0004 00AF     		add	r7, sp, #0
  98              	.LCFI2:
  99              		.cfi_def_cfa_register 7
 100 0006 7860     		str	r0, [r7, #4]
 178:.\Generated_Source\PSoC4/CapSense_1_CSHL.c ****     #if ((CapSense_1_TOTAL_BUTTONS_COUNT) || (CapSense_1_TOTAL_MATRIX_BUTTONS_COUNT) || \
 179:.\Generated_Source\PSoC4/CapSense_1_CSHL.c ****          (CapSense_1_TOTAL_GENERICS_COUNT))
 180:.\Generated_Source\PSoC4/CapSense_1_CSHL.c ****         uint8 widget = CapSense_1_widgetNumber[sensor];
 101              		.loc 1 180 0
 102 0008 3B1C     		mov	r3, r7
 103 000a 0F33     		add	r3, r3, #15
 104 000c 1549     		ldr	r1, .L2
 105 000e 7A68     		ldr	r2, [r7, #4]
ARM GAS  C:\Users\Jakob\AppData\Local\Temp\cc5GwTcI.s 			page 6


 106 0010 8A18     		add	r2, r1, r2
 107 0012 1278     		ldrb	r2, [r2]
 108 0014 1A70     		strb	r2, [r3]
 181:.\Generated_Source\PSoC4/CapSense_1_CSHL.c ****     #endif /* ((CapSense_1_TOTAL_MATRIX_BUTTONS_COUNT) || (CapSense_1_TOTAL_MATRIX_BUTTONS_COUNT)) 
 182:.\Generated_Source\PSoC4/CapSense_1_CSHL.c ****     
 183:.\Generated_Source\PSoC4/CapSense_1_CSHL.c ****     #if (CapSense_1_TOTAL_MATRIX_BUTTONS_COUNT)
 184:.\Generated_Source\PSoC4/CapSense_1_CSHL.c ****         uint8 debounceIndex;
 185:.\Generated_Source\PSoC4/CapSense_1_CSHL.c ****     #endif  /* (CapSense_1_TOTAL_MATRIX_BUTTONS_COUNT) */
 186:.\Generated_Source\PSoC4/CapSense_1_CSHL.c ****     
 187:.\Generated_Source\PSoC4/CapSense_1_CSHL.c ****     #if (CapSense_1_TOTAL_GENERICS_COUNT)
 188:.\Generated_Source\PSoC4/CapSense_1_CSHL.c ****         /* Exclude generic widget */
 189:.\Generated_Source\PSoC4/CapSense_1_CSHL.c ****         if(widget < CapSense_1_END_OF_WIDGETS_INDEX)
 190:.\Generated_Source\PSoC4/CapSense_1_CSHL.c ****         {
 191:.\Generated_Source\PSoC4/CapSense_1_CSHL.c ****     #endif  /* CapSense_1_TOTAL_GENERICS_COUNT */
 192:.\Generated_Source\PSoC4/CapSense_1_CSHL.c ****     
 193:.\Generated_Source\PSoC4/CapSense_1_CSHL.c ****     /* Initialize Baseline */
 194:.\Generated_Source\PSoC4/CapSense_1_CSHL.c ****     CapSense_1_sensorBaseline[sensor] = CapSense_1_sensorRaw[sensor];
 109              		.loc 1 194 0
 110 0016 144B     		ldr	r3, .L2+4
 111 0018 7A68     		ldr	r2, [r7, #4]
 112 001a 5200     		lsl	r2, r2, #1
 113 001c D15A     		ldrh	r1, [r2, r3]
 114 001e 134B     		ldr	r3, .L2+8
 115 0020 7A68     		ldr	r2, [r7, #4]
 116 0022 5200     		lsl	r2, r2, #1
 117 0024 D152     		strh	r1, [r2, r3]
 195:.\Generated_Source\PSoC4/CapSense_1_CSHL.c ****     CapSense_1_sensorBaselineLow[sensor] = 0u;
 118              		.loc 1 195 0
 119 0026 124A     		ldr	r2, .L2+12
 120 0028 7B68     		ldr	r3, [r7, #4]
 121 002a D318     		add	r3, r2, r3
 122 002c 0022     		mov	r2, #0
 123 002e 1A70     		strb	r2, [r3]
 196:.\Generated_Source\PSoC4/CapSense_1_CSHL.c ****     CapSense_1_sensorSignal[sensor] = 0u;
 124              		.loc 1 196 0
 125 0030 104A     		ldr	r2, .L2+16
 126 0032 7B68     		ldr	r3, [r7, #4]
 127 0034 D318     		add	r3, r2, r3
 128 0036 0022     		mov	r2, #0
 129 0038 1A70     		strb	r2, [r3]
 197:.\Generated_Source\PSoC4/CapSense_1_CSHL.c ****         
 198:.\Generated_Source\PSoC4/CapSense_1_CSHL.c ****     CapSense_1_debounceCounter[widget] =  CapSense_1_debounce[widget];
 130              		.loc 1 198 0
 131 003a 3B1C     		mov	r3, r7
 132 003c 0F33     		add	r3, r3, #15
 133 003e 1B78     		ldrb	r3, [r3]
 134 0040 3A1C     		mov	r2, r7
 135 0042 0F32     		add	r2, r2, #15
 136 0044 1278     		ldrb	r2, [r2]
 137 0046 0C49     		ldr	r1, .L2+20
 138 0048 895C     		ldrb	r1, [r1, r2]
 139 004a 0C4A     		ldr	r2, .L2+24
 140 004c D154     		strb	r1, [r2, r3]
 199:.\Generated_Source\PSoC4/CapSense_1_CSHL.c **** 
 200:.\Generated_Source\PSoC4/CapSense_1_CSHL.c ****     
 201:.\Generated_Source\PSoC4/CapSense_1_CSHL.c ****     #if ((0u != (CapSense_1_RAW_FILTER_MASK & CapSense_1_MEDIAN_FILTER)) ||\
 202:.\Generated_Source\PSoC4/CapSense_1_CSHL.c ****          (0u != (CapSense_1_RAW_FILTER_MASK & CapSense_1_AVERAGING_FILTER)))
ARM GAS  C:\Users\Jakob\AppData\Local\Temp\cc5GwTcI.s 			page 7


 203:.\Generated_Source\PSoC4/CapSense_1_CSHL.c **** 
 204:.\Generated_Source\PSoC4/CapSense_1_CSHL.c ****         CapSense_1_rawFilterData1[sensor] = CapSense_1_sensorRaw[sensor];
 205:.\Generated_Source\PSoC4/CapSense_1_CSHL.c ****         CapSense_1_rawFilterData2[sensor] = CapSense_1_sensorRaw[sensor];
 206:.\Generated_Source\PSoC4/CapSense_1_CSHL.c ****     
 207:.\Generated_Source\PSoC4/CapSense_1_CSHL.c ****     #elif ((CapSense_1_RAW_FILTER_MASK & CapSense_1_IIR2_FILTER) ||\
 208:.\Generated_Source\PSoC4/CapSense_1_CSHL.c ****            (CapSense_1_RAW_FILTER_MASK & CapSense_1_IIR4_FILTER) ||\
 209:.\Generated_Source\PSoC4/CapSense_1_CSHL.c ****            (CapSense_1_RAW_FILTER_MASK & CapSense_1_JITTER_FILTER) ||\
 210:.\Generated_Source\PSoC4/CapSense_1_CSHL.c ****            (CapSense_1_RAW_FILTER_MASK & CapSense_1_IIR8_FILTER) ||\
 211:.\Generated_Source\PSoC4/CapSense_1_CSHL.c ****            (CapSense_1_RAW_FILTER_MASK & CapSense_1_IIR16_FILTER))
 212:.\Generated_Source\PSoC4/CapSense_1_CSHL.c ****             
 213:.\Generated_Source\PSoC4/CapSense_1_CSHL.c ****         CapSense_1_rawFilterData1[sensor] = CapSense_1_sensorRaw[sensor];
 141              		.loc 1 213 0
 142 004e 064B     		ldr	r3, .L2+4
 143 0050 7A68     		ldr	r2, [r7, #4]
 144 0052 5200     		lsl	r2, r2, #1
 145 0054 D15A     		ldrh	r1, [r2, r3]
 146 0056 0A4B     		ldr	r3, .L2+28
 147 0058 7A68     		ldr	r2, [r7, #4]
 148 005a 5200     		lsl	r2, r2, #1
 149 005c D152     		strh	r1, [r2, r3]
 214:.\Generated_Source\PSoC4/CapSense_1_CSHL.c ****     
 215:.\Generated_Source\PSoC4/CapSense_1_CSHL.c ****     #else
 216:.\Generated_Source\PSoC4/CapSense_1_CSHL.c ****         /* No Raw filters */
 217:.\Generated_Source\PSoC4/CapSense_1_CSHL.c ****     #endif  /* ((CapSense_1_RAW_FILTER_MASK & CapSense_1_MEDIAN_FILTER) || \
 218:.\Generated_Source\PSoC4/CapSense_1_CSHL.c ****             *   (CapSense_1_RAW_FILTER_MASK & CapSense_1_AVERAGING_FILTER))
 219:.\Generated_Source\PSoC4/CapSense_1_CSHL.c ****             */
 220:.\Generated_Source\PSoC4/CapSense_1_CSHL.c ****     
 221:.\Generated_Source\PSoC4/CapSense_1_CSHL.c ****     #if (CapSense_1_TOTAL_GENERICS_COUNT)
 222:.\Generated_Source\PSoC4/CapSense_1_CSHL.c ****         /* Exclude generic widget */
 223:.\Generated_Source\PSoC4/CapSense_1_CSHL.c ****         }
 224:.\Generated_Source\PSoC4/CapSense_1_CSHL.c ****     #endif  /* CapSense_1_TOTAL_GENERICS_COUNT */
 225:.\Generated_Source\PSoC4/CapSense_1_CSHL.c **** }
 150              		.loc 1 225 0
 151 005e BD46     		mov	sp, r7
 152 0060 04B0     		add	sp, sp, #16
 153              		@ sp needed for prologue
 154 0062 80BD     		pop	{r7, pc}
 155              	.L3:
 156              		.align	2
 157              	.L2:
 158 0064 00000000 		.word	CapSense_1_widgetNumber
 159 0068 00000000 		.word	CapSense_1_sensorRaw
 160 006c 00000000 		.word	CapSense_1_sensorBaseline
 161 0070 00000000 		.word	CapSense_1_sensorBaselineLow
 162 0074 00000000 		.word	CapSense_1_sensorSignal
 163 0078 00000000 		.word	CapSense_1_debounce
 164 007c 10000000 		.word	CapSense_1_debounceCounter
 165 0080 00000000 		.word	CapSense_1_rawFilterData1
 166              		.cfi_endproc
 167              	.LFE33:
 168              		.size	CapSense_1_BaseInit, .-CapSense_1_BaseInit
 169              		.section	.text.CapSense_1_InitializeSensorBaseline,"ax",%progbits
 170              		.align	2
 171              		.global	CapSense_1_InitializeSensorBaseline
 172              		.code	16
 173              		.thumb_func
 174              		.type	CapSense_1_InitializeSensorBaseline, %function
ARM GAS  C:\Users\Jakob\AppData\Local\Temp\cc5GwTcI.s 			page 8


 175              	CapSense_1_InitializeSensorBaseline:
 176              	.LFB34:
 226:.\Generated_Source\PSoC4/CapSense_1_CSHL.c **** 
 227:.\Generated_Source\PSoC4/CapSense_1_CSHL.c **** 
 228:.\Generated_Source\PSoC4/CapSense_1_CSHL.c **** /*******************************************************************************
 229:.\Generated_Source\PSoC4/CapSense_1_CSHL.c **** * Function Name: CapSense_1_InitializeSensorBaseline
 230:.\Generated_Source\PSoC4/CapSense_1_CSHL.c **** ********************************************************************************
 231:.\Generated_Source\PSoC4/CapSense_1_CSHL.c **** *
 232:.\Generated_Source\PSoC4/CapSense_1_CSHL.c **** * Summary:
 233:.\Generated_Source\PSoC4/CapSense_1_CSHL.c **** *  Loads the CapSense_1_sensorBaseline[sensor] array element with an 
 234:.\Generated_Source\PSoC4/CapSense_1_CSHL.c **** *  initial value by scanning the selected sensor (one channel design) or a pair 
 235:.\Generated_Source\PSoC4/CapSense_1_CSHL.c **** *  of sensors (two channels designs). The raw count value is copied into the 
 236:.\Generated_Source\PSoC4/CapSense_1_CSHL.c **** *  baseline array for each sensor. The raw data filters are initialized if 
 237:.\Generated_Source\PSoC4/CapSense_1_CSHL.c **** *  enabled.
 238:.\Generated_Source\PSoC4/CapSense_1_CSHL.c **** *
 239:.\Generated_Source\PSoC4/CapSense_1_CSHL.c **** * Parameters:
 240:.\Generated_Source\PSoC4/CapSense_1_CSHL.c **** *  sensor:  Sensor number.
 241:.\Generated_Source\PSoC4/CapSense_1_CSHL.c **** *
 242:.\Generated_Source\PSoC4/CapSense_1_CSHL.c **** * Return:
 243:.\Generated_Source\PSoC4/CapSense_1_CSHL.c **** *  None
 244:.\Generated_Source\PSoC4/CapSense_1_CSHL.c **** *
 245:.\Generated_Source\PSoC4/CapSense_1_CSHL.c **** * Global Variables:
 246:.\Generated_Source\PSoC4/CapSense_1_CSHL.c **** *  None
 247:.\Generated_Source\PSoC4/CapSense_1_CSHL.c **** *
 248:.\Generated_Source\PSoC4/CapSense_1_CSHL.c **** * Side Effects:
 249:.\Generated_Source\PSoC4/CapSense_1_CSHL.c **** *  None
 250:.\Generated_Source\PSoC4/CapSense_1_CSHL.c **** * 
 251:.\Generated_Source\PSoC4/CapSense_1_CSHL.c **** *******************************************************************************/
 252:.\Generated_Source\PSoC4/CapSense_1_CSHL.c **** void CapSense_1_InitializeSensorBaseline(uint32 sensor)
 253:.\Generated_Source\PSoC4/CapSense_1_CSHL.c **** {
 177              		.loc 1 253 0
 178              		.cfi_startproc
 179 0000 80B5     		push	{r7, lr}
 180              	.LCFI3:
 181              		.cfi_def_cfa_offset 8
 182              		.cfi_offset 7, -8
 183              		.cfi_offset 14, -4
 184 0002 82B0     		sub	sp, sp, #8
 185              	.LCFI4:
 186              		.cfi_def_cfa_offset 16
 187 0004 00AF     		add	r7, sp, #0
 188              	.LCFI5:
 189              		.cfi_def_cfa_register 7
 190 0006 7860     		str	r0, [r7, #4]
 254:.\Generated_Source\PSoC4/CapSense_1_CSHL.c ****     /* Scan sensor */
 255:.\Generated_Source\PSoC4/CapSense_1_CSHL.c ****     CapSense_1_ScanSensor(sensor);
 191              		.loc 1 255 0
 192 0008 7B68     		ldr	r3, [r7, #4]
 193 000a 181C     		mov	r0, r3
 194 000c FFF7FEFF 		bl	CapSense_1_ScanSensor
 256:.\Generated_Source\PSoC4/CapSense_1_CSHL.c ****     while(CapSense_1_IsBusy() != 0u)
 195              		.loc 1 256 0
 196 0010 C046     		mov	r8, r8
 197              	.L5:
 198              		.loc 1 256 0 is_stmt 0 discriminator 1
 199 0012 FFF7FEFF 		bl	CapSense_1_IsBusy
 200 0016 031C     		mov	r3, r0
ARM GAS  C:\Users\Jakob\AppData\Local\Temp\cc5GwTcI.s 			page 9


 201 0018 002B     		cmp	r3, #0
 202 001a FAD1     		bne	.L5
 257:.\Generated_Source\PSoC4/CapSense_1_CSHL.c ****     {
 258:.\Generated_Source\PSoC4/CapSense_1_CSHL.c ****         /* Wait while sensor is busy */
 259:.\Generated_Source\PSoC4/CapSense_1_CSHL.c ****     }
 260:.\Generated_Source\PSoC4/CapSense_1_CSHL.c ****     
 261:.\Generated_Source\PSoC4/CapSense_1_CSHL.c ****     /* Initialize Baseline, Signal and debounce counters */       
 262:.\Generated_Source\PSoC4/CapSense_1_CSHL.c ****     CapSense_1_BaseInit(sensor);
 203              		.loc 1 262 0 is_stmt 1
 204 001c 7B68     		ldr	r3, [r7, #4]
 205 001e 181C     		mov	r0, r3
 206 0020 FFF7FEFF 		bl	CapSense_1_BaseInit
 263:.\Generated_Source\PSoC4/CapSense_1_CSHL.c **** }
 207              		.loc 1 263 0
 208 0024 BD46     		mov	sp, r7
 209 0026 02B0     		add	sp, sp, #8
 210              		@ sp needed for prologue
 211 0028 80BD     		pop	{r7, pc}
 212              		.cfi_endproc
 213              	.LFE34:
 214              		.size	CapSense_1_InitializeSensorBaseline, .-CapSense_1_InitializeSensorBaseline
 215 002a C046     		.section	.text.CapSense_1_InitializeAllBaselines,"ax",%progbits
 216              		.align	2
 217              		.global	CapSense_1_InitializeAllBaselines
 218              		.code	16
 219              		.thumb_func
 220              		.type	CapSense_1_InitializeAllBaselines, %function
 221              	CapSense_1_InitializeAllBaselines:
 222              	.LFB35:
 264:.\Generated_Source\PSoC4/CapSense_1_CSHL.c **** 
 265:.\Generated_Source\PSoC4/CapSense_1_CSHL.c **** 
 266:.\Generated_Source\PSoC4/CapSense_1_CSHL.c **** /*******************************************************************************
 267:.\Generated_Source\PSoC4/CapSense_1_CSHL.c **** * Function Name: CapSense_1_InitializeAllBaselines
 268:.\Generated_Source\PSoC4/CapSense_1_CSHL.c **** ********************************************************************************
 269:.\Generated_Source\PSoC4/CapSense_1_CSHL.c **** *
 270:.\Generated_Source\PSoC4/CapSense_1_CSHL.c **** * Summary:
 271:.\Generated_Source\PSoC4/CapSense_1_CSHL.c **** *  Uses the CapSense_1_InitializeSensorBaseline function to load the 
 272:.\Generated_Source\PSoC4/CapSense_1_CSHL.c **** *  CapSense_1_sensorBaseline[] array with an initial values by scanning 
 273:.\Generated_Source\PSoC4/CapSense_1_CSHL.c **** *  all the sensors. The raw count values are copied into the baseline array for 
 274:.\Generated_Source\PSoC4/CapSense_1_CSHL.c **** *  all the sensors. The raw data filters are initialized if enabled.
 275:.\Generated_Source\PSoC4/CapSense_1_CSHL.c **** *
 276:.\Generated_Source\PSoC4/CapSense_1_CSHL.c **** * Parameters:
 277:.\Generated_Source\PSoC4/CapSense_1_CSHL.c **** *  None
 278:.\Generated_Source\PSoC4/CapSense_1_CSHL.c **** *
 279:.\Generated_Source\PSoC4/CapSense_1_CSHL.c **** * Return:
 280:.\Generated_Source\PSoC4/CapSense_1_CSHL.c **** *  None
 281:.\Generated_Source\PSoC4/CapSense_1_CSHL.c **** *
 282:.\Generated_Source\PSoC4/CapSense_1_CSHL.c **** * Global Variables:
 283:.\Generated_Source\PSoC4/CapSense_1_CSHL.c **** *  None
 284:.\Generated_Source\PSoC4/CapSense_1_CSHL.c **** *
 285:.\Generated_Source\PSoC4/CapSense_1_CSHL.c **** * Side Effects:
 286:.\Generated_Source\PSoC4/CapSense_1_CSHL.c **** *  None
 287:.\Generated_Source\PSoC4/CapSense_1_CSHL.c **** * 
 288:.\Generated_Source\PSoC4/CapSense_1_CSHL.c **** *******************************************************************************/
 289:.\Generated_Source\PSoC4/CapSense_1_CSHL.c **** void CapSense_1_InitializeAllBaselines(void)
 290:.\Generated_Source\PSoC4/CapSense_1_CSHL.c **** {
 223              		.loc 1 290 0
ARM GAS  C:\Users\Jakob\AppData\Local\Temp\cc5GwTcI.s 			page 10


 224              		.cfi_startproc
 225 0000 80B5     		push	{r7, lr}
 226              	.LCFI6:
 227              		.cfi_def_cfa_offset 8
 228              		.cfi_offset 7, -8
 229              		.cfi_offset 14, -4
 230 0002 82B0     		sub	sp, sp, #8
 231              	.LCFI7:
 232              		.cfi_def_cfa_offset 16
 233 0004 00AF     		add	r7, sp, #0
 234              	.LCFI8:
 235              		.cfi_def_cfa_register 7
 291:.\Generated_Source\PSoC4/CapSense_1_CSHL.c ****     uint32 i;
 292:.\Generated_Source\PSoC4/CapSense_1_CSHL.c ****     
 293:.\Generated_Source\PSoC4/CapSense_1_CSHL.c **** 	for(i = 0u; i < CapSense_1_TOTAL_SCANSLOT_COUNT; i++)
 236              		.loc 1 293 0
 237 0006 0023     		mov	r3, #0
 238 0008 7B60     		str	r3, [r7, #4]
 239 000a 06E0     		b	.L7
 240              	.L8:
 294:.\Generated_Source\PSoC4/CapSense_1_CSHL.c **** 	{
 295:.\Generated_Source\PSoC4/CapSense_1_CSHL.c ****     	CapSense_1_InitializeSensorBaseline(i);
 241              		.loc 1 295 0 discriminator 2
 242 000c 7B68     		ldr	r3, [r7, #4]
 243 000e 181C     		mov	r0, r3
 244 0010 FFF7FEFF 		bl	CapSense_1_InitializeSensorBaseline
 293:.\Generated_Source\PSoC4/CapSense_1_CSHL.c **** 	for(i = 0u; i < CapSense_1_TOTAL_SCANSLOT_COUNT; i++)
 245              		.loc 1 293 0 discriminator 2
 246 0014 7B68     		ldr	r3, [r7, #4]
 247 0016 0133     		add	r3, r3, #1
 248 0018 7B60     		str	r3, [r7, #4]
 249              	.L7:
 293:.\Generated_Source\PSoC4/CapSense_1_CSHL.c **** 	for(i = 0u; i < CapSense_1_TOTAL_SCANSLOT_COUNT; i++)
 250              		.loc 1 293 0 is_stmt 0 discriminator 1
 251 001a 7B68     		ldr	r3, [r7, #4]
 252 001c 002B     		cmp	r3, #0
 253 001e F5D0     		beq	.L8
 296:.\Generated_Source\PSoC4/CapSense_1_CSHL.c **** 	}
 297:.\Generated_Source\PSoC4/CapSense_1_CSHL.c **** }
 254              		.loc 1 297 0 is_stmt 1
 255 0020 BD46     		mov	sp, r7
 256 0022 02B0     		add	sp, sp, #8
 257              		@ sp needed for prologue
 258 0024 80BD     		pop	{r7, pc}
 259              		.cfi_endproc
 260              	.LFE35:
 261              		.size	CapSense_1_InitializeAllBaselines, .-CapSense_1_InitializeAllBaselines
 262 0026 C046     		.section	.text.CapSense_1_InitializeEnabledBaselines,"ax",%progbits
 263              		.align	2
 264              		.global	CapSense_1_InitializeEnabledBaselines
 265              		.code	16
 266              		.thumb_func
 267              		.type	CapSense_1_InitializeEnabledBaselines, %function
 268              	CapSense_1_InitializeEnabledBaselines:
 269              	.LFB36:
 298:.\Generated_Source\PSoC4/CapSense_1_CSHL.c **** 
 299:.\Generated_Source\PSoC4/CapSense_1_CSHL.c **** 
ARM GAS  C:\Users\Jakob\AppData\Local\Temp\cc5GwTcI.s 			page 11


 300:.\Generated_Source\PSoC4/CapSense_1_CSHL.c **** /*******************************************************************************
 301:.\Generated_Source\PSoC4/CapSense_1_CSHL.c **** * Function Name: CapSense_1_InitializeEnabledBaselines
 302:.\Generated_Source\PSoC4/CapSense_1_CSHL.c **** ********************************************************************************
 303:.\Generated_Source\PSoC4/CapSense_1_CSHL.c **** *
 304:.\Generated_Source\PSoC4/CapSense_1_CSHL.c **** * Summary:
 305:.\Generated_Source\PSoC4/CapSense_1_CSHL.c **** *  Scans all the enabled widgets and the raw count values are copied into the 
 306:.\Generated_Source\PSoC4/CapSense_1_CSHL.c **** *  baseline array for all the sensors enabled in the scanning process. The baselines 
 307:.\Generated_Source\PSoC4/CapSense_1_CSHL.c **** *  are initialized with zero values for sensors disabled from the scanning process. 
 308:.\Generated_Source\PSoC4/CapSense_1_CSHL.c **** *  The raw data filters are initialized if enabled.
 309:.\Generated_Source\PSoC4/CapSense_1_CSHL.c **** *
 310:.\Generated_Source\PSoC4/CapSense_1_CSHL.c **** * Parameters:
 311:.\Generated_Source\PSoC4/CapSense_1_CSHL.c **** *  None
 312:.\Generated_Source\PSoC4/CapSense_1_CSHL.c **** *
 313:.\Generated_Source\PSoC4/CapSense_1_CSHL.c **** * Return:
 314:.\Generated_Source\PSoC4/CapSense_1_CSHL.c **** *  None
 315:.\Generated_Source\PSoC4/CapSense_1_CSHL.c **** *
 316:.\Generated_Source\PSoC4/CapSense_1_CSHL.c **** * Global Variables:
 317:.\Generated_Source\PSoC4/CapSense_1_CSHL.c **** *  CapSense_1_sensorRaw[] - used to store the sensors raw data.
 318:.\Generated_Source\PSoC4/CapSense_1_CSHL.c **** *  CapSense_1_sensorEnableMask[ ] - used to store bit masks of the enabled sensors.
 319:.\Generated_Source\PSoC4/CapSense_1_CSHL.c **** *
 320:.\Generated_Source\PSoC4/CapSense_1_CSHL.c **** * Side Effects:
 321:.\Generated_Source\PSoC4/CapSense_1_CSHL.c **** *  None
 322:.\Generated_Source\PSoC4/CapSense_1_CSHL.c **** * 
 323:.\Generated_Source\PSoC4/CapSense_1_CSHL.c **** *******************************************************************************/
 324:.\Generated_Source\PSoC4/CapSense_1_CSHL.c **** void CapSense_1_InitializeEnabledBaselines(void)
 325:.\Generated_Source\PSoC4/CapSense_1_CSHL.c **** {
 270              		.loc 1 325 0
 271              		.cfi_startproc
 272 0000 80B5     		push	{r7, lr}
 273              	.LCFI9:
 274              		.cfi_def_cfa_offset 8
 275              		.cfi_offset 7, -8
 276              		.cfi_offset 14, -4
 277 0002 82B0     		sub	sp, sp, #8
 278              	.LCFI10:
 279              		.cfi_def_cfa_offset 16
 280 0004 00AF     		add	r7, sp, #0
 281              	.LCFI11:
 282              		.cfi_def_cfa_register 7
 326:.\Generated_Source\PSoC4/CapSense_1_CSHL.c ****     uint32 i;
 327:.\Generated_Source\PSoC4/CapSense_1_CSHL.c ****     uint32 isSensorEnabled;
 328:.\Generated_Source\PSoC4/CapSense_1_CSHL.c ****     
 329:.\Generated_Source\PSoC4/CapSense_1_CSHL.c ****     CapSense_1_ScanEnabledWidgets();
 283              		.loc 1 329 0
 284 0006 FFF7FEFF 		bl	CapSense_1_ScanEnabledWidgets
 330:.\Generated_Source\PSoC4/CapSense_1_CSHL.c ****     while(CapSense_1_IsBusy() != 0u)
 285              		.loc 1 330 0
 286 000a C046     		mov	r8, r8
 287              	.L10:
 288              		.loc 1 330 0 is_stmt 0 discriminator 1
 289 000c FFF7FEFF 		bl	CapSense_1_IsBusy
 290 0010 031C     		mov	r3, r0
 291 0012 002B     		cmp	r3, #0
 292 0014 FAD1     		bne	.L10
 331:.\Generated_Source\PSoC4/CapSense_1_CSHL.c ****     {
 332:.\Generated_Source\PSoC4/CapSense_1_CSHL.c ****         /* Wait while sensor is busy */
 333:.\Generated_Source\PSoC4/CapSense_1_CSHL.c ****     }
ARM GAS  C:\Users\Jakob\AppData\Local\Temp\cc5GwTcI.s 			page 12


 334:.\Generated_Source\PSoC4/CapSense_1_CSHL.c ****     
 335:.\Generated_Source\PSoC4/CapSense_1_CSHL.c ****     for(i = 0u; i < CapSense_1_TOTAL_SENSOR_COUNT; i++)
 293              		.loc 1 335 0 is_stmt 1
 294 0016 0023     		mov	r3, #0
 295 0018 7B60     		str	r3, [r7, #4]
 296 001a 11E0     		b	.L11
 297              	.L13:
 336:.\Generated_Source\PSoC4/CapSense_1_CSHL.c ****     {
 337:.\Generated_Source\PSoC4/CapSense_1_CSHL.c ****         isSensorEnabled = CapSense_1_GetBitValue(CapSense_1_sensorEnableMask, i);
 298              		.loc 1 337 0
 299 001c 0B4A     		ldr	r2, .L14
 300 001e 7B68     		ldr	r3, [r7, #4]
 301 0020 101C     		mov	r0, r2
 302 0022 191C     		mov	r1, r3
 303 0024 FFF7FEFF 		bl	CapSense_1_GetBitValue
 304 0028 031C     		mov	r3, r0
 305 002a 3B60     		str	r3, [r7]
 338:.\Generated_Source\PSoC4/CapSense_1_CSHL.c ****         
 339:.\Generated_Source\PSoC4/CapSense_1_CSHL.c ****         /* Clear raw data if sensor is disabled from scanning process */
 340:.\Generated_Source\PSoC4/CapSense_1_CSHL.c ****         if(isSensorEnabled != 0u)
 306              		.loc 1 340 0
 307 002c 3B68     		ldr	r3, [r7]
 308 002e 002B     		cmp	r3, #0
 309 0030 03D0     		beq	.L12
 341:.\Generated_Source\PSoC4/CapSense_1_CSHL.c ****         {
 342:.\Generated_Source\PSoC4/CapSense_1_CSHL.c ****             /* Initialize baselines */
 343:.\Generated_Source\PSoC4/CapSense_1_CSHL.c ****             CapSense_1_BaseInit(i);
 310              		.loc 1 343 0
 311 0032 7B68     		ldr	r3, [r7, #4]
 312 0034 181C     		mov	r0, r3
 313 0036 FFF7FEFF 		bl	CapSense_1_BaseInit
 314              	.L12:
 335:.\Generated_Source\PSoC4/CapSense_1_CSHL.c ****     for(i = 0u; i < CapSense_1_TOTAL_SENSOR_COUNT; i++)
 315              		.loc 1 335 0
 316 003a 7B68     		ldr	r3, [r7, #4]
 317 003c 0133     		add	r3, r3, #1
 318 003e 7B60     		str	r3, [r7, #4]
 319              	.L11:
 335:.\Generated_Source\PSoC4/CapSense_1_CSHL.c ****     for(i = 0u; i < CapSense_1_TOTAL_SENSOR_COUNT; i++)
 320              		.loc 1 335 0 is_stmt 0 discriminator 1
 321 0040 7B68     		ldr	r3, [r7, #4]
 322 0042 002B     		cmp	r3, #0
 323 0044 EAD0     		beq	.L13
 344:.\Generated_Source\PSoC4/CapSense_1_CSHL.c ****         }
 345:.\Generated_Source\PSoC4/CapSense_1_CSHL.c ****     }
 346:.\Generated_Source\PSoC4/CapSense_1_CSHL.c **** }  
 324              		.loc 1 346 0 is_stmt 1
 325 0046 BD46     		mov	sp, r7
 326 0048 02B0     		add	sp, sp, #8
 327              		@ sp needed for prologue
 328 004a 80BD     		pop	{r7, pc}
 329              	.L15:
 330              		.align	2
 331              	.L14:
 332 004c 00000000 		.word	CapSense_1_sensorEnableMask
 333              		.cfi_endproc
 334              	.LFE36:
ARM GAS  C:\Users\Jakob\AppData\Local\Temp\cc5GwTcI.s 			page 13


 335              		.size	CapSense_1_InitializeEnabledBaselines, .-CapSense_1_InitializeEnabledBaselines
 336              		.section	.text.CapSense_1_UpdateBaselineNoThreshold,"ax",%progbits
 337              		.align	2
 338              		.global	CapSense_1_UpdateBaselineNoThreshold
 339              		.code	16
 340              		.thumb_func
 341              		.type	CapSense_1_UpdateBaselineNoThreshold, %function
 342              	CapSense_1_UpdateBaselineNoThreshold:
 343              	.LFB37:
 347:.\Generated_Source\PSoC4/CapSense_1_CSHL.c **** 
 348:.\Generated_Source\PSoC4/CapSense_1_CSHL.c **** 
 349:.\Generated_Source\PSoC4/CapSense_1_CSHL.c **** /*******************************************************************************
 350:.\Generated_Source\PSoC4/CapSense_1_CSHL.c **** * Function Name: CapSense_1_UpdateBaselineNoThreshold
 351:.\Generated_Source\PSoC4/CapSense_1_CSHL.c **** ********************************************************************************
 352:.\Generated_Source\PSoC4/CapSense_1_CSHL.c **** *
 353:.\Generated_Source\PSoC4/CapSense_1_CSHL.c **** * Summary:
 354:.\Generated_Source\PSoC4/CapSense_1_CSHL.c **** *  Updates the CapSense_1_sensorBaseline[sensor] array element using the 
 355:.\Generated_Source\PSoC4/CapSense_1_CSHL.c **** *  LP filter with k = 256. The signal calculates the difference of count by 
 356:.\Generated_Source\PSoC4/CapSense_1_CSHL.c **** *  subtracting the previous baseline from the current raw count value and stores
 357:.\Generated_Source\PSoC4/CapSense_1_CSHL.c **** *  it in CapSense_1_sensorSignal[sensor]. 
 358:.\Generated_Source\PSoC4/CapSense_1_CSHL.c **** *  If the auto reset option is enabled, the baseline updated regards the noise threshold. 
 359:.\Generated_Source\PSoC4/CapSense_1_CSHL.c **** *  If the auto reset option is disabled, the baseline stops updating; baseline is loaded 
 360:.\Generated_Source\PSoC4/CapSense_1_CSHL.c **** *  with a raw count value if a signal is greater than zero and if signal is less 
 361:.\Generated_Source\PSoC4/CapSense_1_CSHL.c **** *  than noise threshold.
 362:.\Generated_Source\PSoC4/CapSense_1_CSHL.c **** *  Raw data filters are applied to the values if enabled before baseline 
 363:.\Generated_Source\PSoC4/CapSense_1_CSHL.c **** *  calculation.
 364:.\Generated_Source\PSoC4/CapSense_1_CSHL.c **** *
 365:.\Generated_Source\PSoC4/CapSense_1_CSHL.c **** *  This API does not update the thresholds in the Smartsense Mode.
 366:.\Generated_Source\PSoC4/CapSense_1_CSHL.c **** *
 367:.\Generated_Source\PSoC4/CapSense_1_CSHL.c **** * Parameters:
 368:.\Generated_Source\PSoC4/CapSense_1_CSHL.c **** *  sensor:  Sensor number.
 369:.\Generated_Source\PSoC4/CapSense_1_CSHL.c **** *
 370:.\Generated_Source\PSoC4/CapSense_1_CSHL.c **** * Return:
 371:.\Generated_Source\PSoC4/CapSense_1_CSHL.c **** *  None
 372:.\Generated_Source\PSoC4/CapSense_1_CSHL.c **** *
 373:.\Generated_Source\PSoC4/CapSense_1_CSHL.c **** * Global Variables:
 374:.\Generated_Source\PSoC4/CapSense_1_CSHL.c **** *  CapSense_1_widgetNumber[]  - stores widget numbers.
 375:.\Generated_Source\PSoC4/CapSense_1_CSHL.c **** *  CapSense_1_sensorBaseline[]    - used to store baseline value.
 376:.\Generated_Source\PSoC4/CapSense_1_CSHL.c **** *  CapSense_1_sensorBaselineLow[] - used to store fraction byte of 
 377:.\Generated_Source\PSoC4/CapSense_1_CSHL.c **** *  baseline value.
 378:.\Generated_Source\PSoC4/CapSense_1_CSHL.c **** *  CapSense_1_sensorSignal[]      - used to store difference between 
 379:.\Generated_Source\PSoC4/CapSense_1_CSHL.c **** *  current value of raw data and previous value of baseline.
 380:.\Generated_Source\PSoC4/CapSense_1_CSHL.c **** *  CapSense_1_rawFilterData1[]    - used to store previous sample of 
 381:.\Generated_Source\PSoC4/CapSense_1_CSHL.c **** *  any enabled raw data filter.
 382:.\Generated_Source\PSoC4/CapSense_1_CSHL.c **** *  CapSense_1_rawFilterData2[]    - used to store before previous sample
 383:.\Generated_Source\PSoC4/CapSense_1_CSHL.c **** *  of enabled raw data filter. Only required for median or average filters.
 384:.\Generated_Source\PSoC4/CapSense_1_CSHL.c **** * 
 385:.\Generated_Source\PSoC4/CapSense_1_CSHL.c **** * Side Effects:
 386:.\Generated_Source\PSoC4/CapSense_1_CSHL.c **** *  None
 387:.\Generated_Source\PSoC4/CapSense_1_CSHL.c **** * 
 388:.\Generated_Source\PSoC4/CapSense_1_CSHL.c **** *******************************************************************************/
 389:.\Generated_Source\PSoC4/CapSense_1_CSHL.c **** void CapSense_1_UpdateBaselineNoThreshold(uint32 sensor)
 390:.\Generated_Source\PSoC4/CapSense_1_CSHL.c **** {
 344              		.loc 1 390 0
 345              		.cfi_startproc
 346 0000 90B5     		push	{r4, r7, lr}
 347              	.LCFI12:
ARM GAS  C:\Users\Jakob\AppData\Local\Temp\cc5GwTcI.s 			page 14


 348              		.cfi_def_cfa_offset 12
 349              		.cfi_offset 4, -12
 350              		.cfi_offset 7, -8
 351              		.cfi_offset 14, -4
 352 0002 87B0     		sub	sp, sp, #28
 353              	.LCFI13:
 354              		.cfi_def_cfa_offset 40
 355 0004 00AF     		add	r7, sp, #0
 356              	.LCFI14:
 357              		.cfi_def_cfa_register 7
 358 0006 7860     		str	r0, [r7, #4]
 391:.\Generated_Source\PSoC4/CapSense_1_CSHL.c ****     uint32 calc;
 392:.\Generated_Source\PSoC4/CapSense_1_CSHL.c **** 	uint32 sign;
 393:.\Generated_Source\PSoC4/CapSense_1_CSHL.c ****     uint16 tempRaw;
 394:.\Generated_Source\PSoC4/CapSense_1_CSHL.c ****     uint16 filteredRawData;
 395:.\Generated_Source\PSoC4/CapSense_1_CSHL.c ****     uint8 widget = CapSense_1_widgetNumber[sensor];
 359              		.loc 1 395 0
 360 0008 3B1C     		mov	r3, r7
 361 000a 1133     		add	r3, r3, #17
 362 000c 7649     		ldr	r1, .L28
 363 000e 7A68     		ldr	r2, [r7, #4]
 364 0010 8A18     		add	r2, r1, r2
 365 0012 1278     		ldrb	r2, [r2]
 366 0014 1A70     		strb	r2, [r3]
 396:.\Generated_Source\PSoC4/CapSense_1_CSHL.c ****     uint8 noiseThreshold = CapSense_1_noiseThreshold[widget];
 367              		.loc 1 396 0
 368 0016 3B1C     		mov	r3, r7
 369 0018 1133     		add	r3, r3, #17
 370 001a 1A78     		ldrb	r2, [r3]
 371 001c 3B1C     		mov	r3, r7
 372 001e 1033     		add	r3, r3, #16
 373 0020 7249     		ldr	r1, .L28+4
 374 0022 8A5C     		ldrb	r2, [r1, r2]
 375 0024 1A70     		strb	r2, [r3]
 397:.\Generated_Source\PSoC4/CapSense_1_CSHL.c ****     
 398:.\Generated_Source\PSoC4/CapSense_1_CSHL.c ****     #if (CapSense_1_TOTAL_GENERICS_COUNT)
 399:.\Generated_Source\PSoC4/CapSense_1_CSHL.c ****         /* Exclude generic widget */
 400:.\Generated_Source\PSoC4/CapSense_1_CSHL.c ****         if(widget < CapSense_1_END_OF_WIDGETS_INDEX)
 401:.\Generated_Source\PSoC4/CapSense_1_CSHL.c ****         {
 402:.\Generated_Source\PSoC4/CapSense_1_CSHL.c ****     #endif  /* CapSense_1_TOTAL_GENERICS_COUNT */
 403:.\Generated_Source\PSoC4/CapSense_1_CSHL.c ****     
 404:.\Generated_Source\PSoC4/CapSense_1_CSHL.c ****     filteredRawData = CapSense_1_sensorRaw[sensor];
 376              		.loc 1 404 0
 377 0026 3B1C     		mov	r3, r7
 378 0028 0E33     		add	r3, r3, #14
 379 002a 714A     		ldr	r2, .L28+8
 380 002c 7968     		ldr	r1, [r7, #4]
 381 002e 4900     		lsl	r1, r1, #1
 382 0030 8A5A     		ldrh	r2, [r1, r2]
 383 0032 1A80     		strh	r2, [r3]
 405:.\Generated_Source\PSoC4/CapSense_1_CSHL.c ****     
 406:.\Generated_Source\PSoC4/CapSense_1_CSHL.c ****     #if (CapSense_1_RAW_FILTER_MASK & CapSense_1_MEDIAN_FILTER)
 407:.\Generated_Source\PSoC4/CapSense_1_CSHL.c ****         tempRaw = filteredRawData;
 408:.\Generated_Source\PSoC4/CapSense_1_CSHL.c ****         filteredRawData = CapSense_1_MedianFilter(filteredRawData, CapSense_1_rawFilterData1[sensor
 409:.\Generated_Source\PSoC4/CapSense_1_CSHL.c ****                                                         CapSense_1_rawFilterData2[sensor]);
 410:.\Generated_Source\PSoC4/CapSense_1_CSHL.c ****         CapSense_1_rawFilterData2[sensor] = CapSense_1_rawFilterData1[sensor];
 411:.\Generated_Source\PSoC4/CapSense_1_CSHL.c ****         CapSense_1_rawFilterData1[sensor] = tempRaw;
ARM GAS  C:\Users\Jakob\AppData\Local\Temp\cc5GwTcI.s 			page 15


 412:.\Generated_Source\PSoC4/CapSense_1_CSHL.c ****         
 413:.\Generated_Source\PSoC4/CapSense_1_CSHL.c ****     #elif (CapSense_1_RAW_FILTER_MASK & CapSense_1_AVERAGING_FILTER)
 414:.\Generated_Source\PSoC4/CapSense_1_CSHL.c ****         tempRaw = filteredRawData;
 415:.\Generated_Source\PSoC4/CapSense_1_CSHL.c ****         filteredRawData = CapSense_1_AveragingFilter(filteredRawData, CapSense_1_rawFilterData1[sen
 416:.\Generated_Source\PSoC4/CapSense_1_CSHL.c ****                                                            CapSense_1_rawFilterData2[sensor]);
 417:.\Generated_Source\PSoC4/CapSense_1_CSHL.c ****         CapSense_1_rawFilterData2[sensor] = CapSense_1_rawFilterData1[sensor];
 418:.\Generated_Source\PSoC4/CapSense_1_CSHL.c ****         CapSense_1_rawFilterData1[sensor] = tempRaw;
 419:.\Generated_Source\PSoC4/CapSense_1_CSHL.c ****         
 420:.\Generated_Source\PSoC4/CapSense_1_CSHL.c ****     #elif (CapSense_1_RAW_FILTER_MASK & CapSense_1_IIR2_FILTER)
 421:.\Generated_Source\PSoC4/CapSense_1_CSHL.c ****         filteredRawData = CapSense_1_IIR2Filter(filteredRawData, CapSense_1_rawFilterData1[sensor])
 422:.\Generated_Source\PSoC4/CapSense_1_CSHL.c ****         CapSense_1_rawFilterData1[sensor] = filteredRawData;
 423:.\Generated_Source\PSoC4/CapSense_1_CSHL.c ****         
 424:.\Generated_Source\PSoC4/CapSense_1_CSHL.c ****     #elif (CapSense_1_RAW_FILTER_MASK & CapSense_1_IIR4_FILTER)
 425:.\Generated_Source\PSoC4/CapSense_1_CSHL.c ****         filteredRawData = CapSense_1_IIR4Filter(filteredRawData, CapSense_1_rawFilterData1[sensor])
 384              		.loc 1 425 0
 385 0034 6F4B     		ldr	r3, .L28+12
 386 0036 7A68     		ldr	r2, [r7, #4]
 387 0038 5200     		lsl	r2, r2, #1
 388 003a D35A     		ldrh	r3, [r2, r3]
 389 003c 3C1C     		mov	r4, r7
 390 003e 0E34     		add	r4, r4, #14
 391 0040 3A1C     		mov	r2, r7
 392 0042 0E32     		add	r2, r2, #14
 393 0044 1288     		ldrh	r2, [r2]
 394 0046 101C     		mov	r0, r2
 395 0048 191C     		mov	r1, r3
 396 004a FFF7FEFF 		bl	CapSense_1_IIR4Filter
 397 004e 031C     		mov	r3, r0
 398 0050 2380     		strh	r3, [r4]
 426:.\Generated_Source\PSoC4/CapSense_1_CSHL.c ****         CapSense_1_rawFilterData1[sensor] = filteredRawData;
 399              		.loc 1 426 0
 400 0052 684B     		ldr	r3, .L28+12
 401 0054 7A68     		ldr	r2, [r7, #4]
 402 0056 5200     		lsl	r2, r2, #1
 403 0058 391C     		mov	r1, r7
 404 005a 0E31     		add	r1, r1, #14
 405 005c 0988     		ldrh	r1, [r1]
 406 005e D152     		strh	r1, [r2, r3]
 427:.\Generated_Source\PSoC4/CapSense_1_CSHL.c ****             
 428:.\Generated_Source\PSoC4/CapSense_1_CSHL.c ****     #elif (CapSense_1_RAW_FILTER_MASK & CapSense_1_JITTER_FILTER)
 429:.\Generated_Source\PSoC4/CapSense_1_CSHL.c ****         filteredRawData = CapSense_1_JitterFilter(filteredRawData, CapSense_1_rawFilterData1[sensor
 430:.\Generated_Source\PSoC4/CapSense_1_CSHL.c ****         CapSense_1_rawFilterData1[sensor] = filteredRawData;
 431:.\Generated_Source\PSoC4/CapSense_1_CSHL.c ****         
 432:.\Generated_Source\PSoC4/CapSense_1_CSHL.c ****     #elif (CapSense_1_RAW_FILTER_MASK & CapSense_1_IIR8_FILTER)
 433:.\Generated_Source\PSoC4/CapSense_1_CSHL.c ****         filteredRawData = CapSense_1_IIR8Filter(filteredRawData, CapSense_1_rawFilterData1[sensor])
 434:.\Generated_Source\PSoC4/CapSense_1_CSHL.c ****         CapSense_1_rawFilterData1[sensor] = filteredRawData;
 435:.\Generated_Source\PSoC4/CapSense_1_CSHL.c ****         
 436:.\Generated_Source\PSoC4/CapSense_1_CSHL.c ****     #elif (CapSense_1_RAW_FILTER_MASK & CapSense_1_IIR16_FILTER)
 437:.\Generated_Source\PSoC4/CapSense_1_CSHL.c ****         filteredRawData = CapSense_1_IIR16Filter(filteredRawData, CapSense_1_rawFilterData1[sensor]
 438:.\Generated_Source\PSoC4/CapSense_1_CSHL.c ****         CapSense_1_rawFilterData1[sensor] = filteredRawData;
 439:.\Generated_Source\PSoC4/CapSense_1_CSHL.c ****         
 440:.\Generated_Source\PSoC4/CapSense_1_CSHL.c ****     #else
 441:.\Generated_Source\PSoC4/CapSense_1_CSHL.c ****         /* No Raw filters */
 442:.\Generated_Source\PSoC4/CapSense_1_CSHL.c ****     #endif  /* (CapSense_1_RAW_FILTER_MASK & CapSense_1_MEDIAN_FILTER) */
 443:.\Generated_Source\PSoC4/CapSense_1_CSHL.c **** 
 444:.\Generated_Source\PSoC4/CapSense_1_CSHL.c **** 	#if (CapSense_1_TUNING_METHOD == CapSense_1__TUNING_AUTO)
 445:.\Generated_Source\PSoC4/CapSense_1_CSHL.c **** 	    MeasureNoiseEnvelope_P4_v2_0(&CapSense_1_config, (uint8)sensor, CapSense_1_sensorRaw);
ARM GAS  C:\Users\Jakob\AppData\Local\Temp\cc5GwTcI.s 			page 16


 407              		.loc 1 445 0
 408 0060 7B68     		ldr	r3, [r7, #4]
 409 0062 DAB2     		uxtb	r2, r3
 410 0064 6449     		ldr	r1, .L28+16
 411 0066 624B     		ldr	r3, .L28+8
 412 0068 081C     		mov	r0, r1
 413 006a 111C     		mov	r1, r2
 414 006c 1A1C     		mov	r2, r3
 415 006e FFF7FEFF 		bl	MeasureNoiseEnvelope_P4_v2_0
 446:.\Generated_Source\PSoC4/CapSense_1_CSHL.c **** 	#endif /* (CapSense_1_TUNING_METHOD == CapSense_1__TUNING_AUTO) */
 447:.\Generated_Source\PSoC4/CapSense_1_CSHL.c **** 
 448:.\Generated_Source\PSoC4/CapSense_1_CSHL.c ****     /* Baseline calculation */
 449:.\Generated_Source\PSoC4/CapSense_1_CSHL.c ****     /* Calculate difference RawData[cur] - Baseline[prev] */
 450:.\Generated_Source\PSoC4/CapSense_1_CSHL.c ****     if(filteredRawData >= CapSense_1_sensorBaseline[sensor])
 416              		.loc 1 450 0
 417 0072 624B     		ldr	r3, .L28+20
 418 0074 7A68     		ldr	r2, [r7, #4]
 419 0076 5200     		lsl	r2, r2, #1
 420 0078 D35A     		ldrh	r3, [r2, r3]
 421 007a 3A1C     		mov	r2, r7
 422 007c 0E32     		add	r2, r2, #14
 423 007e 1288     		ldrh	r2, [r2]
 424 0080 9A42     		cmp	r2, r3
 425 0082 12D3     		bcc	.L17
 451:.\Generated_Source\PSoC4/CapSense_1_CSHL.c ****     {
 452:.\Generated_Source\PSoC4/CapSense_1_CSHL.c **** 		CapSense_1_lowBaselineResetCnt[sensor] = 0u;	
 426              		.loc 1 452 0
 427 0084 5E4A     		ldr	r2, .L28+24
 428 0086 7B68     		ldr	r3, [r7, #4]
 429 0088 D318     		add	r3, r2, r3
 430 008a 0022     		mov	r2, #0
 431 008c 1A70     		strb	r2, [r3]
 453:.\Generated_Source\PSoC4/CapSense_1_CSHL.c ****         tempRaw = filteredRawData - CapSense_1_sensorBaseline[sensor];
 432              		.loc 1 453 0
 433 008e 5B4B     		ldr	r3, .L28+20
 434 0090 7A68     		ldr	r2, [r7, #4]
 435 0092 5200     		lsl	r2, r2, #1
 436 0094 D25A     		ldrh	r2, [r2, r3]
 437 0096 3B1C     		mov	r3, r7
 438 0098 1233     		add	r3, r3, #18
 439 009a 391C     		mov	r1, r7
 440 009c 0E31     		add	r1, r1, #14
 441 009e 0988     		ldrh	r1, [r1]
 442 00a0 8A1A     		sub	r2, r1, r2
 443 00a2 1A80     		strh	r2, [r3]
 454:.\Generated_Source\PSoC4/CapSense_1_CSHL.c ****         sign = 1u;    /* Positive difference - Calculate the Signal */
 444              		.loc 1 454 0
 445 00a4 0123     		mov	r3, #1
 446 00a6 7B61     		str	r3, [r7, #20]
 447 00a8 0CE0     		b	.L18
 448              	.L17:
 455:.\Generated_Source\PSoC4/CapSense_1_CSHL.c ****     }
 456:.\Generated_Source\PSoC4/CapSense_1_CSHL.c ****     else
 457:.\Generated_Source\PSoC4/CapSense_1_CSHL.c ****     {
 458:.\Generated_Source\PSoC4/CapSense_1_CSHL.c ****         tempRaw = CapSense_1_sensorBaseline[sensor] - filteredRawData;
 449              		.loc 1 458 0
 450 00aa 544B     		ldr	r3, .L28+20
ARM GAS  C:\Users\Jakob\AppData\Local\Temp\cc5GwTcI.s 			page 17


 451 00ac 7A68     		ldr	r2, [r7, #4]
 452 00ae 5200     		lsl	r2, r2, #1
 453 00b0 D15A     		ldrh	r1, [r2, r3]
 454 00b2 3B1C     		mov	r3, r7
 455 00b4 1233     		add	r3, r3, #18
 456 00b6 3A1C     		mov	r2, r7
 457 00b8 0E32     		add	r2, r2, #14
 458 00ba 1288     		ldrh	r2, [r2]
 459 00bc 8A1A     		sub	r2, r1, r2
 460 00be 1A80     		strh	r2, [r3]
 459:.\Generated_Source\PSoC4/CapSense_1_CSHL.c ****         sign = 0u;    /* Negative difference - Do NOT calculate the Signal */
 461              		.loc 1 459 0
 462 00c0 0023     		mov	r3, #0
 463 00c2 7B61     		str	r3, [r7, #20]
 464              	.L18:
 460:.\Generated_Source\PSoC4/CapSense_1_CSHL.c ****     }
 461:.\Generated_Source\PSoC4/CapSense_1_CSHL.c **** 
 462:.\Generated_Source\PSoC4/CapSense_1_CSHL.c **** 	#if (CapSense_1_TUNING_METHOD != CapSense_1__TUNING_NONE)
 463:.\Generated_Source\PSoC4/CapSense_1_CSHL.c **** 	if((sign == 0u) && (tempRaw > (uint16) CapSense_1_negativeNoiseThreshold[widget]))
 465              		.loc 1 463 0
 466 00c4 7B69     		ldr	r3, [r7, #20]
 467 00c6 002B     		cmp	r3, #0
 468 00c8 24D1     		bne	.L19
 469              		.loc 1 463 0 is_stmt 0 discriminator 1
 470 00ca 3B1C     		mov	r3, r7
 471 00cc 1133     		add	r3, r3, #17
 472 00ce 1B78     		ldrb	r3, [r3]
 473 00d0 4C4A     		ldr	r2, .L28+28
 474 00d2 D35C     		ldrb	r3, [r2, r3]
 475 00d4 3A1C     		mov	r2, r7
 476 00d6 1232     		add	r2, r2, #18
 477 00d8 1288     		ldrh	r2, [r2]
 478 00da 9A42     		cmp	r2, r3
 479 00dc 1AD9     		bls	.L19
 464:.\Generated_Source\PSoC4/CapSense_1_CSHL.c **** 	#else
 465:.\Generated_Source\PSoC4/CapSense_1_CSHL.c **** 	if((sign == 0u) && (tempRaw > (uint16) CapSense_1_NEGATIVE_NOISE_THRESHOLD))
 466:.\Generated_Source\PSoC4/CapSense_1_CSHL.c **** 	#endif /* (CapSense_1_TUNING_METHOD != CapSense_1__TUNING_NONE) */ 
 467:.\Generated_Source\PSoC4/CapSense_1_CSHL.c ****     {
 468:.\Generated_Source\PSoC4/CapSense_1_CSHL.c ****         if(CapSense_1_lowBaselineResetCnt[sensor] >= CapSense_1_LOW_BASELINE_RESET)
 480              		.loc 1 468 0 is_stmt 1
 481 00de 484A     		ldr	r2, .L28+24
 482 00e0 7B68     		ldr	r3, [r7, #4]
 483 00e2 D318     		add	r3, r2, r3
 484 00e4 1B78     		ldrb	r3, [r3]
 485 00e6 042B     		cmp	r3, #4
 486 00e8 09D9     		bls	.L20
 469:.\Generated_Source\PSoC4/CapSense_1_CSHL.c ****         {
 470:.\Generated_Source\PSoC4/CapSense_1_CSHL.c ****             CapSense_1_BaseInit(sensor);
 487              		.loc 1 470 0
 488 00ea 7B68     		ldr	r3, [r7, #4]
 489 00ec 181C     		mov	r0, r3
 490 00ee FFF7FEFF 		bl	CapSense_1_BaseInit
 471:.\Generated_Source\PSoC4/CapSense_1_CSHL.c ****             CapSense_1_lowBaselineResetCnt[sensor] = 0u;
 491              		.loc 1 471 0
 492 00f2 434A     		ldr	r2, .L28+24
 493 00f4 7B68     		ldr	r3, [r7, #4]
 494 00f6 D318     		add	r3, r2, r3
ARM GAS  C:\Users\Jakob\AppData\Local\Temp\cc5GwTcI.s 			page 18


 495 00f8 0022     		mov	r2, #0
 496 00fa 1A70     		strb	r2, [r3]
 468:.\Generated_Source\PSoC4/CapSense_1_CSHL.c ****         if(CapSense_1_lowBaselineResetCnt[sensor] >= CapSense_1_LOW_BASELINE_RESET)
 497              		.loc 1 468 0
 498 00fc 4CE0     		b	.L22
 499              	.L20:
 472:.\Generated_Source\PSoC4/CapSense_1_CSHL.c ****         }
 473:.\Generated_Source\PSoC4/CapSense_1_CSHL.c ****         else
 474:.\Generated_Source\PSoC4/CapSense_1_CSHL.c ****         {
 475:.\Generated_Source\PSoC4/CapSense_1_CSHL.c ****             CapSense_1_lowBaselineResetCnt[sensor]++;
 500              		.loc 1 475 0
 501 00fe 404A     		ldr	r2, .L28+24
 502 0100 7B68     		ldr	r3, [r7, #4]
 503 0102 D318     		add	r3, r2, r3
 504 0104 1B78     		ldrb	r3, [r3]
 505 0106 0133     		add	r3, r3, #1
 506 0108 DAB2     		uxtb	r2, r3
 507 010a 3D49     		ldr	r1, .L28+24
 508 010c 7B68     		ldr	r3, [r7, #4]
 509 010e CB18     		add	r3, r1, r3
 510 0110 1A70     		strb	r2, [r3]
 468:.\Generated_Source\PSoC4/CapSense_1_CSHL.c ****         if(CapSense_1_lowBaselineResetCnt[sensor] >= CapSense_1_LOW_BASELINE_RESET)
 511              		.loc 1 468 0
 512 0112 41E0     		b	.L22
 513              	.L19:
 476:.\Generated_Source\PSoC4/CapSense_1_CSHL.c ****         }
 477:.\Generated_Source\PSoC4/CapSense_1_CSHL.c ****     }
 478:.\Generated_Source\PSoC4/CapSense_1_CSHL.c ****     else
 479:.\Generated_Source\PSoC4/CapSense_1_CSHL.c ****     {
 480:.\Generated_Source\PSoC4/CapSense_1_CSHL.c ****         #if (CapSense_1_AUTO_RESET == CapSense_1_AUTO_RESET_DISABLE)
 481:.\Generated_Source\PSoC4/CapSense_1_CSHL.c **** 		#if (CapSense_1_TUNING_METHOD != CapSense_1__TUNING_NONE)			
 482:.\Generated_Source\PSoC4/CapSense_1_CSHL.c **** 			/* Update Baseline if lower than noiseThreshold */
 483:.\Generated_Source\PSoC4/CapSense_1_CSHL.c **** 			if ( (tempRaw <= noiseThreshold) || 
 514              		.loc 1 483 0
 515 0114 3B1C     		mov	r3, r7
 516 0116 1033     		add	r3, r3, #16
 517 0118 1B78     		ldrb	r3, [r3]
 518 011a 9BB2     		uxth	r3, r3
 519 011c 3A1C     		mov	r2, r7
 520 011e 1232     		add	r2, r2, #18
 521 0120 1288     		ldrh	r2, [r2]
 522 0122 9A42     		cmp	r2, r3
 523 0124 0CD9     		bls	.L23
 484:.\Generated_Source\PSoC4/CapSense_1_CSHL.c **** 			 ((tempRaw < (uint16) CapSense_1_negativeNoiseThreshold[widget])
 524              		.loc 1 484 0 discriminator 1
 525 0126 3B1C     		mov	r3, r7
 526 0128 1133     		add	r3, r3, #17
 527 012a 1B78     		ldrb	r3, [r3]
 528 012c 354A     		ldr	r2, .L28+28
 529 012e D35C     		ldrb	r3, [r2, r3]
 483:.\Generated_Source\PSoC4/CapSense_1_CSHL.c **** 			if ( (tempRaw <= noiseThreshold) || 
 530              		.loc 1 483 0 discriminator 1
 531 0130 3A1C     		mov	r2, r7
 532 0132 1232     		add	r2, r2, #18
 533 0134 1288     		ldrh	r2, [r2]
 534 0136 9A42     		cmp	r2, r3
 535 0138 2ED2     		bcs	.L22
ARM GAS  C:\Users\Jakob\AppData\Local\Temp\cc5GwTcI.s 			page 19


 485:.\Generated_Source\PSoC4/CapSense_1_CSHL.c **** 			   && (sign == 0u)))
 536              		.loc 1 485 0
 537 013a 7B69     		ldr	r3, [r7, #20]
 538 013c 002B     		cmp	r3, #0
 539 013e 2BD1     		bne	.L22
 540              	.L23:
 486:.\Generated_Source\PSoC4/CapSense_1_CSHL.c **** 			{
 487:.\Generated_Source\PSoC4/CapSense_1_CSHL.c **** 		#else
 488:.\Generated_Source\PSoC4/CapSense_1_CSHL.c **** 			/* Update Baseline if lower than noiseThreshold */
 489:.\Generated_Source\PSoC4/CapSense_1_CSHL.c **** 			if ( (tempRaw <= noiseThreshold) || 
 490:.\Generated_Source\PSoC4/CapSense_1_CSHL.c **** 				 ((tempRaw < (uint16) CapSense_1_NEGATIVE_NOISE_THRESHOLD)
 491:.\Generated_Source\PSoC4/CapSense_1_CSHL.c **** 				   && (sign == 0u)))
 492:.\Generated_Source\PSoC4/CapSense_1_CSHL.c **** 			{
 493:.\Generated_Source\PSoC4/CapSense_1_CSHL.c **** 		#endif /* (CapSense_1_TUNING_METHOD != CapSense_1__TUNING_NONE) */ 
 494:.\Generated_Source\PSoC4/CapSense_1_CSHL.c ****         #endif /* (CapSense_1_AUTO_RESET == CapSense_1_AUTO_RESET_DISABLE) */
 495:.\Generated_Source\PSoC4/CapSense_1_CSHL.c ****                 /* Make full Baseline 23 bits */
 496:.\Generated_Source\PSoC4/CapSense_1_CSHL.c ****                 calc = (uint32) CapSense_1_sensorBaseline[sensor] << 8u;
 541              		.loc 1 496 0
 542 0140 2E4B     		ldr	r3, .L28+20
 543 0142 7A68     		ldr	r2, [r7, #4]
 544 0144 5200     		lsl	r2, r2, #1
 545 0146 D35A     		ldrh	r3, [r2, r3]
 546 0148 1B02     		lsl	r3, r3, #8
 547 014a BB60     		str	r3, [r7, #8]
 497:.\Generated_Source\PSoC4/CapSense_1_CSHL.c ****                 calc |= (uint32) CapSense_1_sensorBaselineLow[sensor];
 548              		.loc 1 497 0
 549 014c 2E4A     		ldr	r2, .L28+32
 550 014e 7B68     		ldr	r3, [r7, #4]
 551 0150 D318     		add	r3, r2, r3
 552 0152 1B78     		ldrb	r3, [r3]
 553 0154 BA68     		ldr	r2, [r7, #8]
 554 0156 1343     		orr	r3, r2
 555 0158 BB60     		str	r3, [r7, #8]
 498:.\Generated_Source\PSoC4/CapSense_1_CSHL.c **** 
 499:.\Generated_Source\PSoC4/CapSense_1_CSHL.c ****                 /* Add Raw Data to Baseline */
 500:.\Generated_Source\PSoC4/CapSense_1_CSHL.c ****                 calc += filteredRawData;
 556              		.loc 1 500 0
 557 015a 3B1C     		mov	r3, r7
 558 015c 0E33     		add	r3, r3, #14
 559 015e 1B88     		ldrh	r3, [r3]
 560 0160 BA68     		ldr	r2, [r7, #8]
 561 0162 D318     		add	r3, r2, r3
 562 0164 BB60     		str	r3, [r7, #8]
 501:.\Generated_Source\PSoC4/CapSense_1_CSHL.c **** 
 502:.\Generated_Source\PSoC4/CapSense_1_CSHL.c ****                 /* Sub the high Baseline */
 503:.\Generated_Source\PSoC4/CapSense_1_CSHL.c ****                 calc -= CapSense_1_sensorBaseline[sensor];
 563              		.loc 1 503 0
 564 0166 254B     		ldr	r3, .L28+20
 565 0168 7A68     		ldr	r2, [r7, #4]
 566 016a 5200     		lsl	r2, r2, #1
 567 016c D35A     		ldrh	r3, [r2, r3]
 568 016e BA68     		ldr	r2, [r7, #8]
 569 0170 D31A     		sub	r3, r2, r3
 570 0172 BB60     		str	r3, [r7, #8]
 504:.\Generated_Source\PSoC4/CapSense_1_CSHL.c **** 
 505:.\Generated_Source\PSoC4/CapSense_1_CSHL.c ****                 /* Put Baseline and BaselineLow */
 506:.\Generated_Source\PSoC4/CapSense_1_CSHL.c ****                 CapSense_1_sensorBaseline[sensor] = ((uint16) (calc >> 8u));
ARM GAS  C:\Users\Jakob\AppData\Local\Temp\cc5GwTcI.s 			page 20


 571              		.loc 1 506 0
 572 0174 BB68     		ldr	r3, [r7, #8]
 573 0176 1B0A     		lsr	r3, r3, #8
 574 0178 99B2     		uxth	r1, r3
 575 017a 204B     		ldr	r3, .L28+20
 576 017c 7A68     		ldr	r2, [r7, #4]
 577 017e 5200     		lsl	r2, r2, #1
 578 0180 D152     		strh	r1, [r2, r3]
 507:.\Generated_Source\PSoC4/CapSense_1_CSHL.c ****                 CapSense_1_sensorBaselineLow[sensor] = ((uint8) calc);
 579              		.loc 1 507 0
 580 0182 BB68     		ldr	r3, [r7, #8]
 581 0184 DAB2     		uxtb	r2, r3
 582 0186 2049     		ldr	r1, .L28+32
 583 0188 7B68     		ldr	r3, [r7, #4]
 584 018a CB18     		add	r3, r1, r3
 585 018c 1A70     		strb	r2, [r3]
 508:.\Generated_Source\PSoC4/CapSense_1_CSHL.c **** 
 509:.\Generated_Source\PSoC4/CapSense_1_CSHL.c ****                 CapSense_1_lowBaselineResetCnt[sensor] = 0u;
 586              		.loc 1 509 0
 587 018e 1C4A     		ldr	r2, .L28+24
 588 0190 7B68     		ldr	r3, [r7, #4]
 589 0192 D318     		add	r3, r2, r3
 590 0194 0022     		mov	r2, #0
 591 0196 1A70     		strb	r2, [r3]
 592              	.L22:
 510:.\Generated_Source\PSoC4/CapSense_1_CSHL.c ****         #if (CapSense_1_AUTO_RESET == CapSense_1_AUTO_RESET_DISABLE)
 511:.\Generated_Source\PSoC4/CapSense_1_CSHL.c ****             }
 512:.\Generated_Source\PSoC4/CapSense_1_CSHL.c ****         #endif /* (CapSense_1_AUTO_RESET == CapSense_1_AUTO_RESET_DISABLE) */
 513:.\Generated_Source\PSoC4/CapSense_1_CSHL.c ****     }
 514:.\Generated_Source\PSoC4/CapSense_1_CSHL.c **** 
 515:.\Generated_Source\PSoC4/CapSense_1_CSHL.c ****     /* Calculate Signal if positive difference > noiseThreshold */
 516:.\Generated_Source\PSoC4/CapSense_1_CSHL.c ****     if((tempRaw > (uint16) noiseThreshold) && (sign != 0u))
 593              		.loc 1 516 0
 594 0198 3B1C     		mov	r3, r7
 595 019a 1033     		add	r3, r3, #16
 596 019c 1B78     		ldrb	r3, [r3]
 597 019e 9BB2     		uxth	r3, r3
 598 01a0 3A1C     		mov	r2, r7
 599 01a2 1232     		add	r2, r2, #18
 600 01a4 1288     		ldrh	r2, [r2]
 601 01a6 9A42     		cmp	r2, r3
 602 01a8 16D9     		bls	.L24
 603              		.loc 1 516 0 is_stmt 0 discriminator 1
 604 01aa 7B69     		ldr	r3, [r7, #20]
 605 01ac 002B     		cmp	r3, #0
 606 01ae 13D0     		beq	.L24
 517:.\Generated_Source\PSoC4/CapSense_1_CSHL.c ****     {
 518:.\Generated_Source\PSoC4/CapSense_1_CSHL.c ****         #if (CapSense_1_SIGNAL_SIZE == CapSense_1_SIGNAL_SIZE_UINT8)
 519:.\Generated_Source\PSoC4/CapSense_1_CSHL.c ****             /* Over flow defence for uint8 */
 520:.\Generated_Source\PSoC4/CapSense_1_CSHL.c ****             if (tempRaw > 0xFFu)
 607              		.loc 1 520 0 is_stmt 1
 608 01b0 3B1C     		mov	r3, r7
 609 01b2 1233     		add	r3, r3, #18
 610 01b4 1B88     		ldrh	r3, [r3]
 611 01b6 FF2B     		cmp	r3, #255
 612 01b8 05D9     		bls	.L25
 521:.\Generated_Source\PSoC4/CapSense_1_CSHL.c ****             {
ARM GAS  C:\Users\Jakob\AppData\Local\Temp\cc5GwTcI.s 			page 21


 522:.\Generated_Source\PSoC4/CapSense_1_CSHL.c ****                 CapSense_1_sensorSignal[sensor] = 0xFFu;
 613              		.loc 1 522 0
 614 01ba 144A     		ldr	r2, .L28+36
 615 01bc 7B68     		ldr	r3, [r7, #4]
 616 01be D318     		add	r3, r2, r3
 617 01c0 FF22     		mov	r2, #255
 618 01c2 1A70     		strb	r2, [r3]
 520:.\Generated_Source\PSoC4/CapSense_1_CSHL.c ****             if (tempRaw > 0xFFu)
 619              		.loc 1 520 0
 620 01c4 0DE0     		b	.L16
 621              	.L25:
 523:.\Generated_Source\PSoC4/CapSense_1_CSHL.c ****             }    
 524:.\Generated_Source\PSoC4/CapSense_1_CSHL.c ****             else 
 525:.\Generated_Source\PSoC4/CapSense_1_CSHL.c ****             {
 526:.\Generated_Source\PSoC4/CapSense_1_CSHL.c ****                 CapSense_1_sensorSignal[sensor] = ((uint8) tempRaw);
 622              		.loc 1 526 0
 623 01c6 3B1C     		mov	r3, r7
 624 01c8 1233     		add	r3, r3, #18
 625 01ca 1B88     		ldrh	r3, [r3]
 626 01cc DAB2     		uxtb	r2, r3
 627 01ce 0F49     		ldr	r1, .L28+36
 628 01d0 7B68     		ldr	r3, [r7, #4]
 629 01d2 CB18     		add	r3, r1, r3
 630 01d4 1A70     		strb	r2, [r3]
 520:.\Generated_Source\PSoC4/CapSense_1_CSHL.c ****             if (tempRaw > 0xFFu)
 631              		.loc 1 520 0
 632 01d6 04E0     		b	.L16
 633              	.L24:
 527:.\Generated_Source\PSoC4/CapSense_1_CSHL.c ****             }
 528:.\Generated_Source\PSoC4/CapSense_1_CSHL.c ****         #else
 529:.\Generated_Source\PSoC4/CapSense_1_CSHL.c ****             CapSense_1_sensorSignal[sensor] = ((uint16) tempRaw);
 530:.\Generated_Source\PSoC4/CapSense_1_CSHL.c ****         #endif  /* (CapSense_1_SIGNAL_SIZE == CapSense_1_SIGNAL_SIZE_UINT8) */
 531:.\Generated_Source\PSoC4/CapSense_1_CSHL.c ****     }
 532:.\Generated_Source\PSoC4/CapSense_1_CSHL.c ****     else
 533:.\Generated_Source\PSoC4/CapSense_1_CSHL.c ****     {
 534:.\Generated_Source\PSoC4/CapSense_1_CSHL.c ****         /* Signal is zero */
 535:.\Generated_Source\PSoC4/CapSense_1_CSHL.c ****         CapSense_1_sensorSignal[sensor] = 0u;
 634              		.loc 1 535 0
 635 01d8 0C4A     		ldr	r2, .L28+36
 636 01da 7B68     		ldr	r3, [r7, #4]
 637 01dc D318     		add	r3, r2, r3
 638 01de 0022     		mov	r2, #0
 639 01e0 1A70     		strb	r2, [r3]
 640              	.L16:
 536:.\Generated_Source\PSoC4/CapSense_1_CSHL.c ****     }
 537:.\Generated_Source\PSoC4/CapSense_1_CSHL.c **** 
 538:.\Generated_Source\PSoC4/CapSense_1_CSHL.c ****     #if (CapSense_1_TOTAL_GENERICS_COUNT)
 539:.\Generated_Source\PSoC4/CapSense_1_CSHL.c ****         /* Exclude generic widget */
 540:.\Generated_Source\PSoC4/CapSense_1_CSHL.c ****         }
 541:.\Generated_Source\PSoC4/CapSense_1_CSHL.c ****     #endif  /* CapSense_1_TOTAL_GENERICS_COUNT */
 542:.\Generated_Source\PSoC4/CapSense_1_CSHL.c **** }
 641              		.loc 1 542 0
 642 01e2 BD46     		mov	sp, r7
 643 01e4 07B0     		add	sp, sp, #28
 644              		@ sp needed for prologue
 645 01e6 90BD     		pop	{r4, r7, pc}
 646              	.L29:
ARM GAS  C:\Users\Jakob\AppData\Local\Temp\cc5GwTcI.s 			page 22


 647              		.align	2
 648              	.L28:
 649 01e8 00000000 		.word	CapSense_1_widgetNumber
 650 01ec 00000000 		.word	CapSense_1_noiseThreshold
 651 01f0 00000000 		.word	CapSense_1_sensorRaw
 652 01f4 00000000 		.word	CapSense_1_rawFilterData1
 653 01f8 00000000 		.word	CapSense_1_config
 654 01fc 00000000 		.word	CapSense_1_sensorBaseline
 655 0200 00000000 		.word	CapSense_1_lowBaselineResetCnt
 656 0204 00000000 		.word	CapSense_1_negativeNoiseThreshold
 657 0208 00000000 		.word	CapSense_1_sensorBaselineLow
 658 020c 00000000 		.word	CapSense_1_sensorSignal
 659              		.cfi_endproc
 660              	.LFE37:
 661              		.size	CapSense_1_UpdateBaselineNoThreshold, .-CapSense_1_UpdateBaselineNoThreshold
 662              		.section	.text.CapSense_1_UpdateSensorBaseline,"ax",%progbits
 663              		.align	2
 664              		.global	CapSense_1_UpdateSensorBaseline
 665              		.code	16
 666              		.thumb_func
 667              		.type	CapSense_1_UpdateSensorBaseline, %function
 668              	CapSense_1_UpdateSensorBaseline:
 669              	.LFB38:
 543:.\Generated_Source\PSoC4/CapSense_1_CSHL.c **** 
 544:.\Generated_Source\PSoC4/CapSense_1_CSHL.c **** 
 545:.\Generated_Source\PSoC4/CapSense_1_CSHL.c **** /*******************************************************************************
 546:.\Generated_Source\PSoC4/CapSense_1_CSHL.c **** * Function Name: CapSense_1_UpdateSensorBaseline
 547:.\Generated_Source\PSoC4/CapSense_1_CSHL.c **** ********************************************************************************
 548:.\Generated_Source\PSoC4/CapSense_1_CSHL.c **** *
 549:.\Generated_Source\PSoC4/CapSense_1_CSHL.c **** * Summary:
 550:.\Generated_Source\PSoC4/CapSense_1_CSHL.c **** *  Updates the CapSense_1_sensorBaseline[sensor] array element using the 
 551:.\Generated_Source\PSoC4/CapSense_1_CSHL.c **** *  LP filter with k = 256. The signal calculates the difference of count by 
 552:.\Generated_Source\PSoC4/CapSense_1_CSHL.c **** *  subtracting the previous baseline from the current raw count value and stores
 553:.\Generated_Source\PSoC4/CapSense_1_CSHL.c **** *  it in CapSense_1_sensorSignal[sensor]. 
 554:.\Generated_Source\PSoC4/CapSense_1_CSHL.c **** *  If the auto reset option is enabled, the baseline updated regards the noise threshold. 
 555:.\Generated_Source\PSoC4/CapSense_1_CSHL.c **** *  If the auto reset option is disabled, the baseline stops updating. 
 556:.\Generated_Source\PSoC4/CapSense_1_CSHL.c **** *  Baseline is loaded with raw count value if a signal is greater than zero and  
 557:.\Generated_Source\PSoC4/CapSense_1_CSHL.c **** *  if signal is less than noise threshold.
 558:.\Generated_Source\PSoC4/CapSense_1_CSHL.c **** *  Raw data filters are applied to the values if enabled before baseline 
 559:.\Generated_Source\PSoC4/CapSense_1_CSHL.c **** *  calculation.
 560:.\Generated_Source\PSoC4/CapSense_1_CSHL.c **** *  This API updates the thresholds in the Smartsense Mode.
 561:.\Generated_Source\PSoC4/CapSense_1_CSHL.c **** *
 562:.\Generated_Source\PSoC4/CapSense_1_CSHL.c **** * Parameters:
 563:.\Generated_Source\PSoC4/CapSense_1_CSHL.c **** *  sensor:  Sensor number.
 564:.\Generated_Source\PSoC4/CapSense_1_CSHL.c **** *
 565:.\Generated_Source\PSoC4/CapSense_1_CSHL.c **** * Return:
 566:.\Generated_Source\PSoC4/CapSense_1_CSHL.c **** *  None
 567:.\Generated_Source\PSoC4/CapSense_1_CSHL.c **** *
 568:.\Generated_Source\PSoC4/CapSense_1_CSHL.c **** * Global Variables:
 569:.\Generated_Source\PSoC4/CapSense_1_CSHL.c **** *  CapSense_1_widgetNumber[]  - stores widget numbers.
 570:.\Generated_Source\PSoC4/CapSense_1_CSHL.c **** * 
 571:.\Generated_Source\PSoC4/CapSense_1_CSHL.c **** * Side Effects:
 572:.\Generated_Source\PSoC4/CapSense_1_CSHL.c **** *  None
 573:.\Generated_Source\PSoC4/CapSense_1_CSHL.c **** * 
 574:.\Generated_Source\PSoC4/CapSense_1_CSHL.c **** *******************************************************************************/
 575:.\Generated_Source\PSoC4/CapSense_1_CSHL.c ****  void CapSense_1_UpdateSensorBaseline(uint32 sensor)
 576:.\Generated_Source\PSoC4/CapSense_1_CSHL.c **** {
ARM GAS  C:\Users\Jakob\AppData\Local\Temp\cc5GwTcI.s 			page 23


 670              		.loc 1 576 0
 671              		.cfi_startproc
 672 0000 80B5     		push	{r7, lr}
 673              	.LCFI15:
 674              		.cfi_def_cfa_offset 8
 675              		.cfi_offset 7, -8
 676              		.cfi_offset 14, -4
 677 0002 82B0     		sub	sp, sp, #8
 678              	.LCFI16:
 679              		.cfi_def_cfa_offset 16
 680 0004 00AF     		add	r7, sp, #0
 681              	.LCFI17:
 682              		.cfi_def_cfa_register 7
 683 0006 7860     		str	r0, [r7, #4]
 577:.\Generated_Source\PSoC4/CapSense_1_CSHL.c ****     #if (CapSense_1_TOTAL_GENERICS_COUNT)
 578:.\Generated_Source\PSoC4/CapSense_1_CSHL.c **** 		uint32 widget;
 579:.\Generated_Source\PSoC4/CapSense_1_CSHL.c **** 		
 580:.\Generated_Source\PSoC4/CapSense_1_CSHL.c **** 		widget = CapSense_1_widgetNumber[sensor];
 581:.\Generated_Source\PSoC4/CapSense_1_CSHL.c **** 	
 582:.\Generated_Source\PSoC4/CapSense_1_CSHL.c ****         /* Exclude generic widget */
 583:.\Generated_Source\PSoC4/CapSense_1_CSHL.c ****         if(widget < CapSense_1_END_OF_WIDGETS_INDEX)
 584:.\Generated_Source\PSoC4/CapSense_1_CSHL.c ****         {
 585:.\Generated_Source\PSoC4/CapSense_1_CSHL.c ****     #endif  /* CapSense_1_TOTAL_GENERICS_COUNT */
 586:.\Generated_Source\PSoC4/CapSense_1_CSHL.c **** 
 587:.\Generated_Source\PSoC4/CapSense_1_CSHL.c ****     #if (CapSense_1_TUNING_METHOD == CapSense_1__TUNING_AUTO)
 588:.\Generated_Source\PSoC4/CapSense_1_CSHL.c ****     	CapSense_1_UpdateThresholds(sensor);
 684              		.loc 1 588 0
 685 0008 7B68     		ldr	r3, [r7, #4]
 686 000a 181C     		mov	r0, r3
 687 000c FFF7FEFF 		bl	CapSense_1_UpdateThresholds
 589:.\Generated_Source\PSoC4/CapSense_1_CSHL.c ****     #endif /* (CapSense_1_TUNING_METHOD == CapSense_1__TUNING_AUTO) */
 590:.\Generated_Source\PSoC4/CapSense_1_CSHL.c **** 
 591:.\Generated_Source\PSoC4/CapSense_1_CSHL.c ****     CapSense_1_UpdateBaselineNoThreshold(sensor);
 688              		.loc 1 591 0
 689 0010 7B68     		ldr	r3, [r7, #4]
 690 0012 181C     		mov	r0, r3
 691 0014 FFF7FEFF 		bl	CapSense_1_UpdateBaselineNoThreshold
 592:.\Generated_Source\PSoC4/CapSense_1_CSHL.c ****     
 593:.\Generated_Source\PSoC4/CapSense_1_CSHL.c ****     #if (CapSense_1_TOTAL_GENERICS_COUNT)
 594:.\Generated_Source\PSoC4/CapSense_1_CSHL.c ****         /* Exclude generic widget */
 595:.\Generated_Source\PSoC4/CapSense_1_CSHL.c ****         }
 596:.\Generated_Source\PSoC4/CapSense_1_CSHL.c ****     #endif  /* CapSense_1_TOTAL_GENERICS_COUNT */
 597:.\Generated_Source\PSoC4/CapSense_1_CSHL.c **** }
 692              		.loc 1 597 0
 693 0018 BD46     		mov	sp, r7
 694 001a 02B0     		add	sp, sp, #8
 695              		@ sp needed for prologue
 696 001c 80BD     		pop	{r7, pc}
 697              		.cfi_endproc
 698              	.LFE38:
 699              		.size	CapSense_1_UpdateSensorBaseline, .-CapSense_1_UpdateSensorBaseline
 700 001e C046     		.section	.text.CapSense_1_UpdateEnabledBaselines,"ax",%progbits
 701              		.align	2
 702              		.global	CapSense_1_UpdateEnabledBaselines
 703              		.code	16
 704              		.thumb_func
 705              		.type	CapSense_1_UpdateEnabledBaselines, %function
ARM GAS  C:\Users\Jakob\AppData\Local\Temp\cc5GwTcI.s 			page 24


 706              	CapSense_1_UpdateEnabledBaselines:
 707              	.LFB39:
 598:.\Generated_Source\PSoC4/CapSense_1_CSHL.c **** 
 599:.\Generated_Source\PSoC4/CapSense_1_CSHL.c **** 
 600:.\Generated_Source\PSoC4/CapSense_1_CSHL.c **** /*******************************************************************************
 601:.\Generated_Source\PSoC4/CapSense_1_CSHL.c **** * Function Name: CapSense_1_UpdateEnabledBaselines
 602:.\Generated_Source\PSoC4/CapSense_1_CSHL.c **** ********************************************************************************
 603:.\Generated_Source\PSoC4/CapSense_1_CSHL.c **** *
 604:.\Generated_Source\PSoC4/CapSense_1_CSHL.c **** * Summary:
 605:.\Generated_Source\PSoC4/CapSense_1_CSHL.c **** *  Checks CapSense_1_sensorEnableMask[] array and calls the 
 606:.\Generated_Source\PSoC4/CapSense_1_CSHL.c **** *  CapSense_1_UpdateSensorBaseline function to update the baselines 
 607:.\Generated_Source\PSoC4/CapSense_1_CSHL.c **** *  for the enabled sensors.
 608:.\Generated_Source\PSoC4/CapSense_1_CSHL.c **** *
 609:.\Generated_Source\PSoC4/CapSense_1_CSHL.c **** * Parameters:
 610:.\Generated_Source\PSoC4/CapSense_1_CSHL.c **** *  None
 611:.\Generated_Source\PSoC4/CapSense_1_CSHL.c **** *
 612:.\Generated_Source\PSoC4/CapSense_1_CSHL.c **** * Return:
 613:.\Generated_Source\PSoC4/CapSense_1_CSHL.c **** *  None
 614:.\Generated_Source\PSoC4/CapSense_1_CSHL.c **** *
 615:.\Generated_Source\PSoC4/CapSense_1_CSHL.c **** * Global Variables:
 616:.\Generated_Source\PSoC4/CapSense_1_CSHL.c **** *  CapSense_1_sensorEnableMask[] - used to store the sensor scanning 
 617:.\Generated_Source\PSoC4/CapSense_1_CSHL.c **** *  state.
 618:.\Generated_Source\PSoC4/CapSense_1_CSHL.c **** *  CapSense_1_sensorEnableMask[0] contains the masked bits for sensors 
 619:.\Generated_Source\PSoC4/CapSense_1_CSHL.c **** *   0 through 7 (sensor 0 is bit 0, sensor 1 is bit 1).
 620:.\Generated_Source\PSoC4/CapSense_1_CSHL.c **** *  CapSense_1_sensorEnableMask[1] contains the masked bits for 
 621:.\Generated_Source\PSoC4/CapSense_1_CSHL.c **** *  sensors 8 through 15 (if needed), and so on.
 622:.\Generated_Source\PSoC4/CapSense_1_CSHL.c **** *  0 - sensor doesn't scan by CapSense_1_ScanEnabledWidgets().
 623:.\Generated_Source\PSoC4/CapSense_1_CSHL.c **** *  1 - sensor scans by CapSense_1_ScanEnabledWidgets().
 624:.\Generated_Source\PSoC4/CapSense_1_CSHL.c **** * 
 625:.\Generated_Source\PSoC4/CapSense_1_CSHL.c **** * Side Effects:
 626:.\Generated_Source\PSoC4/CapSense_1_CSHL.c **** *  None
 627:.\Generated_Source\PSoC4/CapSense_1_CSHL.c **** * 
 628:.\Generated_Source\PSoC4/CapSense_1_CSHL.c **** *******************************************************************************/
 629:.\Generated_Source\PSoC4/CapSense_1_CSHL.c ****  void CapSense_1_UpdateEnabledBaselines(void)
 630:.\Generated_Source\PSoC4/CapSense_1_CSHL.c **** {
 708              		.loc 1 630 0
 709              		.cfi_startproc
 710 0000 80B5     		push	{r7, lr}
 711              	.LCFI18:
 712              		.cfi_def_cfa_offset 8
 713              		.cfi_offset 7, -8
 714              		.cfi_offset 14, -4
 715 0002 82B0     		sub	sp, sp, #8
 716              	.LCFI19:
 717              		.cfi_def_cfa_offset 16
 718 0004 00AF     		add	r7, sp, #0
 719              	.LCFI20:
 720              		.cfi_def_cfa_register 7
 631:.\Generated_Source\PSoC4/CapSense_1_CSHL.c ****     uint32 i;
 632:.\Generated_Source\PSoC4/CapSense_1_CSHL.c ****     uint32 isSensorEnabled;
 633:.\Generated_Source\PSoC4/CapSense_1_CSHL.c ****     
 634:.\Generated_Source\PSoC4/CapSense_1_CSHL.c ****     for(i = 0u; i < CapSense_1_TOTAL_SENSOR_COUNT; i++)
 721              		.loc 1 634 0
 722 0006 0023     		mov	r3, #0
 723 0008 7B60     		str	r3, [r7, #4]
 724 000a 11E0     		b	.L32
 725              	.L34:
ARM GAS  C:\Users\Jakob\AppData\Local\Temp\cc5GwTcI.s 			page 25


 635:.\Generated_Source\PSoC4/CapSense_1_CSHL.c ****     {
 636:.\Generated_Source\PSoC4/CapSense_1_CSHL.c ****         isSensorEnabled = CapSense_1_GetBitValue(CapSense_1_sensorEnableMask, i);
 726              		.loc 1 636 0
 727 000c 0B4A     		ldr	r2, .L35
 728 000e 7B68     		ldr	r3, [r7, #4]
 729 0010 101C     		mov	r0, r2
 730 0012 191C     		mov	r1, r3
 731 0014 FFF7FEFF 		bl	CapSense_1_GetBitValue
 732 0018 031C     		mov	r3, r0
 733 001a 3B60     		str	r3, [r7]
 637:.\Generated_Source\PSoC4/CapSense_1_CSHL.c ****         
 638:.\Generated_Source\PSoC4/CapSense_1_CSHL.c ****         if(0u != isSensorEnabled)
 734              		.loc 1 638 0
 735 001c 3B68     		ldr	r3, [r7]
 736 001e 002B     		cmp	r3, #0
 737 0020 03D0     		beq	.L33
 639:.\Generated_Source\PSoC4/CapSense_1_CSHL.c ****         {
 640:.\Generated_Source\PSoC4/CapSense_1_CSHL.c ****             CapSense_1_UpdateSensorBaseline(i);
 738              		.loc 1 640 0
 739 0022 7B68     		ldr	r3, [r7, #4]
 740 0024 181C     		mov	r0, r3
 741 0026 FFF7FEFF 		bl	CapSense_1_UpdateSensorBaseline
 742              	.L33:
 634:.\Generated_Source\PSoC4/CapSense_1_CSHL.c ****     for(i = 0u; i < CapSense_1_TOTAL_SENSOR_COUNT; i++)
 743              		.loc 1 634 0
 744 002a 7B68     		ldr	r3, [r7, #4]
 745 002c 0133     		add	r3, r3, #1
 746 002e 7B60     		str	r3, [r7, #4]
 747              	.L32:
 634:.\Generated_Source\PSoC4/CapSense_1_CSHL.c ****     for(i = 0u; i < CapSense_1_TOTAL_SENSOR_COUNT; i++)
 748              		.loc 1 634 0 is_stmt 0 discriminator 1
 749 0030 7B68     		ldr	r3, [r7, #4]
 750 0032 002B     		cmp	r3, #0
 751 0034 EAD0     		beq	.L34
 641:.\Generated_Source\PSoC4/CapSense_1_CSHL.c ****         }
 642:.\Generated_Source\PSoC4/CapSense_1_CSHL.c ****     }
 643:.\Generated_Source\PSoC4/CapSense_1_CSHL.c **** }
 752              		.loc 1 643 0 is_stmt 1
 753 0036 BD46     		mov	sp, r7
 754 0038 02B0     		add	sp, sp, #8
 755              		@ sp needed for prologue
 756 003a 80BD     		pop	{r7, pc}
 757              	.L36:
 758              		.align	2
 759              	.L35:
 760 003c 00000000 		.word	CapSense_1_sensorEnableMask
 761              		.cfi_endproc
 762              	.LFE39:
 763              		.size	CapSense_1_UpdateEnabledBaselines, .-CapSense_1_UpdateEnabledBaselines
 764              		.section	.text.CapSense_1_GetBaselineData,"ax",%progbits
 765              		.align	2
 766              		.global	CapSense_1_GetBaselineData
 767              		.code	16
 768              		.thumb_func
 769              		.type	CapSense_1_GetBaselineData, %function
 770              	CapSense_1_GetBaselineData:
 771              	.LFB40:
ARM GAS  C:\Users\Jakob\AppData\Local\Temp\cc5GwTcI.s 			page 26


 644:.\Generated_Source\PSoC4/CapSense_1_CSHL.c **** 
 645:.\Generated_Source\PSoC4/CapSense_1_CSHL.c **** 
 646:.\Generated_Source\PSoC4/CapSense_1_CSHL.c **** /*******************************************************************************
 647:.\Generated_Source\PSoC4/CapSense_1_CSHL.c **** * Function Name: CapSense_1_GetBaselineData
 648:.\Generated_Source\PSoC4/CapSense_1_CSHL.c **** ********************************************************************************
 649:.\Generated_Source\PSoC4/CapSense_1_CSHL.c **** *
 650:.\Generated_Source\PSoC4/CapSense_1_CSHL.c **** * Summary:
 651:.\Generated_Source\PSoC4/CapSense_1_CSHL.c **** *  This function reads the sensor baseline from the component.
 652:.\Generated_Source\PSoC4/CapSense_1_CSHL.c **** *
 653:.\Generated_Source\PSoC4/CapSense_1_CSHL.c **** * Parameters:
 654:.\Generated_Source\PSoC4/CapSense_1_CSHL.c **** *  sensor:  Sensor number.
 655:.\Generated_Source\PSoC4/CapSense_1_CSHL.c **** *
 656:.\Generated_Source\PSoC4/CapSense_1_CSHL.c **** * Return:
 657:.\Generated_Source\PSoC4/CapSense_1_CSHL.c **** *  This API returns the baseline value of the sensor indicated by an argument.
 658:.\Generated_Source\PSoC4/CapSense_1_CSHL.c **** *
 659:.\Generated_Source\PSoC4/CapSense_1_CSHL.c **** * Global Variables:
 660:.\Generated_Source\PSoC4/CapSense_1_CSHL.c **** *  CapSense_1_sensorBaseline[] - the array with an initial values by scanning
 661:.\Generated_Source\PSoC4/CapSense_1_CSHL.c **** * 
 662:.\Generated_Source\PSoC4/CapSense_1_CSHL.c **** * Side Effects:
 663:.\Generated_Source\PSoC4/CapSense_1_CSHL.c **** *  None
 664:.\Generated_Source\PSoC4/CapSense_1_CSHL.c **** *
 665:.\Generated_Source\PSoC4/CapSense_1_CSHL.c **** *******************************************************************************/
 666:.\Generated_Source\PSoC4/CapSense_1_CSHL.c **** uint16 CapSense_1_GetBaselineData(uint32 sensor)
 667:.\Generated_Source\PSoC4/CapSense_1_CSHL.c **** {
 772              		.loc 1 667 0
 773              		.cfi_startproc
 774 0000 80B5     		push	{r7, lr}
 775              	.LCFI21:
 776              		.cfi_def_cfa_offset 8
 777              		.cfi_offset 7, -8
 778              		.cfi_offset 14, -4
 779 0002 82B0     		sub	sp, sp, #8
 780              	.LCFI22:
 781              		.cfi_def_cfa_offset 16
 782 0004 00AF     		add	r7, sp, #0
 783              	.LCFI23:
 784              		.cfi_def_cfa_register 7
 785 0006 7860     		str	r0, [r7, #4]
 668:.\Generated_Source\PSoC4/CapSense_1_CSHL.c **** 	return (CapSense_1_sensorBaseline[sensor]);
 786              		.loc 1 668 0
 787 0008 034B     		ldr	r3, .L39
 788 000a 7A68     		ldr	r2, [r7, #4]
 789 000c 5200     		lsl	r2, r2, #1
 790 000e D35A     		ldrh	r3, [r2, r3]
 669:.\Generated_Source\PSoC4/CapSense_1_CSHL.c **** }
 791              		.loc 1 669 0
 792 0010 181C     		mov	r0, r3
 793 0012 BD46     		mov	sp, r7
 794 0014 02B0     		add	sp, sp, #8
 795              		@ sp needed for prologue
 796 0016 80BD     		pop	{r7, pc}
 797              	.L40:
 798              		.align	2
 799              	.L39:
 800 0018 00000000 		.word	CapSense_1_sensorBaseline
 801              		.cfi_endproc
 802              	.LFE40:
ARM GAS  C:\Users\Jakob\AppData\Local\Temp\cc5GwTcI.s 			page 27


 803              		.size	CapSense_1_GetBaselineData, .-CapSense_1_GetBaselineData
 804              		.section	.text.CapSense_1_SetBaselineData,"ax",%progbits
 805              		.align	2
 806              		.global	CapSense_1_SetBaselineData
 807              		.code	16
 808              		.thumb_func
 809              		.type	CapSense_1_SetBaselineData, %function
 810              	CapSense_1_SetBaselineData:
 811              	.LFB41:
 670:.\Generated_Source\PSoC4/CapSense_1_CSHL.c **** 
 671:.\Generated_Source\PSoC4/CapSense_1_CSHL.c **** 
 672:.\Generated_Source\PSoC4/CapSense_1_CSHL.c **** /*******************************************************************************
 673:.\Generated_Source\PSoC4/CapSense_1_CSHL.c **** * Function Name: CapSense_1_SetBaselineData
 674:.\Generated_Source\PSoC4/CapSense_1_CSHL.c **** ********************************************************************************
 675:.\Generated_Source\PSoC4/CapSense_1_CSHL.c **** *
 676:.\Generated_Source\PSoC4/CapSense_1_CSHL.c **** * Summary:
 677:.\Generated_Source\PSoC4/CapSense_1_CSHL.c **** *  This API writes the data value passed as an argument to the sensor baseline array.
 678:.\Generated_Source\PSoC4/CapSense_1_CSHL.c **** *
 679:.\Generated_Source\PSoC4/CapSense_1_CSHL.c **** * Parameters:
 680:.\Generated_Source\PSoC4/CapSense_1_CSHL.c **** *  sensor:  Sensor number.
 681:.\Generated_Source\PSoC4/CapSense_1_CSHL.c **** *  data:    Sensor baseline.
 682:.\Generated_Source\PSoC4/CapSense_1_CSHL.c **** *
 683:.\Generated_Source\PSoC4/CapSense_1_CSHL.c **** * Return:
 684:.\Generated_Source\PSoC4/CapSense_1_CSHL.c **** *  None.
 685:.\Generated_Source\PSoC4/CapSense_1_CSHL.c **** *
 686:.\Generated_Source\PSoC4/CapSense_1_CSHL.c **** * Global Variables:
 687:.\Generated_Source\PSoC4/CapSense_1_CSHL.c **** *  CapSense_1_sensorBaseline[] - the array with initial values by scanning
 688:.\Generated_Source\PSoC4/CapSense_1_CSHL.c **** * 
 689:.\Generated_Source\PSoC4/CapSense_1_CSHL.c **** * Side Effects:
 690:.\Generated_Source\PSoC4/CapSense_1_CSHL.c **** *  None
 691:.\Generated_Source\PSoC4/CapSense_1_CSHL.c **** *
 692:.\Generated_Source\PSoC4/CapSense_1_CSHL.c **** *******************************************************************************/
 693:.\Generated_Source\PSoC4/CapSense_1_CSHL.c **** void CapSense_1_SetBaselineData(uint32 sensor, uint16 data)
 694:.\Generated_Source\PSoC4/CapSense_1_CSHL.c **** {
 812              		.loc 1 694 0
 813              		.cfi_startproc
 814 0000 80B5     		push	{r7, lr}
 815              	.LCFI24:
 816              		.cfi_def_cfa_offset 8
 817              		.cfi_offset 7, -8
 818              		.cfi_offset 14, -4
 819 0002 82B0     		sub	sp, sp, #8
 820              	.LCFI25:
 821              		.cfi_def_cfa_offset 16
 822 0004 00AF     		add	r7, sp, #0
 823              	.LCFI26:
 824              		.cfi_def_cfa_register 7
 825 0006 7860     		str	r0, [r7, #4]
 826 0008 0A1C     		mov	r2, r1
 827 000a BB1C     		add	r3, r7, #2
 828 000c 1A80     		strh	r2, [r3]
 695:.\Generated_Source\PSoC4/CapSense_1_CSHL.c **** 	CapSense_1_sensorBaseline[sensor] = data;
 829              		.loc 1 695 0
 830 000e 044B     		ldr	r3, .L42
 831 0010 7A68     		ldr	r2, [r7, #4]
 832 0012 5200     		lsl	r2, r2, #1
 833 0014 B91C     		add	r1, r7, #2
ARM GAS  C:\Users\Jakob\AppData\Local\Temp\cc5GwTcI.s 			page 28


 834 0016 0988     		ldrh	r1, [r1]
 835 0018 D152     		strh	r1, [r2, r3]
 696:.\Generated_Source\PSoC4/CapSense_1_CSHL.c **** }
 836              		.loc 1 696 0
 837 001a BD46     		mov	sp, r7
 838 001c 02B0     		add	sp, sp, #8
 839              		@ sp needed for prologue
 840 001e 80BD     		pop	{r7, pc}
 841              	.L43:
 842              		.align	2
 843              	.L42:
 844 0020 00000000 		.word	CapSense_1_sensorBaseline
 845              		.cfi_endproc
 846              	.LFE41:
 847              		.size	CapSense_1_SetBaselineData, .-CapSense_1_SetBaselineData
 848              		.section	.text.CapSense_1_GetDiffCountData,"ax",%progbits
 849              		.align	2
 850              		.global	CapSense_1_GetDiffCountData
 851              		.code	16
 852              		.thumb_func
 853              		.type	CapSense_1_GetDiffCountData, %function
 854              	CapSense_1_GetDiffCountData:
 855              	.LFB42:
 697:.\Generated_Source\PSoC4/CapSense_1_CSHL.c **** 
 698:.\Generated_Source\PSoC4/CapSense_1_CSHL.c **** 
 699:.\Generated_Source\PSoC4/CapSense_1_CSHL.c **** /*******************************************************************************
 700:.\Generated_Source\PSoC4/CapSense_1_CSHL.c **** * Function Name: CapSense_1_GetDiffCountData
 701:.\Generated_Source\PSoC4/CapSense_1_CSHL.c **** ********************************************************************************
 702:.\Generated_Source\PSoC4/CapSense_1_CSHL.c **** *
 703:.\Generated_Source\PSoC4/CapSense_1_CSHL.c **** * Summary:
 704:.\Generated_Source\PSoC4/CapSense_1_CSHL.c **** *  This function returns the Sensor Signal from the component.
 705:.\Generated_Source\PSoC4/CapSense_1_CSHL.c **** *
 706:.\Generated_Source\PSoC4/CapSense_1_CSHL.c **** * Parameters:
 707:.\Generated_Source\PSoC4/CapSense_1_CSHL.c **** *  sensor:  Sensor number.
 708:.\Generated_Source\PSoC4/CapSense_1_CSHL.c **** *
 709:.\Generated_Source\PSoC4/CapSense_1_CSHL.c **** * Return:
 710:.\Generated_Source\PSoC4/CapSense_1_CSHL.c **** *  This API returns the difference count value of the sensor indicated by the 
 711:.\Generated_Source\PSoC4/CapSense_1_CSHL.c **** *  argument. 
 712:.\Generated_Source\PSoC4/CapSense_1_CSHL.c **** *
 713:.\Generated_Source\PSoC4/CapSense_1_CSHL.c **** * Global Variables:
 714:.\Generated_Source\PSoC4/CapSense_1_CSHL.c **** *  CapSense_1_sensorSignal[] - the array with difference counts for sensors
 715:.\Generated_Source\PSoC4/CapSense_1_CSHL.c **** * 
 716:.\Generated_Source\PSoC4/CapSense_1_CSHL.c **** * Side Effects:
 717:.\Generated_Source\PSoC4/CapSense_1_CSHL.c **** *  None
 718:.\Generated_Source\PSoC4/CapSense_1_CSHL.c **** *
 719:.\Generated_Source\PSoC4/CapSense_1_CSHL.c **** *******************************************************************************/
 720:.\Generated_Source\PSoC4/CapSense_1_CSHL.c **** uint8 CapSense_1_GetDiffCountData(uint32 sensor)
 721:.\Generated_Source\PSoC4/CapSense_1_CSHL.c **** {
 856              		.loc 1 721 0
 857              		.cfi_startproc
 858 0000 80B5     		push	{r7, lr}
 859              	.LCFI27:
 860              		.cfi_def_cfa_offset 8
 861              		.cfi_offset 7, -8
 862              		.cfi_offset 14, -4
 863 0002 82B0     		sub	sp, sp, #8
 864              	.LCFI28:
ARM GAS  C:\Users\Jakob\AppData\Local\Temp\cc5GwTcI.s 			page 29


 865              		.cfi_def_cfa_offset 16
 866 0004 00AF     		add	r7, sp, #0
 867              	.LCFI29:
 868              		.cfi_def_cfa_register 7
 869 0006 7860     		str	r0, [r7, #4]
 722:.\Generated_Source\PSoC4/CapSense_1_CSHL.c **** 	return (CapSense_1_sensorSignal[sensor]);
 870              		.loc 1 722 0
 871 0008 034A     		ldr	r2, .L46
 872 000a 7B68     		ldr	r3, [r7, #4]
 873 000c D318     		add	r3, r2, r3
 874 000e 1B78     		ldrb	r3, [r3]
 723:.\Generated_Source\PSoC4/CapSense_1_CSHL.c **** }
 875              		.loc 1 723 0
 876 0010 181C     		mov	r0, r3
 877 0012 BD46     		mov	sp, r7
 878 0014 02B0     		add	sp, sp, #8
 879              		@ sp needed for prologue
 880 0016 80BD     		pop	{r7, pc}
 881              	.L47:
 882              		.align	2
 883              	.L46:
 884 0018 00000000 		.word	CapSense_1_sensorSignal
 885              		.cfi_endproc
 886              	.LFE42:
 887              		.size	CapSense_1_GetDiffCountData, .-CapSense_1_GetDiffCountData
 888              		.section	.text.CapSense_1_SetDiffCountData,"ax",%progbits
 889              		.align	2
 890              		.global	CapSense_1_SetDiffCountData
 891              		.code	16
 892              		.thumb_func
 893              		.type	CapSense_1_SetDiffCountData, %function
 894              	CapSense_1_SetDiffCountData:
 895              	.LFB43:
 724:.\Generated_Source\PSoC4/CapSense_1_CSHL.c **** 
 725:.\Generated_Source\PSoC4/CapSense_1_CSHL.c **** 
 726:.\Generated_Source\PSoC4/CapSense_1_CSHL.c **** /*******************************************************************************
 727:.\Generated_Source\PSoC4/CapSense_1_CSHL.c **** * Function Name: CapSense_1_SetDiffCountData
 728:.\Generated_Source\PSoC4/CapSense_1_CSHL.c **** ********************************************************************************
 729:.\Generated_Source\PSoC4/CapSense_1_CSHL.c **** *
 730:.\Generated_Source\PSoC4/CapSense_1_CSHL.c **** * Summary:
 731:.\Generated_Source\PSoC4/CapSense_1_CSHL.c **** *  This API writes the data value passed as an argument to the sensor signal array.
 732:.\Generated_Source\PSoC4/CapSense_1_CSHL.c **** *
 733:.\Generated_Source\PSoC4/CapSense_1_CSHL.c **** * Parameters:
 734:.\Generated_Source\PSoC4/CapSense_1_CSHL.c **** *  sensor:  Sensor number.
 735:.\Generated_Source\PSoC4/CapSense_1_CSHL.c **** *  value:   Sensor signal.
 736:.\Generated_Source\PSoC4/CapSense_1_CSHL.c **** *
 737:.\Generated_Source\PSoC4/CapSense_1_CSHL.c **** * Return:
 738:.\Generated_Source\PSoC4/CapSense_1_CSHL.c **** *  None. 
 739:.\Generated_Source\PSoC4/CapSense_1_CSHL.c **** *
 740:.\Generated_Source\PSoC4/CapSense_1_CSHL.c **** * Global Variables:
 741:.\Generated_Source\PSoC4/CapSense_1_CSHL.c **** *  CapSense_1_sensorSignal[] - the array with difference counts for sensors
 742:.\Generated_Source\PSoC4/CapSense_1_CSHL.c **** * 
 743:.\Generated_Source\PSoC4/CapSense_1_CSHL.c **** * Side Effects:
 744:.\Generated_Source\PSoC4/CapSense_1_CSHL.c **** *  None
 745:.\Generated_Source\PSoC4/CapSense_1_CSHL.c **** *
 746:.\Generated_Source\PSoC4/CapSense_1_CSHL.c **** *******************************************************************************/
 747:.\Generated_Source\PSoC4/CapSense_1_CSHL.c **** void CapSense_1_SetDiffCountData(uint32 sensor, uint8 value)
ARM GAS  C:\Users\Jakob\AppData\Local\Temp\cc5GwTcI.s 			page 30


 748:.\Generated_Source\PSoC4/CapSense_1_CSHL.c **** {
 896              		.loc 1 748 0
 897              		.cfi_startproc
 898 0000 80B5     		push	{r7, lr}
 899              	.LCFI30:
 900              		.cfi_def_cfa_offset 8
 901              		.cfi_offset 7, -8
 902              		.cfi_offset 14, -4
 903 0002 82B0     		sub	sp, sp, #8
 904              	.LCFI31:
 905              		.cfi_def_cfa_offset 16
 906 0004 00AF     		add	r7, sp, #0
 907              	.LCFI32:
 908              		.cfi_def_cfa_register 7
 909 0006 7860     		str	r0, [r7, #4]
 910 0008 0A1C     		mov	r2, r1
 911 000a FB1C     		add	r3, r7, #3
 912 000c 1A70     		strb	r2, [r3]
 749:.\Generated_Source\PSoC4/CapSense_1_CSHL.c ****     CapSense_1_sensorSignal[sensor] = value;
 913              		.loc 1 749 0
 914 000e 044A     		ldr	r2, .L49
 915 0010 7B68     		ldr	r3, [r7, #4]
 916 0012 D318     		add	r3, r2, r3
 917 0014 FA1C     		add	r2, r7, #3
 918 0016 1278     		ldrb	r2, [r2]
 919 0018 1A70     		strb	r2, [r3]
 750:.\Generated_Source\PSoC4/CapSense_1_CSHL.c **** }
 920              		.loc 1 750 0
 921 001a BD46     		mov	sp, r7
 922 001c 02B0     		add	sp, sp, #8
 923              		@ sp needed for prologue
 924 001e 80BD     		pop	{r7, pc}
 925              	.L50:
 926              		.align	2
 927              	.L49:
 928 0020 00000000 		.word	CapSense_1_sensorSignal
 929              		.cfi_endproc
 930              	.LFE43:
 931              		.size	CapSense_1_SetDiffCountData, .-CapSense_1_SetDiffCountData
 932              		.section	.text.CapSense_1_GetFingerThreshold,"ax",%progbits
 933              		.align	2
 934              		.global	CapSense_1_GetFingerThreshold
 935              		.code	16
 936              		.thumb_func
 937              		.type	CapSense_1_GetFingerThreshold, %function
 938              	CapSense_1_GetFingerThreshold:
 939              	.LFB44:
 751:.\Generated_Source\PSoC4/CapSense_1_CSHL.c **** 
 752:.\Generated_Source\PSoC4/CapSense_1_CSHL.c **** 
 753:.\Generated_Source\PSoC4/CapSense_1_CSHL.c **** /*******************************************************************************
 754:.\Generated_Source\PSoC4/CapSense_1_CSHL.c **** * Function Name: CapSense_1_GetFingerThreshold
 755:.\Generated_Source\PSoC4/CapSense_1_CSHL.c **** ********************************************************************************
 756:.\Generated_Source\PSoC4/CapSense_1_CSHL.c **** *
 757:.\Generated_Source\PSoC4/CapSense_1_CSHL.c **** * Summary:
 758:.\Generated_Source\PSoC4/CapSense_1_CSHL.c **** *  This function reads the finger threshold from the component.
 759:.\Generated_Source\PSoC4/CapSense_1_CSHL.c **** *
 760:.\Generated_Source\PSoC4/CapSense_1_CSHL.c **** * Parameters:
ARM GAS  C:\Users\Jakob\AppData\Local\Temp\cc5GwTcI.s 			page 31


 761:.\Generated_Source\PSoC4/CapSense_1_CSHL.c **** *  widget:  widget number.
 762:.\Generated_Source\PSoC4/CapSense_1_CSHL.c **** *
 763:.\Generated_Source\PSoC4/CapSense_1_CSHL.c **** * Return:
 764:.\Generated_Source\PSoC4/CapSense_1_CSHL.c **** *  This API returns the finger threshold of the widget indicated by the argument. 
 765:.\Generated_Source\PSoC4/CapSense_1_CSHL.c **** *
 766:.\Generated_Source\PSoC4/CapSense_1_CSHL.c **** * Global Variables:
 767:.\Generated_Source\PSoC4/CapSense_1_CSHL.c **** *  CapSense_1_fingerThreshold[] - This array contains the level of signal 
 768:.\Generated_Source\PSoC4/CapSense_1_CSHL.c **** *  for each widget that is determined if a finger is present on the widget.
 769:.\Generated_Source\PSoC4/CapSense_1_CSHL.c **** *
 770:.\Generated_Source\PSoC4/CapSense_1_CSHL.c **** * Side Effects:
 771:.\Generated_Source\PSoC4/CapSense_1_CSHL.c **** *  None
 772:.\Generated_Source\PSoC4/CapSense_1_CSHL.c **** *
 773:.\Generated_Source\PSoC4/CapSense_1_CSHL.c **** *******************************************************************************/
 774:.\Generated_Source\PSoC4/CapSense_1_CSHL.c **** uint8 CapSense_1_GetFingerThreshold(uint32 widget)
 775:.\Generated_Source\PSoC4/CapSense_1_CSHL.c **** {
 940              		.loc 1 775 0
 941              		.cfi_startproc
 942 0000 80B5     		push	{r7, lr}
 943              	.LCFI33:
 944              		.cfi_def_cfa_offset 8
 945              		.cfi_offset 7, -8
 946              		.cfi_offset 14, -4
 947 0002 82B0     		sub	sp, sp, #8
 948              	.LCFI34:
 949              		.cfi_def_cfa_offset 16
 950 0004 00AF     		add	r7, sp, #0
 951              	.LCFI35:
 952              		.cfi_def_cfa_register 7
 953 0006 7860     		str	r0, [r7, #4]
 776:.\Generated_Source\PSoC4/CapSense_1_CSHL.c **** 	return(CapSense_1_fingerThreshold[widget]);
 954              		.loc 1 776 0
 955 0008 034A     		ldr	r2, .L53
 956 000a 7B68     		ldr	r3, [r7, #4]
 957 000c D318     		add	r3, r2, r3
 958 000e 1B78     		ldrb	r3, [r3]
 777:.\Generated_Source\PSoC4/CapSense_1_CSHL.c **** }
 959              		.loc 1 777 0
 960 0010 181C     		mov	r0, r3
 961 0012 BD46     		mov	sp, r7
 962 0014 02B0     		add	sp, sp, #8
 963              		@ sp needed for prologue
 964 0016 80BD     		pop	{r7, pc}
 965              	.L54:
 966              		.align	2
 967              	.L53:
 968 0018 00000000 		.word	CapSense_1_fingerThreshold
 969              		.cfi_endproc
 970              	.LFE44:
 971              		.size	CapSense_1_GetFingerThreshold, .-CapSense_1_GetFingerThreshold
 972              		.section	.text.CapSense_1_GetNoiseThreshold,"ax",%progbits
 973              		.align	2
 974              		.global	CapSense_1_GetNoiseThreshold
 975              		.code	16
 976              		.thumb_func
 977              		.type	CapSense_1_GetNoiseThreshold, %function
 978              	CapSense_1_GetNoiseThreshold:
 979              	.LFB45:
ARM GAS  C:\Users\Jakob\AppData\Local\Temp\cc5GwTcI.s 			page 32


 778:.\Generated_Source\PSoC4/CapSense_1_CSHL.c **** 
 779:.\Generated_Source\PSoC4/CapSense_1_CSHL.c **** 
 780:.\Generated_Source\PSoC4/CapSense_1_CSHL.c **** /*******************************************************************************
 781:.\Generated_Source\PSoC4/CapSense_1_CSHL.c **** * Function Name: CapSense_1_GetNoiseThreshold
 782:.\Generated_Source\PSoC4/CapSense_1_CSHL.c **** ********************************************************************************
 783:.\Generated_Source\PSoC4/CapSense_1_CSHL.c **** *
 784:.\Generated_Source\PSoC4/CapSense_1_CSHL.c **** * Summary:
 785:.\Generated_Source\PSoC4/CapSense_1_CSHL.c **** *  This function reads the noise threshold from the component.
 786:.\Generated_Source\PSoC4/CapSense_1_CSHL.c **** *
 787:.\Generated_Source\PSoC4/CapSense_1_CSHL.c **** * Parameters:
 788:.\Generated_Source\PSoC4/CapSense_1_CSHL.c **** *  widget:  widget number.
 789:.\Generated_Source\PSoC4/CapSense_1_CSHL.c **** *
 790:.\Generated_Source\PSoC4/CapSense_1_CSHL.c **** * Return:
 791:.\Generated_Source\PSoC4/CapSense_1_CSHL.c **** *  This API returns the noise threshold of the widget indicated by the argument. 
 792:.\Generated_Source\PSoC4/CapSense_1_CSHL.c **** *
 793:.\Generated_Source\PSoC4/CapSense_1_CSHL.c **** * Global Variables:
 794:.\Generated_Source\PSoC4/CapSense_1_CSHL.c **** *  CapSense_1_noiseThreshold[] - This array contains the level of signal 
 795:.\Generated_Source\PSoC4/CapSense_1_CSHL.c **** *  for each widget that determines the level of noise in the capacitive scan.
 796:.\Generated_Source\PSoC4/CapSense_1_CSHL.c **** * 
 797:.\Generated_Source\PSoC4/CapSense_1_CSHL.c **** * Side Effects:
 798:.\Generated_Source\PSoC4/CapSense_1_CSHL.c **** *  None
 799:.\Generated_Source\PSoC4/CapSense_1_CSHL.c **** *
 800:.\Generated_Source\PSoC4/CapSense_1_CSHL.c **** *******************************************************************************/
 801:.\Generated_Source\PSoC4/CapSense_1_CSHL.c **** uint8 CapSense_1_GetNoiseThreshold(uint32 widget)
 802:.\Generated_Source\PSoC4/CapSense_1_CSHL.c **** {
 980              		.loc 1 802 0
 981              		.cfi_startproc
 982 0000 80B5     		push	{r7, lr}
 983              	.LCFI36:
 984              		.cfi_def_cfa_offset 8
 985              		.cfi_offset 7, -8
 986              		.cfi_offset 14, -4
 987 0002 82B0     		sub	sp, sp, #8
 988              	.LCFI37:
 989              		.cfi_def_cfa_offset 16
 990 0004 00AF     		add	r7, sp, #0
 991              	.LCFI38:
 992              		.cfi_def_cfa_register 7
 993 0006 7860     		str	r0, [r7, #4]
 803:.\Generated_Source\PSoC4/CapSense_1_CSHL.c **** 	return (CapSense_1_noiseThreshold[widget]);
 994              		.loc 1 803 0
 995 0008 034A     		ldr	r2, .L57
 996 000a 7B68     		ldr	r3, [r7, #4]
 997 000c D318     		add	r3, r2, r3
 998 000e 1B78     		ldrb	r3, [r3]
 804:.\Generated_Source\PSoC4/CapSense_1_CSHL.c **** }
 999              		.loc 1 804 0
 1000 0010 181C     		mov	r0, r3
 1001 0012 BD46     		mov	sp, r7
 1002 0014 02B0     		add	sp, sp, #8
 1003              		@ sp needed for prologue
 1004 0016 80BD     		pop	{r7, pc}
 1005              	.L58:
 1006              		.align	2
 1007              	.L57:
 1008 0018 00000000 		.word	CapSense_1_noiseThreshold
 1009              		.cfi_endproc
ARM GAS  C:\Users\Jakob\AppData\Local\Temp\cc5GwTcI.s 			page 33


 1010              	.LFE45:
 1011              		.size	CapSense_1_GetNoiseThreshold, .-CapSense_1_GetNoiseThreshold
 1012              		.section	.text.CapSense_1_GetFingerHysteresis,"ax",%progbits
 1013              		.align	2
 1014              		.global	CapSense_1_GetFingerHysteresis
 1015              		.code	16
 1016              		.thumb_func
 1017              		.type	CapSense_1_GetFingerHysteresis, %function
 1018              	CapSense_1_GetFingerHysteresis:
 1019              	.LFB46:
 805:.\Generated_Source\PSoC4/CapSense_1_CSHL.c **** 
 806:.\Generated_Source\PSoC4/CapSense_1_CSHL.c **** 
 807:.\Generated_Source\PSoC4/CapSense_1_CSHL.c **** /*******************************************************************************
 808:.\Generated_Source\PSoC4/CapSense_1_CSHL.c **** * Function Name: CapSense_1_GetFingerHysteresis
 809:.\Generated_Source\PSoC4/CapSense_1_CSHL.c **** ********************************************************************************
 810:.\Generated_Source\PSoC4/CapSense_1_CSHL.c **** *
 811:.\Generated_Source\PSoC4/CapSense_1_CSHL.c **** * Summary:
 812:.\Generated_Source\PSoC4/CapSense_1_CSHL.c **** *  This function reads the Hysteresis value from the component.
 813:.\Generated_Source\PSoC4/CapSense_1_CSHL.c **** *
 814:.\Generated_Source\PSoC4/CapSense_1_CSHL.c **** * Parameters:
 815:.\Generated_Source\PSoC4/CapSense_1_CSHL.c **** *  widget:  widget number.
 816:.\Generated_Source\PSoC4/CapSense_1_CSHL.c **** *
 817:.\Generated_Source\PSoC4/CapSense_1_CSHL.c **** * Return:
 818:.\Generated_Source\PSoC4/CapSense_1_CSHL.c **** *  This API returns the Hysteresis of the widget indicated by the argument. 
 819:.\Generated_Source\PSoC4/CapSense_1_CSHL.c **** *
 820:.\Generated_Source\PSoC4/CapSense_1_CSHL.c **** * Global Variables:
 821:.\Generated_Source\PSoC4/CapSense_1_CSHL.c **** *  CapSense_1_hysteresis[] - This array contains the hysteresis value 
 822:.\Generated_Source\PSoC4/CapSense_1_CSHL.c **** *   for each widget.
 823:.\Generated_Source\PSoC4/CapSense_1_CSHL.c **** *  CapSense_1_widgetNumberSld - structure with dynamic sliders' parameters.
 824:.\Generated_Source\PSoC4/CapSense_1_CSHL.c **** *
 825:.\Generated_Source\PSoC4/CapSense_1_CSHL.c **** * Side Effects:
 826:.\Generated_Source\PSoC4/CapSense_1_CSHL.c **** *  None
 827:.\Generated_Source\PSoC4/CapSense_1_CSHL.c **** *
 828:.\Generated_Source\PSoC4/CapSense_1_CSHL.c **** *******************************************************************************/
 829:.\Generated_Source\PSoC4/CapSense_1_CSHL.c **** uint8 CapSense_1_GetFingerHysteresis(uint32 widget)
 830:.\Generated_Source\PSoC4/CapSense_1_CSHL.c **** {
 1020              		.loc 1 830 0
 1021              		.cfi_startproc
 1022 0000 80B5     		push	{r7, lr}
 1023              	.LCFI39:
 1024              		.cfi_def_cfa_offset 8
 1025              		.cfi_offset 7, -8
 1026              		.cfi_offset 14, -4
 1027 0002 82B0     		sub	sp, sp, #8
 1028              	.LCFI40:
 1029              		.cfi_def_cfa_offset 16
 1030 0004 00AF     		add	r7, sp, #0
 1031              	.LCFI41:
 1032              		.cfi_def_cfa_register 7
 1033 0006 7860     		str	r0, [r7, #4]
 831:.\Generated_Source\PSoC4/CapSense_1_CSHL.c **** 	return(CapSense_1_hysteresis[widget]);
 1034              		.loc 1 831 0
 1035 0008 034A     		ldr	r2, .L61
 1036 000a 7B68     		ldr	r3, [r7, #4]
 1037 000c D318     		add	r3, r2, r3
 1038 000e 1B78     		ldrb	r3, [r3]
 832:.\Generated_Source\PSoC4/CapSense_1_CSHL.c **** }
ARM GAS  C:\Users\Jakob\AppData\Local\Temp\cc5GwTcI.s 			page 34


 1039              		.loc 1 832 0
 1040 0010 181C     		mov	r0, r3
 1041 0012 BD46     		mov	sp, r7
 1042 0014 02B0     		add	sp, sp, #8
 1043              		@ sp needed for prologue
 1044 0016 80BD     		pop	{r7, pc}
 1045              	.L62:
 1046              		.align	2
 1047              	.L61:
 1048 0018 00000000 		.word	CapSense_1_hysteresis
 1049              		.cfi_endproc
 1050              	.LFE46:
 1051              		.size	CapSense_1_GetFingerHysteresis, .-CapSense_1_GetFingerHysteresis
 1052              		.section	.text.CapSense_1_GetNegativeNoiseThreshold,"ax",%progbits
 1053              		.align	2
 1054              		.global	CapSense_1_GetNegativeNoiseThreshold
 1055              		.code	16
 1056              		.thumb_func
 1057              		.type	CapSense_1_GetNegativeNoiseThreshold, %function
 1058              	CapSense_1_GetNegativeNoiseThreshold:
 1059              	.LFB47:
 833:.\Generated_Source\PSoC4/CapSense_1_CSHL.c **** 
 834:.\Generated_Source\PSoC4/CapSense_1_CSHL.c **** 
 835:.\Generated_Source\PSoC4/CapSense_1_CSHL.c **** /*******************************************************************************
 836:.\Generated_Source\PSoC4/CapSense_1_CSHL.c **** * Function Name: CapSense_1_GetNegativeNoiseThreshold
 837:.\Generated_Source\PSoC4/CapSense_1_CSHL.c **** ********************************************************************************
 838:.\Generated_Source\PSoC4/CapSense_1_CSHL.c **** *
 839:.\Generated_Source\PSoC4/CapSense_1_CSHL.c **** * Summary:
 840:.\Generated_Source\PSoC4/CapSense_1_CSHL.c **** *  This function reads the negative noise threshold from the component.
 841:.\Generated_Source\PSoC4/CapSense_1_CSHL.c **** *
 842:.\Generated_Source\PSoC4/CapSense_1_CSHL.c **** * Parameters: 
 843:.\Generated_Source\PSoC4/CapSense_1_CSHL.c **** *  None.
 844:.\Generated_Source\PSoC4/CapSense_1_CSHL.c **** *
 845:.\Generated_Source\PSoC4/CapSense_1_CSHL.c **** * Return Value: 
 846:.\Generated_Source\PSoC4/CapSense_1_CSHL.c **** *  This API returns the negative noise threshold
 847:.\Generated_Source\PSoC4/CapSense_1_CSHL.c **** *
 848:.\Generated_Source\PSoC4/CapSense_1_CSHL.c **** * Global Variables:
 849:.\Generated_Source\PSoC4/CapSense_1_CSHL.c **** *  CapSense_1_negativeNoiseThreshold - This variable specifies the negative 
 850:.\Generated_Source\PSoC4/CapSense_1_CSHL.c **** *   difference between the raw count and baseline levels for Baseline resetting
 851:.\Generated_Source\PSoC4/CapSense_1_CSHL.c **** *   to the raw count level.
 852:.\Generated_Source\PSoC4/CapSense_1_CSHL.c **** * 
 853:.\Generated_Source\PSoC4/CapSense_1_CSHL.c **** * Side Effects:
 854:.\Generated_Source\PSoC4/CapSense_1_CSHL.c **** *  None
 855:.\Generated_Source\PSoC4/CapSense_1_CSHL.c **** *
 856:.\Generated_Source\PSoC4/CapSense_1_CSHL.c **** *******************************************************************************/
 857:.\Generated_Source\PSoC4/CapSense_1_CSHL.c **** uint8 CapSense_1_GetNegativeNoiseThreshold(uint32 widget)
 858:.\Generated_Source\PSoC4/CapSense_1_CSHL.c **** {
 1060              		.loc 1 858 0
 1061              		.cfi_startproc
 1062 0000 80B5     		push	{r7, lr}
 1063              	.LCFI42:
 1064              		.cfi_def_cfa_offset 8
 1065              		.cfi_offset 7, -8
 1066              		.cfi_offset 14, -4
 1067 0002 82B0     		sub	sp, sp, #8
 1068              	.LCFI43:
 1069              		.cfi_def_cfa_offset 16
ARM GAS  C:\Users\Jakob\AppData\Local\Temp\cc5GwTcI.s 			page 35


 1070 0004 00AF     		add	r7, sp, #0
 1071              	.LCFI44:
 1072              		.cfi_def_cfa_register 7
 1073 0006 7860     		str	r0, [r7, #4]
 859:.\Generated_Source\PSoC4/CapSense_1_CSHL.c **** #if (CapSense_1_TUNING_METHOD != CapSense_1__TUNING_NONE)
 860:.\Generated_Source\PSoC4/CapSense_1_CSHL.c **** 	return(CapSense_1_negativeNoiseThreshold[widget]);
 1074              		.loc 1 860 0
 1075 0008 034A     		ldr	r2, .L65
 1076 000a 7B68     		ldr	r3, [r7, #4]
 1077 000c D318     		add	r3, r2, r3
 1078 000e 1B78     		ldrb	r3, [r3]
 861:.\Generated_Source\PSoC4/CapSense_1_CSHL.c **** #else
 862:.\Generated_Source\PSoC4/CapSense_1_CSHL.c **** 	return(CapSense_1_NEGATIVE_NOISE_THRESHOLD);
 863:.\Generated_Source\PSoC4/CapSense_1_CSHL.c **** #endif /* (CapSense_1_TUNING_METHOD != CapSense_1__TUNING_NONE) */ 
 864:.\Generated_Source\PSoC4/CapSense_1_CSHL.c **** }
 1079              		.loc 1 864 0
 1080 0010 181C     		mov	r0, r3
 1081 0012 BD46     		mov	sp, r7
 1082 0014 02B0     		add	sp, sp, #8
 1083              		@ sp needed for prologue
 1084 0016 80BD     		pop	{r7, pc}
 1085              	.L66:
 1086              		.align	2
 1087              	.L65:
 1088 0018 00000000 		.word	CapSense_1_negativeNoiseThreshold
 1089              		.cfi_endproc
 1090              	.LFE47:
 1091              		.size	CapSense_1_GetNegativeNoiseThreshold, .-CapSense_1_GetNegativeNoiseThreshold
 1092              		.section	.text.CapSense_1_SetFingerThreshold,"ax",%progbits
 1093              		.align	2
 1094              		.global	CapSense_1_SetFingerThreshold
 1095              		.code	16
 1096              		.thumb_func
 1097              		.type	CapSense_1_SetFingerThreshold, %function
 1098              	CapSense_1_SetFingerThreshold:
 1099              	.LFB48:
 865:.\Generated_Source\PSoC4/CapSense_1_CSHL.c **** 
 866:.\Generated_Source\PSoC4/CapSense_1_CSHL.c **** 
 867:.\Generated_Source\PSoC4/CapSense_1_CSHL.c **** #if(CapSense_1_TUNING_METHOD != CapSense_1__TUNING_NONE)
 868:.\Generated_Source\PSoC4/CapSense_1_CSHL.c **** 	/*******************************************************************************
 869:.\Generated_Source\PSoC4/CapSense_1_CSHL.c **** 	* Function Name: CapSense_1_SetFingerThreshold
 870:.\Generated_Source\PSoC4/CapSense_1_CSHL.c **** 	********************************************************************************
 871:.\Generated_Source\PSoC4/CapSense_1_CSHL.c **** 	*
 872:.\Generated_Source\PSoC4/CapSense_1_CSHL.c **** 	* Summary:
 873:.\Generated_Source\PSoC4/CapSense_1_CSHL.c **** 	*  This API sets the finger threshold value for a widget. 
 874:.\Generated_Source\PSoC4/CapSense_1_CSHL.c **** 	*
 875:.\Generated_Source\PSoC4/CapSense_1_CSHL.c **** 	* Parameters: 
 876:.\Generated_Source\PSoC4/CapSense_1_CSHL.c **** 	*  sensorNumber:  widget index. 
 877:.\Generated_Source\PSoC4/CapSense_1_CSHL.c **** 	*  value:  Finger threshold value for the widget.
 878:.\Generated_Source\PSoC4/CapSense_1_CSHL.c **** 	*
 879:.\Generated_Source\PSoC4/CapSense_1_CSHL.c **** 	* Return Value: 
 880:.\Generated_Source\PSoC4/CapSense_1_CSHL.c **** 	*  None
 881:.\Generated_Source\PSoC4/CapSense_1_CSHL.c **** 	*
 882:.\Generated_Source\PSoC4/CapSense_1_CSHL.c **** 	* Global Variables:
 883:.\Generated_Source\PSoC4/CapSense_1_CSHL.c **** 	*  CapSense_1_fingerThreshold[] - This array contains the level of signal 
 884:.\Generated_Source\PSoC4/CapSense_1_CSHL.c **** 	*   for each widget that determines if a finger is present on the widget.
 885:.\Generated_Source\PSoC4/CapSense_1_CSHL.c **** 	* 
ARM GAS  C:\Users\Jakob\AppData\Local\Temp\cc5GwTcI.s 			page 36


 886:.\Generated_Source\PSoC4/CapSense_1_CSHL.c **** 	* Side Effects:
 887:.\Generated_Source\PSoC4/CapSense_1_CSHL.c **** 	*  None
 888:.\Generated_Source\PSoC4/CapSense_1_CSHL.c **** 	*
 889:.\Generated_Source\PSoC4/CapSense_1_CSHL.c **** 	*******************************************************************************/
 890:.\Generated_Source\PSoC4/CapSense_1_CSHL.c **** 	void CapSense_1_SetFingerThreshold(uint32 widget, uint8 value)
 891:.\Generated_Source\PSoC4/CapSense_1_CSHL.c **** 	{	
 1100              		.loc 1 891 0
 1101              		.cfi_startproc
 1102 0000 80B5     		push	{r7, lr}
 1103              	.LCFI45:
 1104              		.cfi_def_cfa_offset 8
 1105              		.cfi_offset 7, -8
 1106              		.cfi_offset 14, -4
 1107 0002 82B0     		sub	sp, sp, #8
 1108              	.LCFI46:
 1109              		.cfi_def_cfa_offset 16
 1110 0004 00AF     		add	r7, sp, #0
 1111              	.LCFI47:
 1112              		.cfi_def_cfa_register 7
 1113 0006 7860     		str	r0, [r7, #4]
 1114 0008 0A1C     		mov	r2, r1
 1115 000a FB1C     		add	r3, r7, #3
 1116 000c 1A70     		strb	r2, [r3]
 892:.\Generated_Source\PSoC4/CapSense_1_CSHL.c **** 		CapSense_1_fingerThreshold[widget] = value;
 1117              		.loc 1 892 0
 1118 000e 044A     		ldr	r2, .L68
 1119 0010 7B68     		ldr	r3, [r7, #4]
 1120 0012 D318     		add	r3, r2, r3
 1121 0014 FA1C     		add	r2, r7, #3
 1122 0016 1278     		ldrb	r2, [r2]
 1123 0018 1A70     		strb	r2, [r3]
 893:.\Generated_Source\PSoC4/CapSense_1_CSHL.c **** 	}
 1124              		.loc 1 893 0
 1125 001a BD46     		mov	sp, r7
 1126 001c 02B0     		add	sp, sp, #8
 1127              		@ sp needed for prologue
 1128 001e 80BD     		pop	{r7, pc}
 1129              	.L69:
 1130              		.align	2
 1131              	.L68:
 1132 0020 00000000 		.word	CapSense_1_fingerThreshold
 1133              		.cfi_endproc
 1134              	.LFE48:
 1135              		.size	CapSense_1_SetFingerThreshold, .-CapSense_1_SetFingerThreshold
 1136              		.section	.text.CapSense_1_SetNoiseThreshold,"ax",%progbits
 1137              		.align	2
 1138              		.global	CapSense_1_SetNoiseThreshold
 1139              		.code	16
 1140              		.thumb_func
 1141              		.type	CapSense_1_SetNoiseThreshold, %function
 1142              	CapSense_1_SetNoiseThreshold:
 1143              	.LFB49:
 894:.\Generated_Source\PSoC4/CapSense_1_CSHL.c **** 
 895:.\Generated_Source\PSoC4/CapSense_1_CSHL.c **** 
 896:.\Generated_Source\PSoC4/CapSense_1_CSHL.c **** 	/*******************************************************************************
 897:.\Generated_Source\PSoC4/CapSense_1_CSHL.c **** 	* Function Name: CapSense_1_SetNoiseThreshold
 898:.\Generated_Source\PSoC4/CapSense_1_CSHL.c **** 	********************************************************************************
ARM GAS  C:\Users\Jakob\AppData\Local\Temp\cc5GwTcI.s 			page 37


 899:.\Generated_Source\PSoC4/CapSense_1_CSHL.c **** 	*
 900:.\Generated_Source\PSoC4/CapSense_1_CSHL.c **** 	* Summary:
 901:.\Generated_Source\PSoC4/CapSense_1_CSHL.c **** 	*  This API sets the Noise Threshold value for each widget.
 902:.\Generated_Source\PSoC4/CapSense_1_CSHL.c **** 	*
 903:.\Generated_Source\PSoC4/CapSense_1_CSHL.c **** 	* Parameters:
 904:.\Generated_Source\PSoC4/CapSense_1_CSHL.c **** 	*  widget:  Sensor index number.
 905:.\Generated_Source\PSoC4/CapSense_1_CSHL.c **** 	*  value:   Noise Threshold value for widget.
 906:.\Generated_Source\PSoC4/CapSense_1_CSHL.c **** 	*
 907:.\Generated_Source\PSoC4/CapSense_1_CSHL.c **** 	* Return Value: 
 908:.\Generated_Source\PSoC4/CapSense_1_CSHL.c **** 	*  None
 909:.\Generated_Source\PSoC4/CapSense_1_CSHL.c **** 	*
 910:.\Generated_Source\PSoC4/CapSense_1_CSHL.c **** 	* Global Variables:
 911:.\Generated_Source\PSoC4/CapSense_1_CSHL.c **** 	*  CapSense_1_noiseThreshold[] - This array contains the level of signal 
 912:.\Generated_Source\PSoC4/CapSense_1_CSHL.c **** 	*   for each widget that determines the level of noise in the capacitive scan.
 913:.\Generated_Source\PSoC4/CapSense_1_CSHL.c **** 	* 
 914:.\Generated_Source\PSoC4/CapSense_1_CSHL.c **** 	* Side Effects:
 915:.\Generated_Source\PSoC4/CapSense_1_CSHL.c **** 	*  None
 916:.\Generated_Source\PSoC4/CapSense_1_CSHL.c **** 	*
 917:.\Generated_Source\PSoC4/CapSense_1_CSHL.c **** 	*******************************************************************************/
 918:.\Generated_Source\PSoC4/CapSense_1_CSHL.c **** 	void CapSense_1_SetNoiseThreshold(uint32 widget, uint8 value)
 919:.\Generated_Source\PSoC4/CapSense_1_CSHL.c **** 	{
 1144              		.loc 1 919 0
 1145              		.cfi_startproc
 1146 0000 80B5     		push	{r7, lr}
 1147              	.LCFI48:
 1148              		.cfi_def_cfa_offset 8
 1149              		.cfi_offset 7, -8
 1150              		.cfi_offset 14, -4
 1151 0002 82B0     		sub	sp, sp, #8
 1152              	.LCFI49:
 1153              		.cfi_def_cfa_offset 16
 1154 0004 00AF     		add	r7, sp, #0
 1155              	.LCFI50:
 1156              		.cfi_def_cfa_register 7
 1157 0006 7860     		str	r0, [r7, #4]
 1158 0008 0A1C     		mov	r2, r1
 1159 000a FB1C     		add	r3, r7, #3
 1160 000c 1A70     		strb	r2, [r3]
 920:.\Generated_Source\PSoC4/CapSense_1_CSHL.c **** 		CapSense_1_noiseThreshold[widget] = value;
 1161              		.loc 1 920 0
 1162 000e 044A     		ldr	r2, .L71
 1163 0010 7B68     		ldr	r3, [r7, #4]
 1164 0012 D318     		add	r3, r2, r3
 1165 0014 FA1C     		add	r2, r7, #3
 1166 0016 1278     		ldrb	r2, [r2]
 1167 0018 1A70     		strb	r2, [r3]
 921:.\Generated_Source\PSoC4/CapSense_1_CSHL.c **** 	}
 1168              		.loc 1 921 0
 1169 001a BD46     		mov	sp, r7
 1170 001c 02B0     		add	sp, sp, #8
 1171              		@ sp needed for prologue
 1172 001e 80BD     		pop	{r7, pc}
 1173              	.L72:
 1174              		.align	2
 1175              	.L71:
 1176 0020 00000000 		.word	CapSense_1_noiseThreshold
 1177              		.cfi_endproc
ARM GAS  C:\Users\Jakob\AppData\Local\Temp\cc5GwTcI.s 			page 38


 1178              	.LFE49:
 1179              		.size	CapSense_1_SetNoiseThreshold, .-CapSense_1_SetNoiseThreshold
 1180              		.section	.text.CapSense_1_SetFingerHysteresis,"ax",%progbits
 1181              		.align	2
 1182              		.global	CapSense_1_SetFingerHysteresis
 1183              		.code	16
 1184              		.thumb_func
 1185              		.type	CapSense_1_SetFingerHysteresis, %function
 1186              	CapSense_1_SetFingerHysteresis:
 1187              	.LFB50:
 922:.\Generated_Source\PSoC4/CapSense_1_CSHL.c **** 
 923:.\Generated_Source\PSoC4/CapSense_1_CSHL.c **** 
 924:.\Generated_Source\PSoC4/CapSense_1_CSHL.c **** 	/*******************************************************************************
 925:.\Generated_Source\PSoC4/CapSense_1_CSHL.c **** 	* Function Name: CapSense_1_SetFingerHysteresis
 926:.\Generated_Source\PSoC4/CapSense_1_CSHL.c **** 	********************************************************************************
 927:.\Generated_Source\PSoC4/CapSense_1_CSHL.c **** 	*
 928:.\Generated_Source\PSoC4/CapSense_1_CSHL.c **** 	* Summary:
 929:.\Generated_Source\PSoC4/CapSense_1_CSHL.c **** 	*  This API sets the Hysteresis value of a widget
 930:.\Generated_Source\PSoC4/CapSense_1_CSHL.c **** 	*
 931:.\Generated_Source\PSoC4/CapSense_1_CSHL.c **** 	* Parameters: 
 932:.\Generated_Source\PSoC4/CapSense_1_CSHL.c **** 	*  value:  Hysteresis value for widgets.
 933:.\Generated_Source\PSoC4/CapSense_1_CSHL.c **** 	*  widget:  widget number
 934:.\Generated_Source\PSoC4/CapSense_1_CSHL.c **** 	*
 935:.\Generated_Source\PSoC4/CapSense_1_CSHL.c **** 	* Return Value: 
 936:.\Generated_Source\PSoC4/CapSense_1_CSHL.c **** 	*  None
 937:.\Generated_Source\PSoC4/CapSense_1_CSHL.c **** 	*
 938:.\Generated_Source\PSoC4/CapSense_1_CSHL.c **** 	* Global Variables:
 939:.\Generated_Source\PSoC4/CapSense_1_CSHL.c **** 	*  CapSense_1_hysteresis[] - This array contains the hysteresis value for each widget.
 940:.\Generated_Source\PSoC4/CapSense_1_CSHL.c **** 	*  CapSense_1_widgetNumberSld - structure with dynamic sliders' parameters.
 941:.\Generated_Source\PSoC4/CapSense_1_CSHL.c **** 	*
 942:.\Generated_Source\PSoC4/CapSense_1_CSHL.c **** 	* Side Effects:
 943:.\Generated_Source\PSoC4/CapSense_1_CSHL.c **** 	*  None
 944:.\Generated_Source\PSoC4/CapSense_1_CSHL.c **** 	*
 945:.\Generated_Source\PSoC4/CapSense_1_CSHL.c **** 	*******************************************************************************/
 946:.\Generated_Source\PSoC4/CapSense_1_CSHL.c **** 	void CapSense_1_SetFingerHysteresis(uint32 widget, uint8 value)
 947:.\Generated_Source\PSoC4/CapSense_1_CSHL.c **** 	{
 1188              		.loc 1 947 0
 1189              		.cfi_startproc
 1190 0000 80B5     		push	{r7, lr}
 1191              	.LCFI51:
 1192              		.cfi_def_cfa_offset 8
 1193              		.cfi_offset 7, -8
 1194              		.cfi_offset 14, -4
 1195 0002 82B0     		sub	sp, sp, #8
 1196              	.LCFI52:
 1197              		.cfi_def_cfa_offset 16
 1198 0004 00AF     		add	r7, sp, #0
 1199              	.LCFI53:
 1200              		.cfi_def_cfa_register 7
 1201 0006 7860     		str	r0, [r7, #4]
 1202 0008 0A1C     		mov	r2, r1
 1203 000a FB1C     		add	r3, r7, #3
 1204 000c 1A70     		strb	r2, [r3]
 948:.\Generated_Source\PSoC4/CapSense_1_CSHL.c **** 		CapSense_1_hysteresis[widget] = value;
 1205              		.loc 1 948 0
 1206 000e 044A     		ldr	r2, .L74
 1207 0010 7B68     		ldr	r3, [r7, #4]
ARM GAS  C:\Users\Jakob\AppData\Local\Temp\cc5GwTcI.s 			page 39


 1208 0012 D318     		add	r3, r2, r3
 1209 0014 FA1C     		add	r2, r7, #3
 1210 0016 1278     		ldrb	r2, [r2]
 1211 0018 1A70     		strb	r2, [r3]
 949:.\Generated_Source\PSoC4/CapSense_1_CSHL.c **** 	}
 1212              		.loc 1 949 0
 1213 001a BD46     		mov	sp, r7
 1214 001c 02B0     		add	sp, sp, #8
 1215              		@ sp needed for prologue
 1216 001e 80BD     		pop	{r7, pc}
 1217              	.L75:
 1218              		.align	2
 1219              	.L74:
 1220 0020 00000000 		.word	CapSense_1_hysteresis
 1221              		.cfi_endproc
 1222              	.LFE50:
 1223              		.size	CapSense_1_SetFingerHysteresis, .-CapSense_1_SetFingerHysteresis
 1224              		.section	.text.CapSense_1_SetNegativeNoiseThreshold,"ax",%progbits
 1225              		.align	2
 1226              		.global	CapSense_1_SetNegativeNoiseThreshold
 1227              		.code	16
 1228              		.thumb_func
 1229              		.type	CapSense_1_SetNegativeNoiseThreshold, %function
 1230              	CapSense_1_SetNegativeNoiseThreshold:
 1231              	.LFB51:
 950:.\Generated_Source\PSoC4/CapSense_1_CSHL.c **** 
 951:.\Generated_Source\PSoC4/CapSense_1_CSHL.c **** 
 952:.\Generated_Source\PSoC4/CapSense_1_CSHL.c **** 	/*******************************************************************************
 953:.\Generated_Source\PSoC4/CapSense_1_CSHL.c **** 	* Function Name: CapSense_1_SetNegativeNoiseThreshold
 954:.\Generated_Source\PSoC4/CapSense_1_CSHL.c **** 	********************************************************************************
 955:.\Generated_Source\PSoC4/CapSense_1_CSHL.c **** 	*
 956:.\Generated_Source\PSoC4/CapSense_1_CSHL.c **** 	* Summary:
 957:.\Generated_Source\PSoC4/CapSense_1_CSHL.c **** 	*  This API sets the Negative Noise Threshold value of a widget
 958:.\Generated_Source\PSoC4/CapSense_1_CSHL.c **** 	*
 959:.\Generated_Source\PSoC4/CapSense_1_CSHL.c **** 	* Parameters: 
 960:.\Generated_Source\PSoC4/CapSense_1_CSHL.c **** 	*  value:  Negative Noise Threshold value for widgets.
 961:.\Generated_Source\PSoC4/CapSense_1_CSHL.c **** 	*  widget: widget number
 962:.\Generated_Source\PSoC4/CapSense_1_CSHL.c **** 	*
 963:.\Generated_Source\PSoC4/CapSense_1_CSHL.c **** 	* Return Value: 
 964:.\Generated_Source\PSoC4/CapSense_1_CSHL.c **** 	*  None
 965:.\Generated_Source\PSoC4/CapSense_1_CSHL.c **** 	*
 966:.\Generated_Source\PSoC4/CapSense_1_CSHL.c **** 	* Global Variables:
 967:.\Generated_Source\PSoC4/CapSense_1_CSHL.c **** 	*  CapSense_1_negativeNoiseThreshold  - This parameter specifies the negative 
 968:.\Generated_Source\PSoC4/CapSense_1_CSHL.c **** 	*   difference between the raw count and baseline levels for Baseline resetting to 
 969:.\Generated_Source\PSoC4/CapSense_1_CSHL.c **** 	*   the raw count level.
 970:.\Generated_Source\PSoC4/CapSense_1_CSHL.c **** 	* 
 971:.\Generated_Source\PSoC4/CapSense_1_CSHL.c **** 	* Side Effects:
 972:.\Generated_Source\PSoC4/CapSense_1_CSHL.c **** 	*  None
 973:.\Generated_Source\PSoC4/CapSense_1_CSHL.c **** 	*
 974:.\Generated_Source\PSoC4/CapSense_1_CSHL.c **** 	*******************************************************************************/
 975:.\Generated_Source\PSoC4/CapSense_1_CSHL.c **** 	void CapSense_1_SetNegativeNoiseThreshold(uint32 widget, uint8 value)
 976:.\Generated_Source\PSoC4/CapSense_1_CSHL.c **** 	{
 1232              		.loc 1 976 0
 1233              		.cfi_startproc
 1234 0000 80B5     		push	{r7, lr}
 1235              	.LCFI54:
 1236              		.cfi_def_cfa_offset 8
ARM GAS  C:\Users\Jakob\AppData\Local\Temp\cc5GwTcI.s 			page 40


 1237              		.cfi_offset 7, -8
 1238              		.cfi_offset 14, -4
 1239 0002 82B0     		sub	sp, sp, #8
 1240              	.LCFI55:
 1241              		.cfi_def_cfa_offset 16
 1242 0004 00AF     		add	r7, sp, #0
 1243              	.LCFI56:
 1244              		.cfi_def_cfa_register 7
 1245 0006 7860     		str	r0, [r7, #4]
 1246 0008 0A1C     		mov	r2, r1
 1247 000a FB1C     		add	r3, r7, #3
 1248 000c 1A70     		strb	r2, [r3]
 977:.\Generated_Source\PSoC4/CapSense_1_CSHL.c **** 		CapSense_1_negativeNoiseThreshold[widget] = value;
 1249              		.loc 1 977 0
 1250 000e 044A     		ldr	r2, .L77
 1251 0010 7B68     		ldr	r3, [r7, #4]
 1252 0012 D318     		add	r3, r2, r3
 1253 0014 FA1C     		add	r2, r7, #3
 1254 0016 1278     		ldrb	r2, [r2]
 1255 0018 1A70     		strb	r2, [r3]
 978:.\Generated_Source\PSoC4/CapSense_1_CSHL.c **** 	}
 1256              		.loc 1 978 0
 1257 001a BD46     		mov	sp, r7
 1258 001c 02B0     		add	sp, sp, #8
 1259              		@ sp needed for prologue
 1260 001e 80BD     		pop	{r7, pc}
 1261              	.L78:
 1262              		.align	2
 1263              	.L77:
 1264 0020 00000000 		.word	CapSense_1_negativeNoiseThreshold
 1265              		.cfi_endproc
 1266              	.LFE51:
 1267              		.size	CapSense_1_SetNegativeNoiseThreshold, .-CapSense_1_SetNegativeNoiseThreshold
 1268              		.section	.text.CapSense_1_SetDebounce,"ax",%progbits
 1269              		.align	2
 1270              		.global	CapSense_1_SetDebounce
 1271              		.code	16
 1272              		.thumb_func
 1273              		.type	CapSense_1_SetDebounce, %function
 1274              	CapSense_1_SetDebounce:
 1275              	.LFB52:
 979:.\Generated_Source\PSoC4/CapSense_1_CSHL.c **** 
 980:.\Generated_Source\PSoC4/CapSense_1_CSHL.c **** 
 981:.\Generated_Source\PSoC4/CapSense_1_CSHL.c **** 	/*******************************************************************************
 982:.\Generated_Source\PSoC4/CapSense_1_CSHL.c **** 	* Function Name: CapSense_1_SetDebounce
 983:.\Generated_Source\PSoC4/CapSense_1_CSHL.c **** 	********************************************************************************
 984:.\Generated_Source\PSoC4/CapSense_1_CSHL.c **** 	*
 985:.\Generated_Source\PSoC4/CapSense_1_CSHL.c **** 	* Summary:
 986:.\Generated_Source\PSoC4/CapSense_1_CSHL.c **** 	*  This API sets the debounce value for a widget.
 987:.\Generated_Source\PSoC4/CapSense_1_CSHL.c **** 	*
 988:.\Generated_Source\PSoC4/CapSense_1_CSHL.c **** 	* Parameters: 
 989:.\Generated_Source\PSoC4/CapSense_1_CSHL.c **** 	*  value:  Debounce value for widget.
 990:.\Generated_Source\PSoC4/CapSense_1_CSHL.c **** 	*  widget: widget index.
 991:.\Generated_Source\PSoC4/CapSense_1_CSHL.c **** 	*
 992:.\Generated_Source\PSoC4/CapSense_1_CSHL.c **** 	* Return Value: 
 993:.\Generated_Source\PSoC4/CapSense_1_CSHL.c **** 	*  None
 994:.\Generated_Source\PSoC4/CapSense_1_CSHL.c **** 	*
ARM GAS  C:\Users\Jakob\AppData\Local\Temp\cc5GwTcI.s 			page 41


 995:.\Generated_Source\PSoC4/CapSense_1_CSHL.c **** 	* Global Variables:
 996:.\Generated_Source\PSoC4/CapSense_1_CSHL.c **** 	*  CapSense_1_debounce[] - This array contains the debounce value for each widget.
 997:.\Generated_Source\PSoC4/CapSense_1_CSHL.c **** 	*  CapSense_1_widgetNumberSld - structure with dynamic sliders' parameters.
 998:.\Generated_Source\PSoC4/CapSense_1_CSHL.c **** 	*
 999:.\Generated_Source\PSoC4/CapSense_1_CSHL.c **** 	* Side Effects:
1000:.\Generated_Source\PSoC4/CapSense_1_CSHL.c **** 	*  None
1001:.\Generated_Source\PSoC4/CapSense_1_CSHL.c **** 	*
1002:.\Generated_Source\PSoC4/CapSense_1_CSHL.c **** 	*******************************************************************************/
1003:.\Generated_Source\PSoC4/CapSense_1_CSHL.c **** 	void CapSense_1_SetDebounce(uint32 widget, uint8 value)
1004:.\Generated_Source\PSoC4/CapSense_1_CSHL.c **** 	{
 1276              		.loc 1 1004 0
 1277              		.cfi_startproc
 1278 0000 80B5     		push	{r7, lr}
 1279              	.LCFI57:
 1280              		.cfi_def_cfa_offset 8
 1281              		.cfi_offset 7, -8
 1282              		.cfi_offset 14, -4
 1283 0002 82B0     		sub	sp, sp, #8
 1284              	.LCFI58:
 1285              		.cfi_def_cfa_offset 16
 1286 0004 00AF     		add	r7, sp, #0
 1287              	.LCFI59:
 1288              		.cfi_def_cfa_register 7
 1289 0006 7860     		str	r0, [r7, #4]
 1290 0008 0A1C     		mov	r2, r1
 1291 000a FB1C     		add	r3, r7, #3
 1292 000c 1A70     		strb	r2, [r3]
1005:.\Generated_Source\PSoC4/CapSense_1_CSHL.c **** 		CapSense_1_debounce[widget] = value;
 1293              		.loc 1 1005 0
 1294 000e 044A     		ldr	r2, .L80
 1295 0010 7B68     		ldr	r3, [r7, #4]
 1296 0012 D318     		add	r3, r2, r3
 1297 0014 FA1C     		add	r2, r7, #3
 1298 0016 1278     		ldrb	r2, [r2]
 1299 0018 1A70     		strb	r2, [r3]
1006:.\Generated_Source\PSoC4/CapSense_1_CSHL.c **** 	}
 1300              		.loc 1 1006 0
 1301 001a BD46     		mov	sp, r7
 1302 001c 02B0     		add	sp, sp, #8
 1303              		@ sp needed for prologue
 1304 001e 80BD     		pop	{r7, pc}
 1305              	.L81:
 1306              		.align	2
 1307              	.L80:
 1308 0020 00000000 		.word	CapSense_1_debounce
 1309              		.cfi_endproc
 1310              	.LFE52:
 1311              		.size	CapSense_1_SetDebounce, .-CapSense_1_SetDebounce
 1312              		.section	.text.CapSense_1_SetLowBaselineReset,"ax",%progbits
 1313              		.align	2
 1314              		.global	CapSense_1_SetLowBaselineReset
 1315              		.code	16
 1316              		.thumb_func
 1317              		.type	CapSense_1_SetLowBaselineReset, %function
 1318              	CapSense_1_SetLowBaselineReset:
 1319              	.LFB53:
1007:.\Generated_Source\PSoC4/CapSense_1_CSHL.c **** 
ARM GAS  C:\Users\Jakob\AppData\Local\Temp\cc5GwTcI.s 			page 42


1008:.\Generated_Source\PSoC4/CapSense_1_CSHL.c **** 
1009:.\Generated_Source\PSoC4/CapSense_1_CSHL.c **** 	/*******************************************************************************
1010:.\Generated_Source\PSoC4/CapSense_1_CSHL.c **** 	* Function Name: CapSense_1_SetLowBaselineReset
1011:.\Generated_Source\PSoC4/CapSense_1_CSHL.c **** 	********************************************************************************
1012:.\Generated_Source\PSoC4/CapSense_1_CSHL.c **** 	*
1013:.\Generated_Source\PSoC4/CapSense_1_CSHL.c **** 	* Summary:
1014:.\Generated_Source\PSoC4/CapSense_1_CSHL.c **** 	*  This API sets the low baseline reset threshold value for the sensor.
1015:.\Generated_Source\PSoC4/CapSense_1_CSHL.c **** 	*
1016:.\Generated_Source\PSoC4/CapSense_1_CSHL.c **** 	* Parameters: 
1017:.\Generated_Source\PSoC4/CapSense_1_CSHL.c **** 	*  value: low baseline reset threshold value.
1018:.\Generated_Source\PSoC4/CapSense_1_CSHL.c **** 	*  sensor: Sensor index.
1019:.\Generated_Source\PSoC4/CapSense_1_CSHL.c **** 	*
1020:.\Generated_Source\PSoC4/CapSense_1_CSHL.c **** 	* Return Value: 
1021:.\Generated_Source\PSoC4/CapSense_1_CSHL.c **** 	*  None
1022:.\Generated_Source\PSoC4/CapSense_1_CSHL.c **** 	*
1023:.\Generated_Source\PSoC4/CapSense_1_CSHL.c **** 	* Global Variables:
1024:.\Generated_Source\PSoC4/CapSense_1_CSHL.c **** 	*  CapSense_1_lowBaselineReset[] - This array contains the Baseline update 
1025:.\Generated_Source\PSoC4/CapSense_1_CSHL.c **** 	*  threshold value for each sensor.
1026:.\Generated_Source\PSoC4/CapSense_1_CSHL.c **** 	* 
1027:.\Generated_Source\PSoC4/CapSense_1_CSHL.c **** 	* Side Effects:
1028:.\Generated_Source\PSoC4/CapSense_1_CSHL.c **** 	*  None
1029:.\Generated_Source\PSoC4/CapSense_1_CSHL.c **** 	*
1030:.\Generated_Source\PSoC4/CapSense_1_CSHL.c **** 	*******************************************************************************/
1031:.\Generated_Source\PSoC4/CapSense_1_CSHL.c **** 	void CapSense_1_SetLowBaselineReset(uint32 sensor, uint8 value)
1032:.\Generated_Source\PSoC4/CapSense_1_CSHL.c **** 	{
 1320              		.loc 1 1032 0
 1321              		.cfi_startproc
 1322 0000 80B5     		push	{r7, lr}
 1323              	.LCFI60:
 1324              		.cfi_def_cfa_offset 8
 1325              		.cfi_offset 7, -8
 1326              		.cfi_offset 14, -4
 1327 0002 82B0     		sub	sp, sp, #8
 1328              	.LCFI61:
 1329              		.cfi_def_cfa_offset 16
 1330 0004 00AF     		add	r7, sp, #0
 1331              	.LCFI62:
 1332              		.cfi_def_cfa_register 7
 1333 0006 7860     		str	r0, [r7, #4]
 1334 0008 0A1C     		mov	r2, r1
 1335 000a FB1C     		add	r3, r7, #3
 1336 000c 1A70     		strb	r2, [r3]
1033:.\Generated_Source\PSoC4/CapSense_1_CSHL.c **** 		CapSense_1_lowBaselineReset[sensor] = value;
 1337              		.loc 1 1033 0
 1338 000e 044A     		ldr	r2, .L83
 1339 0010 7B68     		ldr	r3, [r7, #4]
 1340 0012 D318     		add	r3, r2, r3
 1341 0014 FA1C     		add	r2, r7, #3
 1342 0016 1278     		ldrb	r2, [r2]
 1343 0018 1A70     		strb	r2, [r3]
1034:.\Generated_Source\PSoC4/CapSense_1_CSHL.c **** 	}
 1344              		.loc 1 1034 0
 1345 001a BD46     		mov	sp, r7
 1346 001c 02B0     		add	sp, sp, #8
 1347              		@ sp needed for prologue
 1348 001e 80BD     		pop	{r7, pc}
 1349              	.L84:
ARM GAS  C:\Users\Jakob\AppData\Local\Temp\cc5GwTcI.s 			page 43


 1350              		.align	2
 1351              	.L83:
 1352 0020 00000000 		.word	CapSense_1_lowBaselineReset
 1353              		.cfi_endproc
 1354              	.LFE53:
 1355              		.size	CapSense_1_SetLowBaselineReset, .-CapSense_1_SetLowBaselineReset
 1356              		.section	.text.CapSense_1_CheckIsSensorActive,"ax",%progbits
 1357              		.align	2
 1358              		.global	CapSense_1_CheckIsSensorActive
 1359              		.code	16
 1360              		.thumb_func
 1361              		.type	CapSense_1_CheckIsSensorActive, %function
 1362              	CapSense_1_CheckIsSensorActive:
 1363              	.LFB54:
1035:.\Generated_Source\PSoC4/CapSense_1_CSHL.c **** #endif /* (CapSense_1_TUNING_METHOD != CapSense_1__TUNING_NONE) */
1036:.\Generated_Source\PSoC4/CapSense_1_CSHL.c **** 
1037:.\Generated_Source\PSoC4/CapSense_1_CSHL.c **** 
1038:.\Generated_Source\PSoC4/CapSense_1_CSHL.c **** /*******************************************************************************
1039:.\Generated_Source\PSoC4/CapSense_1_CSHL.c **** * Function Name: CapSense_1_CheckIsSensorActive
1040:.\Generated_Source\PSoC4/CapSense_1_CSHL.c **** ********************************************************************************
1041:.\Generated_Source\PSoC4/CapSense_1_CSHL.c **** *
1042:.\Generated_Source\PSoC4/CapSense_1_CSHL.c **** * Summary:
1043:.\Generated_Source\PSoC4/CapSense_1_CSHL.c **** *  Compares the CapSense_1_sensorSignal[sensor] array element to the finger
1044:.\Generated_Source\PSoC4/CapSense_1_CSHL.c **** *  threshold of the widget it belongs to. The hysteresis and debounce are taken into 
1045:.\Generated_Source\PSoC4/CapSense_1_CSHL.c **** *  account. The hysteresis is added or subtracted from the finger threshold 
1046:.\Generated_Source\PSoC4/CapSense_1_CSHL.c **** *  based on whether the sensor is currently active. 
1047:.\Generated_Source\PSoC4/CapSense_1_CSHL.c **** *  If the sensor is active, the threshold is lowered by the hysteresis amount.
1048:.\Generated_Source\PSoC4/CapSense_1_CSHL.c **** *  If the sensor is inactive, the threshold is raised by the hysteresis amount.
1049:.\Generated_Source\PSoC4/CapSense_1_CSHL.c **** *  The debounce counter is added to the sensor active transition.
1050:.\Generated_Source\PSoC4/CapSense_1_CSHL.c **** *  This function updates the CapSense_1_sensorOnMask[] array element.
1051:.\Generated_Source\PSoC4/CapSense_1_CSHL.c **** *
1052:.\Generated_Source\PSoC4/CapSense_1_CSHL.c **** * Parameters:
1053:.\Generated_Source\PSoC4/CapSense_1_CSHL.c **** *  sensor:  Sensor number.
1054:.\Generated_Source\PSoC4/CapSense_1_CSHL.c **** *
1055:.\Generated_Source\PSoC4/CapSense_1_CSHL.c **** * Return:
1056:.\Generated_Source\PSoC4/CapSense_1_CSHL.c **** *  Returns sensor state 1 if active, 0 if not active.
1057:.\Generated_Source\PSoC4/CapSense_1_CSHL.c **** *
1058:.\Generated_Source\PSoC4/CapSense_1_CSHL.c **** * Global Variables:
1059:.\Generated_Source\PSoC4/CapSense_1_CSHL.c **** *  CapSense_1_sensorSignal[] - used to store the difference between 
1060:.\Generated_Source\PSoC4/CapSense_1_CSHL.c **** *  the current value of raw data and a previous value of the baseline.
1061:.\Generated_Source\PSoC4/CapSense_1_CSHL.c **** *  CapSense_1_debounceCounter[]   - used to store the current debounce 
1062:.\Generated_Source\PSoC4/CapSense_1_CSHL.c **** *  counter of the sensor. the widget which have this parameter are buttons, matrix 
1063:.\Generated_Source\PSoC4/CapSense_1_CSHL.c **** *  buttons, proximity, and guard. All other widgets don't have the  debounce parameter
1064:.\Generated_Source\PSoC4/CapSense_1_CSHL.c **** *  and use the last element of this array with value 0 (it means no debounce).
1065:.\Generated_Source\PSoC4/CapSense_1_CSHL.c **** *  CapSense_1_sensorOnMask[] - used to store the sensors on/off state.
1066:.\Generated_Source\PSoC4/CapSense_1_CSHL.c **** *  CapSense_1_sensorOnMask[0] contains the masked bits for sensors 
1067:.\Generated_Source\PSoC4/CapSense_1_CSHL.c **** *   0 through 7 (sensor 0 is bit 0, sensor 1 is bit 1).
1068:.\Generated_Source\PSoC4/CapSense_1_CSHL.c **** *  CapSense_1_sensorEnableMask[1] contains the masked bits for 
1069:.\Generated_Source\PSoC4/CapSense_1_CSHL.c **** *  sensors 8 through 15 (if needed), and so on.
1070:.\Generated_Source\PSoC4/CapSense_1_CSHL.c **** *  0 - sensor is inactive.
1071:.\Generated_Source\PSoC4/CapSense_1_CSHL.c **** *  1 - sensor is active.
1072:.\Generated_Source\PSoC4/CapSense_1_CSHL.c **** * 
1073:.\Generated_Source\PSoC4/CapSense_1_CSHL.c **** * Side Effects:
1074:.\Generated_Source\PSoC4/CapSense_1_CSHL.c **** *  None
1075:.\Generated_Source\PSoC4/CapSense_1_CSHL.c **** *
1076:.\Generated_Source\PSoC4/CapSense_1_CSHL.c **** *******************************************************************************/
1077:.\Generated_Source\PSoC4/CapSense_1_CSHL.c **** uint32 CapSense_1_CheckIsSensorActive(uint32 sensor)
ARM GAS  C:\Users\Jakob\AppData\Local\Temp\cc5GwTcI.s 			page 44


1078:.\Generated_Source\PSoC4/CapSense_1_CSHL.c **** {	
 1364              		.loc 1 1078 0
 1365              		.cfi_startproc
 1366 0000 80B5     		push	{r7, lr}
 1367              	.LCFI63:
 1368              		.cfi_def_cfa_offset 8
 1369              		.cfi_offset 7, -8
 1370              		.cfi_offset 14, -4
 1371 0002 84B0     		sub	sp, sp, #16
 1372              	.LCFI64:
 1373              		.cfi_def_cfa_offset 24
 1374 0004 00AF     		add	r7, sp, #0
 1375              	.LCFI65:
 1376              		.cfi_def_cfa_register 7
 1377 0006 7860     		str	r0, [r7, #4]
1079:.\Generated_Source\PSoC4/CapSense_1_CSHL.c **** 	uint8 widget;
1080:.\Generated_Source\PSoC4/CapSense_1_CSHL.c **** 	uint8 debounce;
1081:.\Generated_Source\PSoC4/CapSense_1_CSHL.c **** 	uint8 debounceIndex;
1082:.\Generated_Source\PSoC4/CapSense_1_CSHL.c ****     
1083:.\Generated_Source\PSoC4/CapSense_1_CSHL.c **** 	uint8 fingerThreshold;
1084:.\Generated_Source\PSoC4/CapSense_1_CSHL.c **** 	uint8 hysteresis;
1085:.\Generated_Source\PSoC4/CapSense_1_CSHL.c **** 	
1086:.\Generated_Source\PSoC4/CapSense_1_CSHL.c ****     /* Prepare to find debounce counter index */
1087:.\Generated_Source\PSoC4/CapSense_1_CSHL.c ****     widget = CapSense_1_widgetNumber[sensor];
 1378              		.loc 1 1087 0
 1379 0008 3B1C     		mov	r3, r7
 1380 000a 0F33     		add	r3, r3, #15
 1381 000c 4349     		ldr	r1, .L92
 1382 000e 7A68     		ldr	r2, [r7, #4]
 1383 0010 8A18     		add	r2, r1, r2
 1384 0012 1278     		ldrb	r2, [r2]
 1385 0014 1A70     		strb	r2, [r3]
1088:.\Generated_Source\PSoC4/CapSense_1_CSHL.c **** 	
1089:.\Generated_Source\PSoC4/CapSense_1_CSHL.c ****     fingerThreshold = CapSense_1_fingerThreshold[widget];
 1386              		.loc 1 1089 0
 1387 0016 3B1C     		mov	r3, r7
 1388 0018 0F33     		add	r3, r3, #15
 1389 001a 1A78     		ldrb	r2, [r3]
 1390 001c 3B1C     		mov	r3, r7
 1391 001e 0E33     		add	r3, r3, #14
 1392 0020 3F49     		ldr	r1, .L92+4
 1393 0022 8A5C     		ldrb	r2, [r1, r2]
 1394 0024 1A70     		strb	r2, [r3]
1090:.\Generated_Source\PSoC4/CapSense_1_CSHL.c **** 	hysteresis = CapSense_1_hysteresis[widget];
 1395              		.loc 1 1090 0
 1396 0026 3B1C     		mov	r3, r7
 1397 0028 0F33     		add	r3, r3, #15
 1398 002a 1A78     		ldrb	r2, [r3]
 1399 002c 3B1C     		mov	r3, r7
 1400 002e 0D33     		add	r3, r3, #13
 1401 0030 3C49     		ldr	r1, .L92+8
 1402 0032 8A5C     		ldrb	r2, [r1, r2]
 1403 0034 1A70     		strb	r2, [r3]
1091:.\Generated_Source\PSoC4/CapSense_1_CSHL.c **** 	debounce = CapSense_1_debounce[widget];	
 1404              		.loc 1 1091 0
 1405 0036 3B1C     		mov	r3, r7
 1406 0038 0F33     		add	r3, r3, #15
ARM GAS  C:\Users\Jakob\AppData\Local\Temp\cc5GwTcI.s 			page 45


 1407 003a 1A78     		ldrb	r2, [r3]
 1408 003c 3B1C     		mov	r3, r7
 1409 003e 0C33     		add	r3, r3, #12
 1410 0040 3949     		ldr	r1, .L92+12
 1411 0042 8A5C     		ldrb	r2, [r1, r2]
 1412 0044 1A70     		strb	r2, [r3]
1092:.\Generated_Source\PSoC4/CapSense_1_CSHL.c **** 	
1093:.\Generated_Source\PSoC4/CapSense_1_CSHL.c **** 	    debounceIndex = widget;
 1413              		.loc 1 1093 0
 1414 0046 3B1C     		mov	r3, r7
 1415 0048 0B33     		add	r3, r3, #11
 1416 004a 3A1C     		mov	r2, r7
 1417 004c 0F32     		add	r2, r2, #15
 1418 004e 1278     		ldrb	r2, [r2]
 1419 0050 1A70     		strb	r2, [r3]
1094:.\Generated_Source\PSoC4/CapSense_1_CSHL.c **** 
1095:.\Generated_Source\PSoC4/CapSense_1_CSHL.c **** 	
1096:.\Generated_Source\PSoC4/CapSense_1_CSHL.c ****     /* Was on */
1097:.\Generated_Source\PSoC4/CapSense_1_CSHL.c ****     if (0u != CapSense_1_GetBitValue(CapSense_1_sensorOnMask, sensor))
 1420              		.loc 1 1097 0
 1421 0052 364A     		ldr	r2, .L92+16
 1422 0054 7B68     		ldr	r3, [r7, #4]
 1423 0056 101C     		mov	r0, r2
 1424 0058 191C     		mov	r1, r3
 1425 005a FFF7FEFF 		bl	CapSense_1_GetBitValue
 1426 005e 031C     		mov	r3, r0
 1427 0060 002B     		cmp	r3, #0
 1428 0062 1DD0     		beq	.L86
1098:.\Generated_Source\PSoC4/CapSense_1_CSHL.c ****     {
1099:.\Generated_Source\PSoC4/CapSense_1_CSHL.c ****         /* Hysteresis minus */
1100:.\Generated_Source\PSoC4/CapSense_1_CSHL.c ****         if (CapSense_1_sensorSignal[sensor] < (fingerThreshold - hysteresis))
 1429              		.loc 1 1100 0
 1430 0064 324A     		ldr	r2, .L92+20
 1431 0066 7B68     		ldr	r3, [r7, #4]
 1432 0068 D318     		add	r3, r2, r3
 1433 006a 1B78     		ldrb	r3, [r3]
 1434 006c 1A1C     		mov	r2, r3
 1435 006e 3B1C     		mov	r3, r7
 1436 0070 0E33     		add	r3, r3, #14
 1437 0072 1978     		ldrb	r1, [r3]
 1438 0074 3B1C     		mov	r3, r7
 1439 0076 0D33     		add	r3, r3, #13
 1440 0078 1B78     		ldrb	r3, [r3]
 1441 007a CB1A     		sub	r3, r1, r3
 1442 007c 9A42     		cmp	r2, r3
 1443 007e 3DDA     		bge	.L87
1101:.\Generated_Source\PSoC4/CapSense_1_CSHL.c ****         {
1102:.\Generated_Source\PSoC4/CapSense_1_CSHL.c **** 	   		CapSense_1_SetBitValue(CapSense_1_sensorOnMask, sensor, 0u);
 1444              		.loc 1 1102 0
 1445 0080 2A4A     		ldr	r2, .L92+16
 1446 0082 7B68     		ldr	r3, [r7, #4]
 1447 0084 101C     		mov	r0, r2
 1448 0086 191C     		mov	r1, r3
 1449 0088 0022     		mov	r2, #0
 1450 008a FFF7FEFF 		bl	CapSense_1_SetBitValue
1103:.\Generated_Source\PSoC4/CapSense_1_CSHL.c **** 			/* Sensor inactive - reset Debounce counter */
1104:.\Generated_Source\PSoC4/CapSense_1_CSHL.c ****             CapSense_1_debounceCounter[debounceIndex] = debounce;
ARM GAS  C:\Users\Jakob\AppData\Local\Temp\cc5GwTcI.s 			page 46


 1451              		.loc 1 1104 0
 1452 008e 3B1C     		mov	r3, r7
 1453 0090 0B33     		add	r3, r3, #11
 1454 0092 1B78     		ldrb	r3, [r3]
 1455 0094 274A     		ldr	r2, .L92+24
 1456 0096 391C     		mov	r1, r7
 1457 0098 0C31     		add	r1, r1, #12
 1458 009a 0978     		ldrb	r1, [r1]
 1459 009c D154     		strb	r1, [r2, r3]
 1460 009e 2DE0     		b	.L87
 1461              	.L86:
1105:.\Generated_Source\PSoC4/CapSense_1_CSHL.c ****         }
1106:.\Generated_Source\PSoC4/CapSense_1_CSHL.c ****     }
1107:.\Generated_Source\PSoC4/CapSense_1_CSHL.c ****     else    /* Was off */
1108:.\Generated_Source\PSoC4/CapSense_1_CSHL.c ****     {
1109:.\Generated_Source\PSoC4/CapSense_1_CSHL.c ****         /* Hysteresis plus */
1110:.\Generated_Source\PSoC4/CapSense_1_CSHL.c ****         if (CapSense_1_sensorSignal[sensor] >= (fingerThreshold + hysteresis))
 1462              		.loc 1 1110 0
 1463 00a0 234A     		ldr	r2, .L92+20
 1464 00a2 7B68     		ldr	r3, [r7, #4]
 1465 00a4 D318     		add	r3, r2, r3
 1466 00a6 1B78     		ldrb	r3, [r3]
 1467 00a8 1A1C     		mov	r2, r3
 1468 00aa 3B1C     		mov	r3, r7
 1469 00ac 0E33     		add	r3, r3, #14
 1470 00ae 1978     		ldrb	r1, [r3]
 1471 00b0 3B1C     		mov	r3, r7
 1472 00b2 0D33     		add	r3, r3, #13
 1473 00b4 1B78     		ldrb	r3, [r3]
 1474 00b6 CB18     		add	r3, r1, r3
 1475 00b8 9A42     		cmp	r2, r3
 1476 00ba 17DB     		blt	.L88
1111:.\Generated_Source\PSoC4/CapSense_1_CSHL.c ****         {
1112:.\Generated_Source\PSoC4/CapSense_1_CSHL.c **** 			CapSense_1_debounceCounter[debounceIndex]--;
 1477              		.loc 1 1112 0
 1478 00bc 3B1C     		mov	r3, r7
 1479 00be 0B33     		add	r3, r3, #11
 1480 00c0 1B78     		ldrb	r3, [r3]
 1481 00c2 1C4A     		ldr	r2, .L92+24
 1482 00c4 D25C     		ldrb	r2, [r2, r3]
 1483 00c6 013A     		sub	r2, r2, #1
 1484 00c8 D1B2     		uxtb	r1, r2
 1485 00ca 1A4A     		ldr	r2, .L92+24
 1486 00cc D154     		strb	r1, [r2, r3]
1113:.\Generated_Source\PSoC4/CapSense_1_CSHL.c ****             /* Sensor active, decrement debounce counter */
1114:.\Generated_Source\PSoC4/CapSense_1_CSHL.c ****             if(CapSense_1_debounceCounter[debounceIndex] == 0u)
 1487              		.loc 1 1114 0
 1488 00ce 3B1C     		mov	r3, r7
 1489 00d0 0B33     		add	r3, r3, #11
 1490 00d2 1B78     		ldrb	r3, [r3]
 1491 00d4 174A     		ldr	r2, .L92+24
 1492 00d6 D35C     		ldrb	r3, [r2, r3]
 1493 00d8 002B     		cmp	r3, #0
 1494 00da 0FD1     		bne	.L87
1115:.\Generated_Source\PSoC4/CapSense_1_CSHL.c ****             {
1116:.\Generated_Source\PSoC4/CapSense_1_CSHL.c ****                 CapSense_1_SetBitValue(CapSense_1_sensorOnMask, sensor, 1u); 
 1495              		.loc 1 1116 0
ARM GAS  C:\Users\Jakob\AppData\Local\Temp\cc5GwTcI.s 			page 47


 1496 00dc 134A     		ldr	r2, .L92+16
 1497 00de 7B68     		ldr	r3, [r7, #4]
 1498 00e0 101C     		mov	r0, r2
 1499 00e2 191C     		mov	r1, r3
 1500 00e4 0122     		mov	r2, #1
 1501 00e6 FFF7FEFF 		bl	CapSense_1_SetBitValue
 1502 00ea 07E0     		b	.L87
 1503              	.L88:
1117:.\Generated_Source\PSoC4/CapSense_1_CSHL.c ****             }
1118:.\Generated_Source\PSoC4/CapSense_1_CSHL.c ****         }
1119:.\Generated_Source\PSoC4/CapSense_1_CSHL.c ****         else
1120:.\Generated_Source\PSoC4/CapSense_1_CSHL.c ****         {
1121:.\Generated_Source\PSoC4/CapSense_1_CSHL.c ****             /* Sensor inactive - reset Debounce counter */
1122:.\Generated_Source\PSoC4/CapSense_1_CSHL.c ****             CapSense_1_debounceCounter[debounceIndex] = debounce;
 1504              		.loc 1 1122 0
 1505 00ec 3B1C     		mov	r3, r7
 1506 00ee 0B33     		add	r3, r3, #11
 1507 00f0 1B78     		ldrb	r3, [r3]
 1508 00f2 104A     		ldr	r2, .L92+24
 1509 00f4 391C     		mov	r1, r7
 1510 00f6 0C31     		add	r1, r1, #12
 1511 00f8 0978     		ldrb	r1, [r1]
 1512 00fa D154     		strb	r1, [r2, r3]
 1513              	.L87:
1123:.\Generated_Source\PSoC4/CapSense_1_CSHL.c ****         }
1124:.\Generated_Source\PSoC4/CapSense_1_CSHL.c ****     }
1125:.\Generated_Source\PSoC4/CapSense_1_CSHL.c ****     
1126:.\Generated_Source\PSoC4/CapSense_1_CSHL.c ****     return ((uint32)((0u != CapSense_1_GetBitValue(CapSense_1_sensorOnMask, sensor)) ? 1u : 0u));
 1514              		.loc 1 1126 0
 1515 00fc 0B4A     		ldr	r2, .L92+16
 1516 00fe 7B68     		ldr	r3, [r7, #4]
 1517 0100 101C     		mov	r0, r2
 1518 0102 191C     		mov	r1, r3
 1519 0104 FFF7FEFF 		bl	CapSense_1_GetBitValue
 1520 0108 031C     		mov	r3, r0
 1521 010a 002B     		cmp	r3, #0
 1522 010c 01D0     		beq	.L89
 1523              		.loc 1 1126 0 is_stmt 0 discriminator 1
 1524 010e 0123     		mov	r3, #1
 1525 0110 00E0     		b	.L90
 1526              	.L89:
 1527              		.loc 1 1126 0 discriminator 2
 1528 0112 0023     		mov	r3, #0
 1529              	.L90:
1127:.\Generated_Source\PSoC4/CapSense_1_CSHL.c **** }
 1530              		.loc 1 1127 0 is_stmt 1 discriminator 3
 1531 0114 181C     		mov	r0, r3
 1532 0116 BD46     		mov	sp, r7
 1533 0118 04B0     		add	sp, sp, #16
 1534              		@ sp needed for prologue
 1535 011a 80BD     		pop	{r7, pc}
 1536              	.L93:
 1537              		.align	2
 1538              	.L92:
 1539 011c 00000000 		.word	CapSense_1_widgetNumber
 1540 0120 00000000 		.word	CapSense_1_fingerThreshold
 1541 0124 00000000 		.word	CapSense_1_hysteresis
ARM GAS  C:\Users\Jakob\AppData\Local\Temp\cc5GwTcI.s 			page 48


 1542 0128 00000000 		.word	CapSense_1_debounce
 1543 012c 00000000 		.word	CapSense_1_sensorOnMask
 1544 0130 00000000 		.word	CapSense_1_sensorSignal
 1545 0134 10000000 		.word	CapSense_1_debounceCounter
 1546              		.cfi_endproc
 1547              	.LFE54:
 1548              		.size	CapSense_1_CheckIsSensorActive, .-CapSense_1_CheckIsSensorActive
 1549              		.section	.text.CapSense_1_CheckIsWidgetActive,"ax",%progbits
 1550              		.align	2
 1551              		.global	CapSense_1_CheckIsWidgetActive
 1552              		.code	16
 1553              		.thumb_func
 1554              		.type	CapSense_1_CheckIsWidgetActive, %function
 1555              	CapSense_1_CheckIsWidgetActive:
 1556              	.LFB55:
1128:.\Generated_Source\PSoC4/CapSense_1_CSHL.c **** 
1129:.\Generated_Source\PSoC4/CapSense_1_CSHL.c **** 
1130:.\Generated_Source\PSoC4/CapSense_1_CSHL.c **** /*******************************************************************************
1131:.\Generated_Source\PSoC4/CapSense_1_CSHL.c **** * Function Name: CapSense_1_CheckIsWidgetActive
1132:.\Generated_Source\PSoC4/CapSense_1_CSHL.c **** ********************************************************************************
1133:.\Generated_Source\PSoC4/CapSense_1_CSHL.c **** *
1134:.\Generated_Source\PSoC4/CapSense_1_CSHL.c **** * Summary:
1135:.\Generated_Source\PSoC4/CapSense_1_CSHL.c **** *  Compares the CapSense_sensorSignal[] array element to the finger threshold of 
1136:.\Generated_Source\PSoC4/CapSense_1_CSHL.c **** * the widget it belongs to. The hysteresis and debounce are taken into account. 
1137:.\Generated_Source\PSoC4/CapSense_1_CSHL.c **** * The hysteresis is added or subtracted from the finger threshold based on whether
1138:.\Generated_Source\PSoC4/CapSense_1_CSHL.c **** *  the sensor is currently active. If the sensor is active, the threshold is 
1139:.\Generated_Source\PSoC4/CapSense_1_CSHL.c **** *  lowered by the hysteresis amount. If the sensor is inactive, the threshold 
1140:.\Generated_Source\PSoC4/CapSense_1_CSHL.c **** *  is raised by the hysteresis amount. 
1141:.\Generated_Source\PSoC4/CapSense_1_CSHL.c **** * The debounce counter added to the sensor active transition. 
1142:.\Generated_Source\PSoC4/CapSense_1_CSHL.c **** * This function updates CapSense_sensorOnMask[] array element
1143:.\Generated_Source\PSoC4/CapSense_1_CSHL.c **** *
1144:.\Generated_Source\PSoC4/CapSense_1_CSHL.c **** * Parameters:
1145:.\Generated_Source\PSoC4/CapSense_1_CSHL.c **** *  widget:  widget number.
1146:.\Generated_Source\PSoC4/CapSense_1_CSHL.c **** *
1147:.\Generated_Source\PSoC4/CapSense_1_CSHL.c **** * Return:
1148:.\Generated_Source\PSoC4/CapSense_1_CSHL.c **** *  Returns widget sensor state 1 if one or more sensors within widget is/are 
1149:.\Generated_Source\PSoC4/CapSense_1_CSHL.c **** *  active, 0 if all sensors within widget are inactive.
1150:.\Generated_Source\PSoC4/CapSense_1_CSHL.c **** *
1151:.\Generated_Source\PSoC4/CapSense_1_CSHL.c **** * Global Variables:
1152:.\Generated_Source\PSoC4/CapSense_1_CSHL.c **** *  rawDataIndex[]  Contains the  1st sensor position in the widget
1153:.\Generated_Source\PSoC4/CapSense_1_CSHL.c **** * 
1154:.\Generated_Source\PSoC4/CapSense_1_CSHL.c **** * Side Effects:
1155:.\Generated_Source\PSoC4/CapSense_1_CSHL.c **** *  None
1156:.\Generated_Source\PSoC4/CapSense_1_CSHL.c **** *
1157:.\Generated_Source\PSoC4/CapSense_1_CSHL.c **** *******************************************************************************/
1158:.\Generated_Source\PSoC4/CapSense_1_CSHL.c **** uint32 CapSense_1_CheckIsWidgetActive(uint32 widget)
1159:.\Generated_Source\PSoC4/CapSense_1_CSHL.c **** {
 1557              		.loc 1 1159 0
 1558              		.cfi_startproc
 1559 0000 80B5     		push	{r7, lr}
 1560              	.LCFI66:
 1561              		.cfi_def_cfa_offset 8
 1562              		.cfi_offset 7, -8
 1563              		.cfi_offset 14, -4
 1564 0002 86B0     		sub	sp, sp, #24
 1565              	.LCFI67:
 1566              		.cfi_def_cfa_offset 32
ARM GAS  C:\Users\Jakob\AppData\Local\Temp\cc5GwTcI.s 			page 49


 1567 0004 00AF     		add	r7, sp, #0
 1568              	.LCFI68:
 1569              		.cfi_def_cfa_register 7
 1570 0006 7860     		str	r0, [r7, #4]
1160:.\Generated_Source\PSoC4/CapSense_1_CSHL.c ****     uint32 rawIndex = (uint32)CapSense_1_rawDataIndex[widget];
 1571              		.loc 1 1160 0
 1572 0008 114A     		ldr	r2, .L98
 1573 000a 7B68     		ldr	r3, [r7, #4]
 1574 000c D318     		add	r3, r2, r3
 1575 000e 1B78     		ldrb	r3, [r3]
 1576 0010 7B61     		str	r3, [r7, #20]
1161:.\Generated_Source\PSoC4/CapSense_1_CSHL.c ****     uint32 numOfSensors = (uint32)CapSense_1_numberOfSensors[widget] + rawIndex;
 1577              		.loc 1 1161 0
 1578 0012 104A     		ldr	r2, .L98+4
 1579 0014 7B68     		ldr	r3, [r7, #4]
 1580 0016 D318     		add	r3, r2, r3
 1581 0018 1B78     		ldrb	r3, [r3]
 1582 001a 1A1C     		mov	r2, r3
 1583 001c 7B69     		ldr	r3, [r7, #20]
 1584 001e D318     		add	r3, r2, r3
 1585 0020 FB60     		str	r3, [r7, #12]
1162:.\Generated_Source\PSoC4/CapSense_1_CSHL.c ****     uint32 state = 0u;
 1586              		.loc 1 1162 0
 1587 0022 0023     		mov	r3, #0
 1588 0024 3B61     		str	r3, [r7, #16]
 1589              	.L96:
1163:.\Generated_Source\PSoC4/CapSense_1_CSHL.c **** 
1164:.\Generated_Source\PSoC4/CapSense_1_CSHL.c ****     /* Check all sensors of widget */
1165:.\Generated_Source\PSoC4/CapSense_1_CSHL.c ****     do
1166:.\Generated_Source\PSoC4/CapSense_1_CSHL.c ****     {
1167:.\Generated_Source\PSoC4/CapSense_1_CSHL.c ****         if(CapSense_1_CheckIsSensorActive((uint32)rawIndex) != 0u)
 1590              		.loc 1 1167 0
 1591 0026 7B69     		ldr	r3, [r7, #20]
 1592 0028 181C     		mov	r0, r3
 1593 002a FFF7FEFF 		bl	CapSense_1_CheckIsSensorActive
 1594 002e 031C     		mov	r3, r0
 1595 0030 002B     		cmp	r3, #0
 1596 0032 01D0     		beq	.L95
1168:.\Generated_Source\PSoC4/CapSense_1_CSHL.c ****         {
1169:.\Generated_Source\PSoC4/CapSense_1_CSHL.c ****             state = CapSense_1_SENSOR_IS_ACTIVE;
 1597              		.loc 1 1169 0
 1598 0034 0123     		mov	r3, #1
 1599 0036 3B61     		str	r3, [r7, #16]
 1600              	.L95:
1170:.\Generated_Source\PSoC4/CapSense_1_CSHL.c ****         }
1171:.\Generated_Source\PSoC4/CapSense_1_CSHL.c ****         rawIndex++;
 1601              		.loc 1 1171 0
 1602 0038 7B69     		ldr	r3, [r7, #20]
 1603 003a 0133     		add	r3, r3, #1
 1604 003c 7B61     		str	r3, [r7, #20]
1172:.\Generated_Source\PSoC4/CapSense_1_CSHL.c ****     }
1173:.\Generated_Source\PSoC4/CapSense_1_CSHL.c ****     while(rawIndex < numOfSensors);
 1605              		.loc 1 1173 0
 1606 003e 7A69     		ldr	r2, [r7, #20]
 1607 0040 FB68     		ldr	r3, [r7, #12]
 1608 0042 9A42     		cmp	r2, r3
 1609 0044 EFD3     		bcc	.L96
ARM GAS  C:\Users\Jakob\AppData\Local\Temp\cc5GwTcI.s 			page 50


1174:.\Generated_Source\PSoC4/CapSense_1_CSHL.c ****     
1175:.\Generated_Source\PSoC4/CapSense_1_CSHL.c **** 
1176:.\Generated_Source\PSoC4/CapSense_1_CSHL.c ****     
1177:.\Generated_Source\PSoC4/CapSense_1_CSHL.c ****     return state;
 1610              		.loc 1 1177 0
 1611 0046 3B69     		ldr	r3, [r7, #16]
1178:.\Generated_Source\PSoC4/CapSense_1_CSHL.c **** }
 1612              		.loc 1 1178 0
 1613 0048 181C     		mov	r0, r3
 1614 004a BD46     		mov	sp, r7
 1615 004c 06B0     		add	sp, sp, #24
 1616              		@ sp needed for prologue
 1617 004e 80BD     		pop	{r7, pc}
 1618              	.L99:
 1619              		.align	2
 1620              	.L98:
 1621 0050 00000000 		.word	CapSense_1_rawDataIndex
 1622 0054 00000000 		.word	CapSense_1_numberOfSensors
 1623              		.cfi_endproc
 1624              	.LFE55:
 1625              		.size	CapSense_1_CheckIsWidgetActive, .-CapSense_1_CheckIsWidgetActive
 1626              		.section	.text.CapSense_1_CheckIsAnyWidgetActive,"ax",%progbits
 1627              		.align	2
 1628              		.global	CapSense_1_CheckIsAnyWidgetActive
 1629              		.code	16
 1630              		.thumb_func
 1631              		.type	CapSense_1_CheckIsAnyWidgetActive, %function
 1632              	CapSense_1_CheckIsAnyWidgetActive:
 1633              	.LFB56:
1179:.\Generated_Source\PSoC4/CapSense_1_CSHL.c **** 
1180:.\Generated_Source\PSoC4/CapSense_1_CSHL.c **** 
1181:.\Generated_Source\PSoC4/CapSense_1_CSHL.c **** /*******************************************************************************
1182:.\Generated_Source\PSoC4/CapSense_1_CSHL.c **** * Function Name: CapSense_1_CheckIsAnyWidgetActive
1183:.\Generated_Source\PSoC4/CapSense_1_CSHL.c **** ********************************************************************************
1184:.\Generated_Source\PSoC4/CapSense_1_CSHL.c **** *
1185:.\Generated_Source\PSoC4/CapSense_1_CSHL.c **** * Summary:
1186:.\Generated_Source\PSoC4/CapSense_1_CSHL.c **** *  Compares all the sensors of the CapSense_1_Signal[] array to their finger 
1187:.\Generated_Source\PSoC4/CapSense_1_CSHL.c **** *  threshold. Calls CapSense_1_CheckIsWidgetActive() for each widget so 
1188:.\Generated_Source\PSoC4/CapSense_1_CSHL.c **** *  the CapSense_1_sensorOnMask[] array is up to date after calling this 
1189:.\Generated_Source\PSoC4/CapSense_1_CSHL.c **** *  function.
1190:.\Generated_Source\PSoC4/CapSense_1_CSHL.c **** *
1191:.\Generated_Source\PSoC4/CapSense_1_CSHL.c **** * Parameters:
1192:.\Generated_Source\PSoC4/CapSense_1_CSHL.c **** *  widget:  widget number.
1193:.\Generated_Source\PSoC4/CapSense_1_CSHL.c **** *
1194:.\Generated_Source\PSoC4/CapSense_1_CSHL.c **** * Return:
1195:.\Generated_Source\PSoC4/CapSense_1_CSHL.c **** *  Returns 1 if any widget is active, 0 none of widgets are active.
1196:.\Generated_Source\PSoC4/CapSense_1_CSHL.c **** *
1197:.\Generated_Source\PSoC4/CapSense_1_CSHL.c **** * Global Variables:
1198:.\Generated_Source\PSoC4/CapSense_1_CSHL.c **** *  None
1199:.\Generated_Source\PSoC4/CapSense_1_CSHL.c **** * 
1200:.\Generated_Source\PSoC4/CapSense_1_CSHL.c **** * Side Effects:
1201:.\Generated_Source\PSoC4/CapSense_1_CSHL.c **** *  None
1202:.\Generated_Source\PSoC4/CapSense_1_CSHL.c **** *
1203:.\Generated_Source\PSoC4/CapSense_1_CSHL.c **** *******************************************************************************/
1204:.\Generated_Source\PSoC4/CapSense_1_CSHL.c **** uint32 CapSense_1_CheckIsAnyWidgetActive(void)
1205:.\Generated_Source\PSoC4/CapSense_1_CSHL.c **** {
 1634              		.loc 1 1205 0
ARM GAS  C:\Users\Jakob\AppData\Local\Temp\cc5GwTcI.s 			page 51


 1635              		.cfi_startproc
 1636 0000 80B5     		push	{r7, lr}
 1637              	.LCFI69:
 1638              		.cfi_def_cfa_offset 8
 1639              		.cfi_offset 7, -8
 1640              		.cfi_offset 14, -4
 1641 0002 82B0     		sub	sp, sp, #8
 1642              	.LCFI70:
 1643              		.cfi_def_cfa_offset 16
 1644 0004 00AF     		add	r7, sp, #0
 1645              	.LCFI71:
 1646              		.cfi_def_cfa_register 7
1206:.\Generated_Source\PSoC4/CapSense_1_CSHL.c **** 
1207:.\Generated_Source\PSoC4/CapSense_1_CSHL.c **** 	    uint32 i;
1208:.\Generated_Source\PSoC4/CapSense_1_CSHL.c ****     uint32 state = 0u;
 1647              		.loc 1 1208 0
 1648 0006 0023     		mov	r3, #0
 1649 0008 3B60     		str	r3, [r7]
1209:.\Generated_Source\PSoC4/CapSense_1_CSHL.c ****     
1210:.\Generated_Source\PSoC4/CapSense_1_CSHL.c ****     for(i = 0u; i < CapSense_1_TOTAL_WIDGET_COUNT; i++)
 1650              		.loc 1 1210 0
 1651 000a 0023     		mov	r3, #0
 1652 000c 7B60     		str	r3, [r7, #4]
 1653 000e 0BE0     		b	.L101
 1654              	.L103:
1211:.\Generated_Source\PSoC4/CapSense_1_CSHL.c ****     {
1212:.\Generated_Source\PSoC4/CapSense_1_CSHL.c ****         if (CapSense_1_CheckIsWidgetActive(i) != 0u)
 1655              		.loc 1 1212 0
 1656 0010 7B68     		ldr	r3, [r7, #4]
 1657 0012 181C     		mov	r0, r3
 1658 0014 FFF7FEFF 		bl	CapSense_1_CheckIsWidgetActive
 1659 0018 031C     		mov	r3, r0
 1660 001a 002B     		cmp	r3, #0
 1661 001c 01D0     		beq	.L102
1213:.\Generated_Source\PSoC4/CapSense_1_CSHL.c ****         {
1214:.\Generated_Source\PSoC4/CapSense_1_CSHL.c ****             state = CapSense_1_WIDGET_IS_ACTIVE;
 1662              		.loc 1 1214 0
 1663 001e 0123     		mov	r3, #1
 1664 0020 3B60     		str	r3, [r7]
 1665              	.L102:
1210:.\Generated_Source\PSoC4/CapSense_1_CSHL.c ****     for(i = 0u; i < CapSense_1_TOTAL_WIDGET_COUNT; i++)
 1666              		.loc 1 1210 0
 1667 0022 7B68     		ldr	r3, [r7, #4]
 1668 0024 0133     		add	r3, r3, #1
 1669 0026 7B60     		str	r3, [r7, #4]
 1670              	.L101:
1210:.\Generated_Source\PSoC4/CapSense_1_CSHL.c ****     for(i = 0u; i < CapSense_1_TOTAL_WIDGET_COUNT; i++)
 1671              		.loc 1 1210 0 is_stmt 0 discriminator 1
 1672 0028 7B68     		ldr	r3, [r7, #4]
 1673 002a 002B     		cmp	r3, #0
 1674 002c F0D0     		beq	.L103
1215:.\Generated_Source\PSoC4/CapSense_1_CSHL.c ****         }
1216:.\Generated_Source\PSoC4/CapSense_1_CSHL.c ****     }
1217:.\Generated_Source\PSoC4/CapSense_1_CSHL.c ****     
1218:.\Generated_Source\PSoC4/CapSense_1_CSHL.c **** 
1219:.\Generated_Source\PSoC4/CapSense_1_CSHL.c **** 
1220:.\Generated_Source\PSoC4/CapSense_1_CSHL.c ****     return state;
ARM GAS  C:\Users\Jakob\AppData\Local\Temp\cc5GwTcI.s 			page 52


 1675              		.loc 1 1220 0 is_stmt 1
 1676 002e 3B68     		ldr	r3, [r7]
1221:.\Generated_Source\PSoC4/CapSense_1_CSHL.c **** }
 1677              		.loc 1 1221 0
 1678 0030 181C     		mov	r0, r3
 1679 0032 BD46     		mov	sp, r7
 1680 0034 02B0     		add	sp, sp, #8
 1681              		@ sp needed for prologue
 1682 0036 80BD     		pop	{r7, pc}
 1683              		.cfi_endproc
 1684              	.LFE56:
 1685              		.size	CapSense_1_CheckIsAnyWidgetActive, .-CapSense_1_CheckIsAnyWidgetActive
 1686              		.section	.text.CapSense_1_EnableWidget,"ax",%progbits
 1687              		.align	2
 1688              		.global	CapSense_1_EnableWidget
 1689              		.code	16
 1690              		.thumb_func
 1691              		.type	CapSense_1_EnableWidget, %function
 1692              	CapSense_1_EnableWidget:
 1693              	.LFB57:
1222:.\Generated_Source\PSoC4/CapSense_1_CSHL.c **** 
1223:.\Generated_Source\PSoC4/CapSense_1_CSHL.c **** 
1224:.\Generated_Source\PSoC4/CapSense_1_CSHL.c **** /*******************************************************************************
1225:.\Generated_Source\PSoC4/CapSense_1_CSHL.c **** * Function Name: CapSense_1_EnableWidget
1226:.\Generated_Source\PSoC4/CapSense_1_CSHL.c **** ********************************************************************************
1227:.\Generated_Source\PSoC4/CapSense_1_CSHL.c **** *
1228:.\Generated_Source\PSoC4/CapSense_1_CSHL.c **** * Summary:
1229:.\Generated_Source\PSoC4/CapSense_1_CSHL.c **** *  Enables all the widget elements (sensors) to the scanning process.
1230:.\Generated_Source\PSoC4/CapSense_1_CSHL.c **** *
1231:.\Generated_Source\PSoC4/CapSense_1_CSHL.c **** * Parameters:
1232:.\Generated_Source\PSoC4/CapSense_1_CSHL.c **** *  widget:  widget number.
1233:.\Generated_Source\PSoC4/CapSense_1_CSHL.c **** *
1234:.\Generated_Source\PSoC4/CapSense_1_CSHL.c **** * Return:
1235:.\Generated_Source\PSoC4/CapSense_1_CSHL.c **** *  None
1236:.\Generated_Source\PSoC4/CapSense_1_CSHL.c **** *
1237:.\Generated_Source\PSoC4/CapSense_1_CSHL.c **** * Global Variables:
1238:.\Generated_Source\PSoC4/CapSense_1_CSHL.c **** *  CapSense_1_sensorEnableMask[] - used to store the sensor scanning 
1239:.\Generated_Source\PSoC4/CapSense_1_CSHL.c **** *  state.
1240:.\Generated_Source\PSoC4/CapSense_1_CSHL.c **** *  CapSense_1_sensorEnableMask[0] contains the masked bits for sensors 
1241:.\Generated_Source\PSoC4/CapSense_1_CSHL.c **** *  0 through 7 (sensor 0 is bit 0, sensor 1 is bit 1).
1242:.\Generated_Source\PSoC4/CapSense_1_CSHL.c **** *  CapSense_1_sensorEnableMask[1] contains the masked bits for 
1243:.\Generated_Source\PSoC4/CapSense_1_CSHL.c **** *  sensors 8 through 15 (if needed), and so on.
1244:.\Generated_Source\PSoC4/CapSense_1_CSHL.c **** *  0 - sensor doesn't scan by CapSense_1_ScanEnabledWidgets().
1245:.\Generated_Source\PSoC4/CapSense_1_CSHL.c **** *  1 - sensor scans by CapSense_1_ScanEnabledWidgets().
1246:.\Generated_Source\PSoC4/CapSense_1_CSHL.c **** * 
1247:.\Generated_Source\PSoC4/CapSense_1_CSHL.c **** * Side Effects:
1248:.\Generated_Source\PSoC4/CapSense_1_CSHL.c **** *  None
1249:.\Generated_Source\PSoC4/CapSense_1_CSHL.c **** *
1250:.\Generated_Source\PSoC4/CapSense_1_CSHL.c **** *******************************************************************************/
1251:.\Generated_Source\PSoC4/CapSense_1_CSHL.c **** void CapSense_1_EnableWidget(uint32 widget)
1252:.\Generated_Source\PSoC4/CapSense_1_CSHL.c **** {
 1694              		.loc 1 1252 0
 1695              		.cfi_startproc
 1696 0000 80B5     		push	{r7, lr}
 1697              	.LCFI72:
 1698              		.cfi_def_cfa_offset 8
 1699              		.cfi_offset 7, -8
ARM GAS  C:\Users\Jakob\AppData\Local\Temp\cc5GwTcI.s 			page 53


 1700              		.cfi_offset 14, -4
 1701 0002 84B0     		sub	sp, sp, #16
 1702              	.LCFI73:
 1703              		.cfi_def_cfa_offset 24
 1704 0004 00AF     		add	r7, sp, #0
 1705              	.LCFI74:
 1706              		.cfi_def_cfa_register 7
 1707 0006 7860     		str	r0, [r7, #4]
1253:.\Generated_Source\PSoC4/CapSense_1_CSHL.c **** 
1254:.\Generated_Source\PSoC4/CapSense_1_CSHL.c ****     uint8 rawIndex = CapSense_1_rawDataIndex[widget];
 1708              		.loc 1 1254 0
 1709 0008 3B1C     		mov	r3, r7
 1710 000a 0F33     		add	r3, r3, #15
 1711 000c 1549     		ldr	r1, .L107
 1712 000e 7A68     		ldr	r2, [r7, #4]
 1713 0010 8A18     		add	r2, r1, r2
 1714 0012 1278     		ldrb	r2, [r2]
 1715 0014 1A70     		strb	r2, [r3]
1255:.\Generated_Source\PSoC4/CapSense_1_CSHL.c ****     uint8 numOfSensors = CapSense_1_numberOfSensors[widget] + rawIndex;
 1716              		.loc 1 1255 0
 1717 0016 144A     		ldr	r2, .L107+4
 1718 0018 7B68     		ldr	r3, [r7, #4]
 1719 001a D318     		add	r3, r2, r3
 1720 001c 1978     		ldrb	r1, [r3]
 1721 001e 3B1C     		mov	r3, r7
 1722 0020 0E33     		add	r3, r3, #14
 1723 0022 3A1C     		mov	r2, r7
 1724 0024 0F32     		add	r2, r2, #15
 1725 0026 1278     		ldrb	r2, [r2]
 1726 0028 8A18     		add	r2, r1, r2
 1727 002a 1A70     		strb	r2, [r3]
 1728              	.L106:
1256:.\Generated_Source\PSoC4/CapSense_1_CSHL.c ****     
1257:.\Generated_Source\PSoC4/CapSense_1_CSHL.c ****     /* Enable all sensors of widget */
1258:.\Generated_Source\PSoC4/CapSense_1_CSHL.c ****     do
1259:.\Generated_Source\PSoC4/CapSense_1_CSHL.c ****     {
1260:.\Generated_Source\PSoC4/CapSense_1_CSHL.c ****         CapSense_1_SetBitValue(CapSense_1_sensorEnableMask, (uint32)rawIndex, 1u);
 1729              		.loc 1 1260 0 discriminator 1
 1730 002c 3B1C     		mov	r3, r7
 1731 002e 0F33     		add	r3, r3, #15
 1732 0030 1B78     		ldrb	r3, [r3]
 1733 0032 0E4A     		ldr	r2, .L107+8
 1734 0034 101C     		mov	r0, r2
 1735 0036 191C     		mov	r1, r3
 1736 0038 0122     		mov	r2, #1
 1737 003a FFF7FEFF 		bl	CapSense_1_SetBitValue
1261:.\Generated_Source\PSoC4/CapSense_1_CSHL.c ****         rawIndex++;
 1738              		.loc 1 1261 0 discriminator 1
 1739 003e 3B1C     		mov	r3, r7
 1740 0040 0F33     		add	r3, r3, #15
 1741 0042 3A1C     		mov	r2, r7
 1742 0044 0F32     		add	r2, r2, #15
 1743 0046 1278     		ldrb	r2, [r2]
 1744 0048 0132     		add	r2, r2, #1
 1745 004a 1A70     		strb	r2, [r3]
1262:.\Generated_Source\PSoC4/CapSense_1_CSHL.c ****     }
1263:.\Generated_Source\PSoC4/CapSense_1_CSHL.c ****     while(rawIndex < numOfSensors);
ARM GAS  C:\Users\Jakob\AppData\Local\Temp\cc5GwTcI.s 			page 54


 1746              		.loc 1 1263 0 discriminator 1
 1747 004c 3A1C     		mov	r2, r7
 1748 004e 0F32     		add	r2, r2, #15
 1749 0050 3B1C     		mov	r3, r7
 1750 0052 0E33     		add	r3, r3, #14
 1751 0054 1278     		ldrb	r2, [r2]
 1752 0056 1B78     		ldrb	r3, [r3]
 1753 0058 9A42     		cmp	r2, r3
 1754 005a E7D3     		bcc	.L106
1264:.\Generated_Source\PSoC4/CapSense_1_CSHL.c **** }
 1755              		.loc 1 1264 0
 1756 005c BD46     		mov	sp, r7
 1757 005e 04B0     		add	sp, sp, #16
 1758              		@ sp needed for prologue
 1759 0060 80BD     		pop	{r7, pc}
 1760              	.L108:
 1761 0062 C046     		.align	2
 1762              	.L107:
 1763 0064 00000000 		.word	CapSense_1_rawDataIndex
 1764 0068 00000000 		.word	CapSense_1_numberOfSensors
 1765 006c 00000000 		.word	CapSense_1_sensorEnableMask
 1766              		.cfi_endproc
 1767              	.LFE57:
 1768              		.size	CapSense_1_EnableWidget, .-CapSense_1_EnableWidget
 1769              		.section	.text.CapSense_1_DisableWidget,"ax",%progbits
 1770              		.align	2
 1771              		.global	CapSense_1_DisableWidget
 1772              		.code	16
 1773              		.thumb_func
 1774              		.type	CapSense_1_DisableWidget, %function
 1775              	CapSense_1_DisableWidget:
 1776              	.LFB58:
1265:.\Generated_Source\PSoC4/CapSense_1_CSHL.c **** 
1266:.\Generated_Source\PSoC4/CapSense_1_CSHL.c **** 
1267:.\Generated_Source\PSoC4/CapSense_1_CSHL.c **** /*******************************************************************************
1268:.\Generated_Source\PSoC4/CapSense_1_CSHL.c **** * Function Name: CapSense_1_DisableWidget
1269:.\Generated_Source\PSoC4/CapSense_1_CSHL.c **** ********************************************************************************
1270:.\Generated_Source\PSoC4/CapSense_1_CSHL.c **** *
1271:.\Generated_Source\PSoC4/CapSense_1_CSHL.c **** * Summary:
1272:.\Generated_Source\PSoC4/CapSense_1_CSHL.c **** *  Disables all the widget elements (sensors) from the scanning process.
1273:.\Generated_Source\PSoC4/CapSense_1_CSHL.c **** *
1274:.\Generated_Source\PSoC4/CapSense_1_CSHL.c **** * Parameters:
1275:.\Generated_Source\PSoC4/CapSense_1_CSHL.c **** *  widget:  widget number.
1276:.\Generated_Source\PSoC4/CapSense_1_CSHL.c **** *
1277:.\Generated_Source\PSoC4/CapSense_1_CSHL.c **** * Return:
1278:.\Generated_Source\PSoC4/CapSense_1_CSHL.c **** *  None
1279:.\Generated_Source\PSoC4/CapSense_1_CSHL.c **** *
1280:.\Generated_Source\PSoC4/CapSense_1_CSHL.c **** * Global Variables:
1281:.\Generated_Source\PSoC4/CapSense_1_CSHL.c **** *  CapSense_1_sensorEnableMask[] - used to store the sensor scanning 
1282:.\Generated_Source\PSoC4/CapSense_1_CSHL.c **** *  state.
1283:.\Generated_Source\PSoC4/CapSense_1_CSHL.c **** *  CapSense_1_sensorEnableMask[0] contains the masked bits for sensors 
1284:.\Generated_Source\PSoC4/CapSense_1_CSHL.c **** *  0 through 7 (sensor 0 is bit 0, sensor 1 is bit 1).
1285:.\Generated_Source\PSoC4/CapSense_1_CSHL.c **** *  CapSense_1_sensorEnableMask[1] contains the masked bits for 
1286:.\Generated_Source\PSoC4/CapSense_1_CSHL.c **** *  sensors 8 through 15 (if needed), and so on.
1287:.\Generated_Source\PSoC4/CapSense_1_CSHL.c **** *  0 - sensor isn't scanned by CapSense_1_ScanEnabledWidgets().
1288:.\Generated_Source\PSoC4/CapSense_1_CSHL.c **** *  1 - sensor is scanned by CapSense_1_ScanEnabledWidgets().
1289:.\Generated_Source\PSoC4/CapSense_1_CSHL.c **** * 
ARM GAS  C:\Users\Jakob\AppData\Local\Temp\cc5GwTcI.s 			page 55


1290:.\Generated_Source\PSoC4/CapSense_1_CSHL.c **** * Side Effects:
1291:.\Generated_Source\PSoC4/CapSense_1_CSHL.c **** *  None
1292:.\Generated_Source\PSoC4/CapSense_1_CSHL.c **** *
1293:.\Generated_Source\PSoC4/CapSense_1_CSHL.c **** *******************************************************************************/
1294:.\Generated_Source\PSoC4/CapSense_1_CSHL.c **** void CapSense_1_DisableWidget(uint32 widget)
1295:.\Generated_Source\PSoC4/CapSense_1_CSHL.c **** {
 1777              		.loc 1 1295 0
 1778              		.cfi_startproc
 1779 0000 80B5     		push	{r7, lr}
 1780              	.LCFI75:
 1781              		.cfi_def_cfa_offset 8
 1782              		.cfi_offset 7, -8
 1783              		.cfi_offset 14, -4
 1784 0002 84B0     		sub	sp, sp, #16
 1785              	.LCFI76:
 1786              		.cfi_def_cfa_offset 24
 1787 0004 00AF     		add	r7, sp, #0
 1788              	.LCFI77:
 1789              		.cfi_def_cfa_register 7
 1790 0006 7860     		str	r0, [r7, #4]
1296:.\Generated_Source\PSoC4/CapSense_1_CSHL.c ****     uint8 rawIndex = CapSense_1_rawDataIndex[widget];
 1791              		.loc 1 1296 0
 1792 0008 3B1C     		mov	r3, r7
 1793 000a 0F33     		add	r3, r3, #15
 1794 000c 1549     		ldr	r1, .L111
 1795 000e 7A68     		ldr	r2, [r7, #4]
 1796 0010 8A18     		add	r2, r1, r2
 1797 0012 1278     		ldrb	r2, [r2]
 1798 0014 1A70     		strb	r2, [r3]
1297:.\Generated_Source\PSoC4/CapSense_1_CSHL.c ****     uint8 numOfSensors = CapSense_1_numberOfSensors[widget] + rawIndex;
 1799              		.loc 1 1297 0
 1800 0016 144A     		ldr	r2, .L111+4
 1801 0018 7B68     		ldr	r3, [r7, #4]
 1802 001a D318     		add	r3, r2, r3
 1803 001c 1978     		ldrb	r1, [r3]
 1804 001e 3B1C     		mov	r3, r7
 1805 0020 0E33     		add	r3, r3, #14
 1806 0022 3A1C     		mov	r2, r7
 1807 0024 0F32     		add	r2, r2, #15
 1808 0026 1278     		ldrb	r2, [r2]
 1809 0028 8A18     		add	r2, r1, r2
 1810 002a 1A70     		strb	r2, [r3]
 1811              	.L110:
1298:.\Generated_Source\PSoC4/CapSense_1_CSHL.c ****    
1299:.\Generated_Source\PSoC4/CapSense_1_CSHL.c ****     /* Disable all sensors of widget */
1300:.\Generated_Source\PSoC4/CapSense_1_CSHL.c ****     do
1301:.\Generated_Source\PSoC4/CapSense_1_CSHL.c ****     {
1302:.\Generated_Source\PSoC4/CapSense_1_CSHL.c **** 
1303:.\Generated_Source\PSoC4/CapSense_1_CSHL.c ****         CapSense_1_SetBitValue(CapSense_1_sensorEnableMask, (uint32)rawIndex, 0u);
 1812              		.loc 1 1303 0 discriminator 1
 1813 002c 3B1C     		mov	r3, r7
 1814 002e 0F33     		add	r3, r3, #15
 1815 0030 1B78     		ldrb	r3, [r3]
 1816 0032 0E4A     		ldr	r2, .L111+8
 1817 0034 101C     		mov	r0, r2
 1818 0036 191C     		mov	r1, r3
 1819 0038 0022     		mov	r2, #0
ARM GAS  C:\Users\Jakob\AppData\Local\Temp\cc5GwTcI.s 			page 56


 1820 003a FFF7FEFF 		bl	CapSense_1_SetBitValue
1304:.\Generated_Source\PSoC4/CapSense_1_CSHL.c ****         rawIndex++;
 1821              		.loc 1 1304 0 discriminator 1
 1822 003e 3B1C     		mov	r3, r7
 1823 0040 0F33     		add	r3, r3, #15
 1824 0042 3A1C     		mov	r2, r7
 1825 0044 0F32     		add	r2, r2, #15
 1826 0046 1278     		ldrb	r2, [r2]
 1827 0048 0132     		add	r2, r2, #1
 1828 004a 1A70     		strb	r2, [r3]
1305:.\Generated_Source\PSoC4/CapSense_1_CSHL.c ****     }
1306:.\Generated_Source\PSoC4/CapSense_1_CSHL.c ****     while(rawIndex < numOfSensors);
 1829              		.loc 1 1306 0 discriminator 1
 1830 004c 3A1C     		mov	r2, r7
 1831 004e 0F32     		add	r2, r2, #15
 1832 0050 3B1C     		mov	r3, r7
 1833 0052 0E33     		add	r3, r3, #14
 1834 0054 1278     		ldrb	r2, [r2]
 1835 0056 1B78     		ldrb	r3, [r3]
 1836 0058 9A42     		cmp	r2, r3
 1837 005a E7D3     		bcc	.L110
1307:.\Generated_Source\PSoC4/CapSense_1_CSHL.c **** }
 1838              		.loc 1 1307 0
 1839 005c BD46     		mov	sp, r7
 1840 005e 04B0     		add	sp, sp, #16
 1841              		@ sp needed for prologue
 1842 0060 80BD     		pop	{r7, pc}
 1843              	.L112:
 1844 0062 C046     		.align	2
 1845              	.L111:
 1846 0064 00000000 		.word	CapSense_1_rawDataIndex
 1847 0068 00000000 		.word	CapSense_1_numberOfSensors
 1848 006c 00000000 		.word	CapSense_1_sensorEnableMask
 1849              		.cfi_endproc
 1850              	.LFE58:
 1851              		.size	CapSense_1_DisableWidget, .-CapSense_1_DisableWidget
 1852              		.section	.text.CapSense_1_MedianFilter,"ax",%progbits
 1853              		.align	2
 1854              		.global	CapSense_1_MedianFilter
 1855              		.code	16
 1856              		.thumb_func
 1857              		.type	CapSense_1_MedianFilter, %function
 1858              	CapSense_1_MedianFilter:
 1859              	.LFB59:
1308:.\Generated_Source\PSoC4/CapSense_1_CSHL.c **** 
1309:.\Generated_Source\PSoC4/CapSense_1_CSHL.c **** 
1310:.\Generated_Source\PSoC4/CapSense_1_CSHL.c **** #if(CapSense_1_TOTAL_CENTROIDS_COUNT)
1311:.\Generated_Source\PSoC4/CapSense_1_CSHL.c ****     /*******************************************************************************
1312:.\Generated_Source\PSoC4/CapSense_1_CSHL.c ****     * Function Name: CapSense_1_FindMaximum
1313:.\Generated_Source\PSoC4/CapSense_1_CSHL.c ****     ********************************************************************************
1314:.\Generated_Source\PSoC4/CapSense_1_CSHL.c ****     *
1315:.\Generated_Source\PSoC4/CapSense_1_CSHL.c ****     * Summary:
1316:.\Generated_Source\PSoC4/CapSense_1_CSHL.c ****     *  Finds the index of the maximum element within a defined centroid. Checks 
1317:.\Generated_Source\PSoC4/CapSense_1_CSHL.c ****     *  CapSense_1_sensorSignal[] within a defined centroid and 
1318:.\Generated_Source\PSoC4/CapSense_1_CSHL.c ****     *  returns the index of the maximum element. The values below the finger threshold are 
1319:.\Generated_Source\PSoC4/CapSense_1_CSHL.c ****     *  ignored.
1320:.\Generated_Source\PSoC4/CapSense_1_CSHL.c ****     *  The centroid is defined by offset of the first element and a number of elements - count.
ARM GAS  C:\Users\Jakob\AppData\Local\Temp\cc5GwTcI.s 			page 57


1321:.\Generated_Source\PSoC4/CapSense_1_CSHL.c ****     *  The diplexed centroid requires at least two consecutive elements above
1322:.\Generated_Source\PSoC4/CapSense_1_CSHL.c ****     *  FingerThreshold to find the index of the maximum element.
1323:.\Generated_Source\PSoC4/CapSense_1_CSHL.c ****     * 
1324:.\Generated_Source\PSoC4/CapSense_1_CSHL.c ****     * Parameters:
1325:.\Generated_Source\PSoC4/CapSense_1_CSHL.c ****     *  offset:  Start index of centroid in CapSense_1_sensorSignal[] array.
1326:.\Generated_Source\PSoC4/CapSense_1_CSHL.c ****     *  count:   number of elements within centroid.
1327:.\Generated_Source\PSoC4/CapSense_1_CSHL.c ****     *  fingerThreshold:  Finger threshold.
1328:.\Generated_Source\PSoC4/CapSense_1_CSHL.c ****     *  diplex:   pointer to diplex table.
1329:.\Generated_Source\PSoC4/CapSense_1_CSHL.c ****     * 
1330:.\Generated_Source\PSoC4/CapSense_1_CSHL.c ****     * Return:
1331:.\Generated_Source\PSoC4/CapSense_1_CSHL.c ****     *  Returns the index of the maximum element within a defined centroid.
1332:.\Generated_Source\PSoC4/CapSense_1_CSHL.c ****     *  If the index of the maximum element isn't found it returns 0xFF.
1333:.\Generated_Source\PSoC4/CapSense_1_CSHL.c **** 	*
1334:.\Generated_Source\PSoC4/CapSense_1_CSHL.c **** 	* Global Variables:
1335:.\Generated_Source\PSoC4/CapSense_1_CSHL.c **** 	*  CapSense_1_startOfSlider[] - contains the index of the first slider element
1336:.\Generated_Source\PSoC4/CapSense_1_CSHL.c **** 	* 
1337:.\Generated_Source\PSoC4/CapSense_1_CSHL.c **** 	* Side Effects: 
1338:.\Generated_Source\PSoC4/CapSense_1_CSHL.c **** 	*  None
1339:.\Generated_Source\PSoC4/CapSense_1_CSHL.c **** 	* 
1340:.\Generated_Source\PSoC4/CapSense_1_CSHL.c ****     *******************************************************************************/
1341:.\Generated_Source\PSoC4/CapSense_1_CSHL.c **** 	#if (CapSense_1_IS_DIPLEX_SLIDER)
1342:.\Generated_Source\PSoC4/CapSense_1_CSHL.c **** 		uint8 CapSense_1_FindMaximum(uint8 offset, uint8 count, uint8 fingerThreshold, const uint8 *diple
1343:.\Generated_Source\PSoC4/CapSense_1_CSHL.c **** 	#else 
1344:.\Generated_Source\PSoC4/CapSense_1_CSHL.c **** 		uint8 CapSense_1_FindMaximum(uint8 offset, uint8 count, uint8 fingerThreshold)
1345:.\Generated_Source\PSoC4/CapSense_1_CSHL.c **** 	#endif /* (CapSense_1_IS_DIPLEX_SLIDER) */
1346:.\Generated_Source\PSoC4/CapSense_1_CSHL.c ****     {
1347:.\Generated_Source\PSoC4/CapSense_1_CSHL.c ****         uint8 i;
1348:.\Generated_Source\PSoC4/CapSense_1_CSHL.c ****         #if (CapSense_1_IS_DIPLEX_SLIDER)        
1349:.\Generated_Source\PSoC4/CapSense_1_CSHL.c ****             uint8 curPos = 0u;
1350:.\Generated_Source\PSoC4/CapSense_1_CSHL.c ****             /* No centroid at Start */
1351:.\Generated_Source\PSoC4/CapSense_1_CSHL.c ****             uint8 curCntrdSize = 0u;
1352:.\Generated_Source\PSoC4/CapSense_1_CSHL.c ****             uint8 curCtrdStartPos = CapSense_1_MAXIMUM_CENTROID;
1353:.\Generated_Source\PSoC4/CapSense_1_CSHL.c ****             /* Biggest centroid is zero */
1354:.\Generated_Source\PSoC4/CapSense_1_CSHL.c ****             uint8 biggestCtrdSize = 0u;
1355:.\Generated_Source\PSoC4/CapSense_1_CSHL.c ****             uint8 biggestCtrdStartPos = 0u;
1356:.\Generated_Source\PSoC4/CapSense_1_CSHL.c ****         #endif /* (CapSense_1_IS_DIPLEX_SLIDER) */
1357:.\Generated_Source\PSoC4/CapSense_1_CSHL.c ****         uint8 maximum = CapSense_1_MAXIMUM_CENTROID;
1358:.\Generated_Source\PSoC4/CapSense_1_CSHL.c **** 		
1359:.\Generated_Source\PSoC4/CapSense_1_CSHL.c ****         uint8 temp = 0u;
1360:.\Generated_Source\PSoC4/CapSense_1_CSHL.c ****         uint8 *startOfSlider = &CapSense_1_sensorSignal[offset];
1361:.\Generated_Source\PSoC4/CapSense_1_CSHL.c **** 
1362:.\Generated_Source\PSoC4/CapSense_1_CSHL.c ****         #if (CapSense_1_IS_DIPLEX_SLIDER)        
1363:.\Generated_Source\PSoC4/CapSense_1_CSHL.c ****             if(diplex != 0u)
1364:.\Generated_Source\PSoC4/CapSense_1_CSHL.c ****             {
1365:.\Generated_Source\PSoC4/CapSense_1_CSHL.c ****                 /* Initialize */
1366:.\Generated_Source\PSoC4/CapSense_1_CSHL.c ****                 i = 0u;
1367:.\Generated_Source\PSoC4/CapSense_1_CSHL.c ****                 
1368:.\Generated_Source\PSoC4/CapSense_1_CSHL.c ****                 /* Make slider x2 as Diplexed */
1369:.\Generated_Source\PSoC4/CapSense_1_CSHL.c ****                 count <<= 1u;
1370:.\Generated_Source\PSoC4/CapSense_1_CSHL.c ****                 while(1u)
1371:.\Generated_Source\PSoC4/CapSense_1_CSHL.c ****                 { 
1372:.\Generated_Source\PSoC4/CapSense_1_CSHL.c ****                     if (startOfSlider[curPos] > 0u)    /* Looking for centroids */
1373:.\Generated_Source\PSoC4/CapSense_1_CSHL.c ****                     {
1374:.\Generated_Source\PSoC4/CapSense_1_CSHL.c ****                         if (curCtrdStartPos == CapSense_1_MAXIMUM_CENTROID)
1375:.\Generated_Source\PSoC4/CapSense_1_CSHL.c ****                         {
1376:.\Generated_Source\PSoC4/CapSense_1_CSHL.c ****                             /* Start of centroid */
1377:.\Generated_Source\PSoC4/CapSense_1_CSHL.c ****                             curCtrdStartPos = i;
ARM GAS  C:\Users\Jakob\AppData\Local\Temp\cc5GwTcI.s 			page 58


1378:.\Generated_Source\PSoC4/CapSense_1_CSHL.c ****                             curCntrdSize++;
1379:.\Generated_Source\PSoC4/CapSense_1_CSHL.c ****                         }
1380:.\Generated_Source\PSoC4/CapSense_1_CSHL.c ****                         else
1381:.\Generated_Source\PSoC4/CapSense_1_CSHL.c ****                         {
1382:.\Generated_Source\PSoC4/CapSense_1_CSHL.c ****                             curCntrdSize++;
1383:.\Generated_Source\PSoC4/CapSense_1_CSHL.c ****                         }
1384:.\Generated_Source\PSoC4/CapSense_1_CSHL.c ****                     }
1385:.\Generated_Source\PSoC4/CapSense_1_CSHL.c ****                     else   /* Select biggest and indicate zero start */
1386:.\Generated_Source\PSoC4/CapSense_1_CSHL.c ****                     {          
1387:.\Generated_Source\PSoC4/CapSense_1_CSHL.c ****                         if(curCntrdSize > 0u)
1388:.\Generated_Source\PSoC4/CapSense_1_CSHL.c ****                         {
1389:.\Generated_Source\PSoC4/CapSense_1_CSHL.c ****                             /* We are at the end of current */
1390:.\Generated_Source\PSoC4/CapSense_1_CSHL.c ****                             if(curCntrdSize > biggestCtrdSize)
1391:.\Generated_Source\PSoC4/CapSense_1_CSHL.c ****                             {
1392:.\Generated_Source\PSoC4/CapSense_1_CSHL.c ****                                 biggestCtrdSize = curCntrdSize;
1393:.\Generated_Source\PSoC4/CapSense_1_CSHL.c ****                                 biggestCtrdStartPos = curCtrdStartPos;
1394:.\Generated_Source\PSoC4/CapSense_1_CSHL.c ****                             }
1395:.\Generated_Source\PSoC4/CapSense_1_CSHL.c ****                             
1396:.\Generated_Source\PSoC4/CapSense_1_CSHL.c ****                             curCntrdSize = 0u;
1397:.\Generated_Source\PSoC4/CapSense_1_CSHL.c ****                             curCtrdStartPos = CapSense_1_MAXIMUM_CENTROID;
1398:.\Generated_Source\PSoC4/CapSense_1_CSHL.c ****                         }
1399:.\Generated_Source\PSoC4/CapSense_1_CSHL.c ****                     }
1400:.\Generated_Source\PSoC4/CapSense_1_CSHL.c ****                     
1401:.\Generated_Source\PSoC4/CapSense_1_CSHL.c ****                     i++; 
1402:.\Generated_Source\PSoC4/CapSense_1_CSHL.c ****                     curPos = diplex[i];
1403:.\Generated_Source\PSoC4/CapSense_1_CSHL.c ****                     if(i == count)
1404:.\Generated_Source\PSoC4/CapSense_1_CSHL.c ****                     {
1405:.\Generated_Source\PSoC4/CapSense_1_CSHL.c ****                         break;
1406:.\Generated_Source\PSoC4/CapSense_1_CSHL.c ****                     }            
1407:.\Generated_Source\PSoC4/CapSense_1_CSHL.c ****                 }
1408:.\Generated_Source\PSoC4/CapSense_1_CSHL.c ****                     
1409:.\Generated_Source\PSoC4/CapSense_1_CSHL.c ****                     /* Find biggest centroid if two are same size, last one wins
1410:.\Generated_Source\PSoC4/CapSense_1_CSHL.c ****                        We are at the end of current */
1411:.\Generated_Source\PSoC4/CapSense_1_CSHL.c ****                 if (curCntrdSize >= biggestCtrdSize) 
1412:.\Generated_Source\PSoC4/CapSense_1_CSHL.c ****                 {
1413:.\Generated_Source\PSoC4/CapSense_1_CSHL.c ****                     biggestCtrdSize = curCntrdSize;
1414:.\Generated_Source\PSoC4/CapSense_1_CSHL.c ****                     biggestCtrdStartPos = curCtrdStartPos;
1415:.\Generated_Source\PSoC4/CapSense_1_CSHL.c ****                 }
1416:.\Generated_Source\PSoC4/CapSense_1_CSHL.c ****             }
1417:.\Generated_Source\PSoC4/CapSense_1_CSHL.c ****             else
1418:.\Generated_Source\PSoC4/CapSense_1_CSHL.c ****             {
1419:.\Generated_Source\PSoC4/CapSense_1_CSHL.c ****                 /* Without diplexing */ 
1420:.\Generated_Source\PSoC4/CapSense_1_CSHL.c ****                 biggestCtrdSize = count;
1421:.\Generated_Source\PSoC4/CapSense_1_CSHL.c ****             }
1422:.\Generated_Source\PSoC4/CapSense_1_CSHL.c ****                         
1423:.\Generated_Source\PSoC4/CapSense_1_CSHL.c **** 
1424:.\Generated_Source\PSoC4/CapSense_1_CSHL.c ****             /* Check centroid size */
1425:.\Generated_Source\PSoC4/CapSense_1_CSHL.c ****             #if (CapSense_1_IS_NON_DIPLEX_SLIDER)
1426:.\Generated_Source\PSoC4/CapSense_1_CSHL.c ****                 if((biggestCtrdSize >= 2u) || ((biggestCtrdSize == 1u) && (diplex == 0u)))
1427:.\Generated_Source\PSoC4/CapSense_1_CSHL.c ****             #else                    
1428:.\Generated_Source\PSoC4/CapSense_1_CSHL.c ****                 if(biggestCtrdSize >= 2u)
1429:.\Generated_Source\PSoC4/CapSense_1_CSHL.c ****             #endif /* (CapSense_1_IS_NON_DIPLEX_SLIDER) */
1430:.\Generated_Source\PSoC4/CapSense_1_CSHL.c ****                 {
1431:.\Generated_Source\PSoC4/CapSense_1_CSHL.c ****                     for (i = biggestCtrdStartPos; i < (biggestCtrdStartPos + biggestCtrdSize); i++)
1432:.\Generated_Source\PSoC4/CapSense_1_CSHL.c ****                     {
1433:.\Generated_Source\PSoC4/CapSense_1_CSHL.c ****                         #if (CapSense_1_IS_DIPLEX_SLIDER && CapSense_1_IS_NON_DIPLEX_SLIDER)
1434:.\Generated_Source\PSoC4/CapSense_1_CSHL.c ****                             if (diplex == 0u)
ARM GAS  C:\Users\Jakob\AppData\Local\Temp\cc5GwTcI.s 			page 59


1435:.\Generated_Source\PSoC4/CapSense_1_CSHL.c ****                             {
1436:.\Generated_Source\PSoC4/CapSense_1_CSHL.c ****                                 curPos = i;
1437:.\Generated_Source\PSoC4/CapSense_1_CSHL.c ****                             }
1438:.\Generated_Source\PSoC4/CapSense_1_CSHL.c ****                             else
1439:.\Generated_Source\PSoC4/CapSense_1_CSHL.c ****                             {
1440:.\Generated_Source\PSoC4/CapSense_1_CSHL.c ****                                 curPos = diplex[i];
1441:.\Generated_Source\PSoC4/CapSense_1_CSHL.c ****                             }                    
1442:.\Generated_Source\PSoC4/CapSense_1_CSHL.c ****                         #elif (CapSense_1_IS_DIPLEX_SLIDER)                    
1443:.\Generated_Source\PSoC4/CapSense_1_CSHL.c ****                             curPos = diplex[i];                    
1444:.\Generated_Source\PSoC4/CapSense_1_CSHL.c ****                         #endif /* (CapSense_1_IS_DIPLEX_SLIDER && CapSense_1_IS_NON_DIPLEX_SLIDER) 
1445:.\Generated_Source\PSoC4/CapSense_1_CSHL.c ****                         /* Looking for greater element within centroid */
1446:.\Generated_Source\PSoC4/CapSense_1_CSHL.c ****                         if(startOfSlider[curPos] > fingerThreshold)
1447:.\Generated_Source\PSoC4/CapSense_1_CSHL.c ****                         {
1448:.\Generated_Source\PSoC4/CapSense_1_CSHL.c ****                             if(startOfSlider[curPos] > temp)
1449:.\Generated_Source\PSoC4/CapSense_1_CSHL.c ****                             {
1450:.\Generated_Source\PSoC4/CapSense_1_CSHL.c ****                                 maximum = i;
1451:.\Generated_Source\PSoC4/CapSense_1_CSHL.c ****                                 temp = startOfSlider[curPos];
1452:.\Generated_Source\PSoC4/CapSense_1_CSHL.c ****                             }
1453:.\Generated_Source\PSoC4/CapSense_1_CSHL.c ****                         }
1454:.\Generated_Source\PSoC4/CapSense_1_CSHL.c ****                     }
1455:.\Generated_Source\PSoC4/CapSense_1_CSHL.c ****                 } 
1456:.\Generated_Source\PSoC4/CapSense_1_CSHL.c ****         #else
1457:.\Generated_Source\PSoC4/CapSense_1_CSHL.c ****             for (i = 0u; i < count; i++)
1458:.\Generated_Source\PSoC4/CapSense_1_CSHL.c ****             {                      
1459:.\Generated_Source\PSoC4/CapSense_1_CSHL.c ****                 /* Looking for greater element within centroid */
1460:.\Generated_Source\PSoC4/CapSense_1_CSHL.c ****                 if(startOfSlider[i] > fingerThreshold)
1461:.\Generated_Source\PSoC4/CapSense_1_CSHL.c ****                 {
1462:.\Generated_Source\PSoC4/CapSense_1_CSHL.c ****                     if(startOfSlider[i] > temp)
1463:.\Generated_Source\PSoC4/CapSense_1_CSHL.c ****                     {
1464:.\Generated_Source\PSoC4/CapSense_1_CSHL.c ****                         maximum = i;
1465:.\Generated_Source\PSoC4/CapSense_1_CSHL.c ****                         temp = startOfSlider[i];
1466:.\Generated_Source\PSoC4/CapSense_1_CSHL.c ****                     }
1467:.\Generated_Source\PSoC4/CapSense_1_CSHL.c ****                 }
1468:.\Generated_Source\PSoC4/CapSense_1_CSHL.c ****             }    
1469:.\Generated_Source\PSoC4/CapSense_1_CSHL.c ****         #endif /* (CapSense_1_IS_DIPLEX_SLIDER) */
1470:.\Generated_Source\PSoC4/CapSense_1_CSHL.c ****         return (maximum);
1471:.\Generated_Source\PSoC4/CapSense_1_CSHL.c ****     }
1472:.\Generated_Source\PSoC4/CapSense_1_CSHL.c ****     
1473:.\Generated_Source\PSoC4/CapSense_1_CSHL.c ****     
1474:.\Generated_Source\PSoC4/CapSense_1_CSHL.c ****     /*******************************************************************************
1475:.\Generated_Source\PSoC4/CapSense_1_CSHL.c ****     * Function Name: CapSense_1_CalcCentroid
1476:.\Generated_Source\PSoC4/CapSense_1_CSHL.c ****     ********************************************************************************
1477:.\Generated_Source\PSoC4/CapSense_1_CSHL.c ****     *
1478:.\Generated_Source\PSoC4/CapSense_1_CSHL.c ****     * Summary:
1479:.\Generated_Source\PSoC4/CapSense_1_CSHL.c ****     *  Returns a position value calculated according to the index of the maximum element and API
1480:.\Generated_Source\PSoC4/CapSense_1_CSHL.c ****     *  resolution.
1481:.\Generated_Source\PSoC4/CapSense_1_CSHL.c ****     *
1482:.\Generated_Source\PSoC4/CapSense_1_CSHL.c ****     * Parameters:
1483:.\Generated_Source\PSoC4/CapSense_1_CSHL.c ****     *  type:  widget type.
1484:.\Generated_Source\PSoC4/CapSense_1_CSHL.c ****     *  diplex:  pointer to diplex table.
1485:.\Generated_Source\PSoC4/CapSense_1_CSHL.c ****     *  maximum:  Index of maximum element within centroid.
1486:.\Generated_Source\PSoC4/CapSense_1_CSHL.c ****     *  offset:   Start index of centroid in CapSense_1_sensorSignal[] array.
1487:.\Generated_Source\PSoC4/CapSense_1_CSHL.c ****     *  count:    Number of elements within centroid.
1488:.\Generated_Source\PSoC4/CapSense_1_CSHL.c ****     *  resolution:  multiplicator calculated according to centroid type and
1489:.\Generated_Source\PSoC4/CapSense_1_CSHL.c ****     *  API resolution.
1490:.\Generated_Source\PSoC4/CapSense_1_CSHL.c ****     *  noiseThreshold:  Noise threshold.
1491:.\Generated_Source\PSoC4/CapSense_1_CSHL.c ****     * 
ARM GAS  C:\Users\Jakob\AppData\Local\Temp\cc5GwTcI.s 			page 60


1492:.\Generated_Source\PSoC4/CapSense_1_CSHL.c ****     * Return:
1493:.\Generated_Source\PSoC4/CapSense_1_CSHL.c ****     *  Returns a position value of the slider.
1494:.\Generated_Source\PSoC4/CapSense_1_CSHL.c **** 	*
1495:.\Generated_Source\PSoC4/CapSense_1_CSHL.c **** 	* Side Effects: 
1496:.\Generated_Source\PSoC4/CapSense_1_CSHL.c **** 	*  None
1497:.\Generated_Source\PSoC4/CapSense_1_CSHL.c **** 	* 
1498:.\Generated_Source\PSoC4/CapSense_1_CSHL.c ****     *******************************************************************************/
1499:.\Generated_Source\PSoC4/CapSense_1_CSHL.c ****     uint8 CapSense_1_CalcCentroid(uint8 maximum, uint8 offset, 
1500:.\Generated_Source\PSoC4/CapSense_1_CSHL.c ****                                         uint8 count, uint16 resolution, uint8 noiseThreshold)
1501:.\Generated_Source\PSoC4/CapSense_1_CSHL.c ****     {
1502:.\Generated_Source\PSoC4/CapSense_1_CSHL.c ****         #if ((CapSense_1_TOTAL_LINEAR_SLIDERS_COUNT > 0u) || (CapSense_1_TOTAL_TOUCH_PADS_COUNT > 0
1503:.\Generated_Source\PSoC4/CapSense_1_CSHL.c ****             uint8 posPrev;
1504:.\Generated_Source\PSoC4/CapSense_1_CSHL.c ****             uint8 posNext;
1505:.\Generated_Source\PSoC4/CapSense_1_CSHL.c ****         #endif /* ((CapSense_1_TOTAL_LINEAR_SLIDERS_COUNT>0u) || (CapSense_1_TOTAL_TOUCH_PADS_COUNT
1506:.\Generated_Source\PSoC4/CapSense_1_CSHL.c ****         
1507:.\Generated_Source\PSoC4/CapSense_1_CSHL.c ****         /* Helps during centroid calculation */
1508:.\Generated_Source\PSoC4/CapSense_1_CSHL.c ****         #if (CapSense_1_TOTAL_CENTROIDS_COUNT)
1509:.\Generated_Source\PSoC4/CapSense_1_CSHL.c **** 		    static uint8 CapSense_1_centroid[3u];
1510:.\Generated_Source\PSoC4/CapSense_1_CSHL.c ****         #endif  /* (CapSense_1_TOTAL_CENTROIDS_COUNT) */
1511:.\Generated_Source\PSoC4/CapSense_1_CSHL.c ****                
1512:.\Generated_Source\PSoC4/CapSense_1_CSHL.c ****         #if (CapSense_1_IS_DIPLEX_SLIDER)                
1513:.\Generated_Source\PSoC4/CapSense_1_CSHL.c ****             uint8 pos;
1514:.\Generated_Source\PSoC4/CapSense_1_CSHL.c ****         #endif /* (CapSense_1_IS_DIPLEX_SLIDER) */
1515:.\Generated_Source\PSoC4/CapSense_1_CSHL.c **** 
1516:.\Generated_Source\PSoC4/CapSense_1_CSHL.c ****         uint8 position;
1517:.\Generated_Source\PSoC4/CapSense_1_CSHL.c ****         uint32 numerator;
1518:.\Generated_Source\PSoC4/CapSense_1_CSHL.c ****         int32 denominator;
1519:.\Generated_Source\PSoC4/CapSense_1_CSHL.c **** 		
1520:.\Generated_Source\PSoC4/CapSense_1_CSHL.c **** 		uint8  *startOfSlider = &CapSense_1_sensorSignal[offset];
1521:.\Generated_Source\PSoC4/CapSense_1_CSHL.c **** 		
1522:.\Generated_Source\PSoC4/CapSense_1_CSHL.c ****         #if ((CapSense_1_TOTAL_LINEAR_SLIDERS_COUNT > 0u) || (CapSense_1_TOTAL_TOUCH_PADS_COUNT > 0
1523:.\Generated_Source\PSoC4/CapSense_1_CSHL.c ****             posPrev = 0u;
1524:.\Generated_Source\PSoC4/CapSense_1_CSHL.c ****             posNext = 0u;
1525:.\Generated_Source\PSoC4/CapSense_1_CSHL.c ****         #endif /* ((CapSense_1_TOTAL_LINEAR_SLIDERS_COUNT>0u) || (CapSense_1_TOTAL_TOUCH_PADS_COUNT
1526:.\Generated_Source\PSoC4/CapSense_1_CSHL.c ****      
1527:.\Generated_Source\PSoC4/CapSense_1_CSHL.c ****         #if (CapSense_1_ADD_SLIDER_TYPE)
1528:.\Generated_Source\PSoC4/CapSense_1_CSHL.c ****             if(type == CapSense_1_TYPE_RADIAL_SLIDER)
1529:.\Generated_Source\PSoC4/CapSense_1_CSHL.c ****             {
1530:.\Generated_Source\PSoC4/CapSense_1_CSHL.c ****         #endif /* (CapSense_1_ADD_SLIDER_TYPE) */
1531:.\Generated_Source\PSoC4/CapSense_1_CSHL.c **** 
1532:.\Generated_Source\PSoC4/CapSense_1_CSHL.c ****             #if (CapSense_1_TOTAL_RADIAL_SLIDERS_COUNT > 0u)                
1533:.\Generated_Source\PSoC4/CapSense_1_CSHL.c ****                 /* Copy Signal to the centroid array */
1534:.\Generated_Source\PSoC4/CapSense_1_CSHL.c ****                 CapSense_1_centroid[CapSense_1_POS] = startOfSlider[maximum];
1535:.\Generated_Source\PSoC4/CapSense_1_CSHL.c ****                  
1536:.\Generated_Source\PSoC4/CapSense_1_CSHL.c ****                 /* Check borders for ROTARY Slider */
1537:.\Generated_Source\PSoC4/CapSense_1_CSHL.c ****                 if (maximum == 0u)                   /* Start of centroid */
1538:.\Generated_Source\PSoC4/CapSense_1_CSHL.c ****                 { 
1539:.\Generated_Source\PSoC4/CapSense_1_CSHL.c ****                     CapSense_1_centroid[CapSense_1_POS_PREV] = startOfSlider[count - 1u];
1540:.\Generated_Source\PSoC4/CapSense_1_CSHL.c ****                     CapSense_1_centroid[CapSense_1_POS_NEXT] = startOfSlider[1u];
1541:.\Generated_Source\PSoC4/CapSense_1_CSHL.c ****                 }
1542:.\Generated_Source\PSoC4/CapSense_1_CSHL.c ****                 else if (maximum == (count - 1u))    /* End of centroid */
1543:.\Generated_Source\PSoC4/CapSense_1_CSHL.c ****                 {
1544:.\Generated_Source\PSoC4/CapSense_1_CSHL.c ****                     CapSense_1_centroid[CapSense_1_POS_PREV] = startOfSlider[maximum - 1u];
1545:.\Generated_Source\PSoC4/CapSense_1_CSHL.c ****                     CapSense_1_centroid[CapSense_1_POS_NEXT] = startOfSlider[0u];
1546:.\Generated_Source\PSoC4/CapSense_1_CSHL.c ****                 }
1547:.\Generated_Source\PSoC4/CapSense_1_CSHL.c ****                 else                                /* Not first Not last */
1548:.\Generated_Source\PSoC4/CapSense_1_CSHL.c ****                 {
ARM GAS  C:\Users\Jakob\AppData\Local\Temp\cc5GwTcI.s 			page 61


1549:.\Generated_Source\PSoC4/CapSense_1_CSHL.c ****                     CapSense_1_centroid[CapSense_1_POS_PREV] = startOfSlider[maximum - 1u];
1550:.\Generated_Source\PSoC4/CapSense_1_CSHL.c ****                     CapSense_1_centroid[CapSense_1_POS_NEXT] = startOfSlider[maximum + 1u];
1551:.\Generated_Source\PSoC4/CapSense_1_CSHL.c ****                 }
1552:.\Generated_Source\PSoC4/CapSense_1_CSHL.c ****             #endif /* (CapSense_1_TOTAL_RADIAL_SLIDERS_COUNT > 0u) */
1553:.\Generated_Source\PSoC4/CapSense_1_CSHL.c **** 
1554:.\Generated_Source\PSoC4/CapSense_1_CSHL.c ****         #if (CapSense_1_ADD_SLIDER_TYPE)
1555:.\Generated_Source\PSoC4/CapSense_1_CSHL.c ****             }
1556:.\Generated_Source\PSoC4/CapSense_1_CSHL.c ****             else
1557:.\Generated_Source\PSoC4/CapSense_1_CSHL.c ****             {
1558:.\Generated_Source\PSoC4/CapSense_1_CSHL.c ****         #endif /* (CapSense_1_ADD_SLIDER_TYPE) */
1559:.\Generated_Source\PSoC4/CapSense_1_CSHL.c **** 
1560:.\Generated_Source\PSoC4/CapSense_1_CSHL.c ****             #if ((CapSense_1_TOTAL_LINEAR_SLIDERS_COUNT > 0u) || (CapSense_1_TOTAL_TOUCH_PADS_COUNT
1561:.\Generated_Source\PSoC4/CapSense_1_CSHL.c ****                 #if (CapSense_1_IS_DIPLEX_SLIDER && CapSense_1_IS_NON_DIPLEX_SLIDER)               
1562:.\Generated_Source\PSoC4/CapSense_1_CSHL.c ****                     /* Calculate next and previous near to maximum */
1563:.\Generated_Source\PSoC4/CapSense_1_CSHL.c ****                     if(diplex == 0u)
1564:.\Generated_Source\PSoC4/CapSense_1_CSHL.c ****                     {
1565:.\Generated_Source\PSoC4/CapSense_1_CSHL.c ****                         pos     = maximum;
1566:.\Generated_Source\PSoC4/CapSense_1_CSHL.c ****                         posPrev = maximum - 1u;
1567:.\Generated_Source\PSoC4/CapSense_1_CSHL.c ****                         posNext = maximum + 1u; 
1568:.\Generated_Source\PSoC4/CapSense_1_CSHL.c ****                     }
1569:.\Generated_Source\PSoC4/CapSense_1_CSHL.c ****                     else
1570:.\Generated_Source\PSoC4/CapSense_1_CSHL.c ****                     {
1571:.\Generated_Source\PSoC4/CapSense_1_CSHL.c ****                         pos     = diplex[maximum];
1572:.\Generated_Source\PSoC4/CapSense_1_CSHL.c ****                         posPrev = diplex[maximum - 1u];
1573:.\Generated_Source\PSoC4/CapSense_1_CSHL.c ****                         posNext = diplex[maximum + 1u];
1574:.\Generated_Source\PSoC4/CapSense_1_CSHL.c ****                         count <<= 1u;
1575:.\Generated_Source\PSoC4/CapSense_1_CSHL.c ****                     }                    
1576:.\Generated_Source\PSoC4/CapSense_1_CSHL.c ****                 #elif (CapSense_1_IS_DIPLEX_SLIDER)
1577:.\Generated_Source\PSoC4/CapSense_1_CSHL.c ****                     /* Calculate next and previous near to maximum */
1578:.\Generated_Source\PSoC4/CapSense_1_CSHL.c ****                     pos     = diplex[maximum];
1579:.\Generated_Source\PSoC4/CapSense_1_CSHL.c ****                     posPrev = diplex[maximum - 1u];
1580:.\Generated_Source\PSoC4/CapSense_1_CSHL.c ****                     posNext = diplex[maximum + 1u];
1581:.\Generated_Source\PSoC4/CapSense_1_CSHL.c ****                     count <<= 1u;                    
1582:.\Generated_Source\PSoC4/CapSense_1_CSHL.c ****                 #else                    
1583:.\Generated_Source\PSoC4/CapSense_1_CSHL.c ****                     /* Calculate next and previous near to maximum */
1584:.\Generated_Source\PSoC4/CapSense_1_CSHL.c ****                     if (maximum >= 1u)
1585:.\Generated_Source\PSoC4/CapSense_1_CSHL.c ****                     {
1586:.\Generated_Source\PSoC4/CapSense_1_CSHL.c ****                         posPrev = maximum - 1u;
1587:.\Generated_Source\PSoC4/CapSense_1_CSHL.c ****                     }
1588:.\Generated_Source\PSoC4/CapSense_1_CSHL.c ****                     posNext = maximum + 1u;
1589:.\Generated_Source\PSoC4/CapSense_1_CSHL.c ****                 #endif /* (CapSense_1_IS_DIPLEX_SLIDER && CapSense_1_IS_NON_DIPLEX_SLIDER) */
1590:.\Generated_Source\PSoC4/CapSense_1_CSHL.c ****                         
1591:.\Generated_Source\PSoC4/CapSense_1_CSHL.c ****                 /* Copy Signal to the centroid array */
1592:.\Generated_Source\PSoC4/CapSense_1_CSHL.c ****                 #if (CapSense_1_IS_DIPLEX_SLIDER)
1593:.\Generated_Source\PSoC4/CapSense_1_CSHL.c ****                     CapSense_1_centroid[CapSense_1_POS] = startOfSlider[pos];
1594:.\Generated_Source\PSoC4/CapSense_1_CSHL.c ****                 #else
1595:.\Generated_Source\PSoC4/CapSense_1_CSHL.c ****                     CapSense_1_centroid[CapSense_1_POS] = startOfSlider[maximum];
1596:.\Generated_Source\PSoC4/CapSense_1_CSHL.c ****                 #endif /* (CapSense_1_IS_DIPLEX_SLIDER) */
1597:.\Generated_Source\PSoC4/CapSense_1_CSHL.c ****                     
1598:.\Generated_Source\PSoC4/CapSense_1_CSHL.c ****                 /* Check borders for LINEAR Slider */
1599:.\Generated_Source\PSoC4/CapSense_1_CSHL.c ****                 if (maximum == 0u)                   /* Start of centroid */
1600:.\Generated_Source\PSoC4/CapSense_1_CSHL.c ****                 { 
1601:.\Generated_Source\PSoC4/CapSense_1_CSHL.c ****                     CapSense_1_centroid[CapSense_1_POS_PREV] = 0u;
1602:.\Generated_Source\PSoC4/CapSense_1_CSHL.c ****                     CapSense_1_centroid[CapSense_1_POS_NEXT] = startOfSlider[posNext];
1603:.\Generated_Source\PSoC4/CapSense_1_CSHL.c ****                 }
1604:.\Generated_Source\PSoC4/CapSense_1_CSHL.c ****                 else if (maximum == ((count) - 1u)) /* End of centroid */
1605:.\Generated_Source\PSoC4/CapSense_1_CSHL.c ****                 {
ARM GAS  C:\Users\Jakob\AppData\Local\Temp\cc5GwTcI.s 			page 62


1606:.\Generated_Source\PSoC4/CapSense_1_CSHL.c ****                     CapSense_1_centroid[CapSense_1_POS_PREV] = startOfSlider[posPrev];
1607:.\Generated_Source\PSoC4/CapSense_1_CSHL.c ****                     CapSense_1_centroid[CapSense_1_POS_NEXT] = 0u;
1608:.\Generated_Source\PSoC4/CapSense_1_CSHL.c ****                 }
1609:.\Generated_Source\PSoC4/CapSense_1_CSHL.c ****                 else                                /* Not first Not last */
1610:.\Generated_Source\PSoC4/CapSense_1_CSHL.c ****                 {
1611:.\Generated_Source\PSoC4/CapSense_1_CSHL.c ****                     CapSense_1_centroid[CapSense_1_POS_PREV] = startOfSlider[posPrev];
1612:.\Generated_Source\PSoC4/CapSense_1_CSHL.c ****                     CapSense_1_centroid[CapSense_1_POS_NEXT] = startOfSlider[posNext];
1613:.\Generated_Source\PSoC4/CapSense_1_CSHL.c ****                 }
1614:.\Generated_Source\PSoC4/CapSense_1_CSHL.c ****             #endif /* ((CapSense_1_TOTAL_LINEAR_SLIDERS_COUNT>0u)||(CapSense_1_TOTAL_TOUCH_PADS_COU
1615:.\Generated_Source\PSoC4/CapSense_1_CSHL.c **** 
1616:.\Generated_Source\PSoC4/CapSense_1_CSHL.c ****         #if (CapSense_1_ADD_SLIDER_TYPE)
1617:.\Generated_Source\PSoC4/CapSense_1_CSHL.c ****             }
1618:.\Generated_Source\PSoC4/CapSense_1_CSHL.c ****         #endif /* (CapSense_1_ADD_SLIDER_TYPE) */
1619:.\Generated_Source\PSoC4/CapSense_1_CSHL.c ****     
1620:.\Generated_Source\PSoC4/CapSense_1_CSHL.c ****         /* Subtract noiseThreshold */
1621:.\Generated_Source\PSoC4/CapSense_1_CSHL.c ****         if(CapSense_1_centroid[CapSense_1_POS_PREV] > noiseThreshold)
1622:.\Generated_Source\PSoC4/CapSense_1_CSHL.c ****         {
1623:.\Generated_Source\PSoC4/CapSense_1_CSHL.c ****             CapSense_1_centroid[CapSense_1_POS_PREV] -= noiseThreshold;
1624:.\Generated_Source\PSoC4/CapSense_1_CSHL.c ****         }
1625:.\Generated_Source\PSoC4/CapSense_1_CSHL.c ****         else
1626:.\Generated_Source\PSoC4/CapSense_1_CSHL.c ****         {
1627:.\Generated_Source\PSoC4/CapSense_1_CSHL.c ****             CapSense_1_centroid[CapSense_1_POS_PREV] = 0u;
1628:.\Generated_Source\PSoC4/CapSense_1_CSHL.c ****         }
1629:.\Generated_Source\PSoC4/CapSense_1_CSHL.c ****         
1630:.\Generated_Source\PSoC4/CapSense_1_CSHL.c ****         /* Maximum always greater than fingerThreshold, so greater than noiseThreshold */
1631:.\Generated_Source\PSoC4/CapSense_1_CSHL.c ****         CapSense_1_centroid[CapSense_1_POS] -= noiseThreshold;
1632:.\Generated_Source\PSoC4/CapSense_1_CSHL.c ****         
1633:.\Generated_Source\PSoC4/CapSense_1_CSHL.c ****         /* Subtract noiseThreshold */
1634:.\Generated_Source\PSoC4/CapSense_1_CSHL.c ****         if(CapSense_1_centroid[CapSense_1_POS_NEXT] > noiseThreshold)
1635:.\Generated_Source\PSoC4/CapSense_1_CSHL.c ****         {
1636:.\Generated_Source\PSoC4/CapSense_1_CSHL.c ****             CapSense_1_centroid[CapSense_1_POS_NEXT] -= noiseThreshold;
1637:.\Generated_Source\PSoC4/CapSense_1_CSHL.c ****         }
1638:.\Generated_Source\PSoC4/CapSense_1_CSHL.c ****         else
1639:.\Generated_Source\PSoC4/CapSense_1_CSHL.c ****         {
1640:.\Generated_Source\PSoC4/CapSense_1_CSHL.c ****             CapSense_1_centroid[CapSense_1_POS_NEXT] = 0u;
1641:.\Generated_Source\PSoC4/CapSense_1_CSHL.c ****         }
1642:.\Generated_Source\PSoC4/CapSense_1_CSHL.c ****         
1643:.\Generated_Source\PSoC4/CapSense_1_CSHL.c ****         
1644:.\Generated_Source\PSoC4/CapSense_1_CSHL.c ****         /* Si+1 - Si-1 */
1645:.\Generated_Source\PSoC4/CapSense_1_CSHL.c ****         numerator = (uint32) CapSense_1_centroid[CapSense_1_POS_NEXT] -
1646:.\Generated_Source\PSoC4/CapSense_1_CSHL.c ****                     (uint32) CapSense_1_centroid[CapSense_1_POS_PREV];
1647:.\Generated_Source\PSoC4/CapSense_1_CSHL.c **** 
1648:.\Generated_Source\PSoC4/CapSense_1_CSHL.c ****         /* Si+1 + Si + Si-1 */
1649:.\Generated_Source\PSoC4/CapSense_1_CSHL.c ****         denominator = (int32) CapSense_1_centroid[CapSense_1_POS_PREV] + 
1650:.\Generated_Source\PSoC4/CapSense_1_CSHL.c ****                       (int32) CapSense_1_centroid[CapSense_1_POS] + 
1651:.\Generated_Source\PSoC4/CapSense_1_CSHL.c ****                       (int32) CapSense_1_centroid[CapSense_1_POS_NEXT];
1652:.\Generated_Source\PSoC4/CapSense_1_CSHL.c ****         
1653:.\Generated_Source\PSoC4/CapSense_1_CSHL.c ****         /* (numerator/denominator) + maximum */
1654:.\Generated_Source\PSoC4/CapSense_1_CSHL.c ****         denominator = (((int32)(uint32)((uint32)numerator << 8u)/denominator) + (int32)(uint32)((ui
1655:.\Generated_Source\PSoC4/CapSense_1_CSHL.c **** 
1656:.\Generated_Source\PSoC4/CapSense_1_CSHL.c ****         #if(CapSense_1_TOTAL_RADIAL_SLIDERS_COUNT > 0u)
1657:.\Generated_Source\PSoC4/CapSense_1_CSHL.c ****             /* Only required for RADIAL Slider */
1658:.\Generated_Source\PSoC4/CapSense_1_CSHL.c ****             if(denominator < 0)
1659:.\Generated_Source\PSoC4/CapSense_1_CSHL.c ****             {
1660:.\Generated_Source\PSoC4/CapSense_1_CSHL.c ****                 denominator += (int32)((uint16)((uint16) count << 8u));
1661:.\Generated_Source\PSoC4/CapSense_1_CSHL.c ****             }
1662:.\Generated_Source\PSoC4/CapSense_1_CSHL.c ****         #endif /* (CapSense_1_TOTAL_RADIAL_SLIDERS_COUNT > 0u) */
ARM GAS  C:\Users\Jakob\AppData\Local\Temp\cc5GwTcI.s 			page 63


1663:.\Generated_Source\PSoC4/CapSense_1_CSHL.c ****         
1664:.\Generated_Source\PSoC4/CapSense_1_CSHL.c ****         denominator *= (int16)resolution;
1665:.\Generated_Source\PSoC4/CapSense_1_CSHL.c ****         
1666:.\Generated_Source\PSoC4/CapSense_1_CSHL.c ****         /* Round result and put it to uint8 */
1667:.\Generated_Source\PSoC4/CapSense_1_CSHL.c ****         position = ((uint8) HI16((uint32)denominator + CapSense_1_CENTROID_ROUND_VALUE));
1668:.\Generated_Source\PSoC4/CapSense_1_CSHL.c **** 
1669:.\Generated_Source\PSoC4/CapSense_1_CSHL.c ****         return (position);
1670:.\Generated_Source\PSoC4/CapSense_1_CSHL.c ****     }    
1671:.\Generated_Source\PSoC4/CapSense_1_CSHL.c **** #endif /* (CapSense_1_TOTAL_CENTROIDS_COUNT) */
1672:.\Generated_Source\PSoC4/CapSense_1_CSHL.c **** 
1673:.\Generated_Source\PSoC4/CapSense_1_CSHL.c **** 
1674:.\Generated_Source\PSoC4/CapSense_1_CSHL.c **** #if((CapSense_1_TOTAL_RADIAL_SLIDERS_COUNT > 0u) || (CapSense_1_TOTAL_LINEAR_SLIDERS_COUNT > 0u))
1675:.\Generated_Source\PSoC4/CapSense_1_CSHL.c ****     /*******************************************************************************
1676:.\Generated_Source\PSoC4/CapSense_1_CSHL.c ****     * Function Name: CapSense_1_GetCentroidPos
1677:.\Generated_Source\PSoC4/CapSense_1_CSHL.c ****     ********************************************************************************
1678:.\Generated_Source\PSoC4/CapSense_1_CSHL.c ****     *
1679:.\Generated_Source\PSoC4/CapSense_1_CSHL.c ****     * Summary:
1680:.\Generated_Source\PSoC4/CapSense_1_CSHL.c ****     *  Checks the CapSense_1_Signal[ ] array for a centroid within
1681:.\Generated_Source\PSoC4/CapSense_1_CSHL.c ****     *  a slider specified range. The centroid position is calculated according to the resolution
1682:.\Generated_Source\PSoC4/CapSense_1_CSHL.c ****     *  specified in the CapSense customizer. The position filters are applied to the
1683:.\Generated_Source\PSoC4/CapSense_1_CSHL.c ****     *  result if enabled.
1684:.\Generated_Source\PSoC4/CapSense_1_CSHL.c ****     *
1685:.\Generated_Source\PSoC4/CapSense_1_CSHL.c ****     * Parameters:
1686:.\Generated_Source\PSoC4/CapSense_1_CSHL.c ****     *  widget:  Widget number.
1687:.\Generated_Source\PSoC4/CapSense_1_CSHL.c ****     *  For every linear slider widget there are defines in this format:
1688:.\Generated_Source\PSoC4/CapSense_1_CSHL.c ****     *  #define CapSense_1_"widget_name"__LS           5
1689:.\Generated_Source\PSoC4/CapSense_1_CSHL.c ****     * 
1690:.\Generated_Source\PSoC4/CapSense_1_CSHL.c ****     * Return:
1691:.\Generated_Source\PSoC4/CapSense_1_CSHL.c ****     *  Returns a position value of the linear slider.
1692:.\Generated_Source\PSoC4/CapSense_1_CSHL.c **** 	*
1693:.\Generated_Source\PSoC4/CapSense_1_CSHL.c **** 	* Global Variables:
1694:.\Generated_Source\PSoC4/CapSense_1_CSHL.c **** 	*  None
1695:.\Generated_Source\PSoC4/CapSense_1_CSHL.c **** 	*
1696:.\Generated_Source\PSoC4/CapSense_1_CSHL.c ****     * Side Effects:
1697:.\Generated_Source\PSoC4/CapSense_1_CSHL.c ****     *  If any sensor within the slider widget is active, the function returns values
1698:.\Generated_Source\PSoC4/CapSense_1_CSHL.c ****     *  from zero to the API resolution value set in the CapSense customizer. If no
1699:.\Generated_Source\PSoC4/CapSense_1_CSHL.c ****     *  sensors are active, the function returns 0xFFFF. If an error occurs during
1700:.\Generated_Source\PSoC4/CapSense_1_CSHL.c ****     *  execution of the centroid/diplexing algorithm, the function returns 0xFFFF.
1701:.\Generated_Source\PSoC4/CapSense_1_CSHL.c ****     *  There are no checks of the widget type argument provided to this function.
1702:.\Generated_Source\PSoC4/CapSense_1_CSHL.c ****     *  The unproper widget type provided will cause unexpected position calculations.
1703:.\Generated_Source\PSoC4/CapSense_1_CSHL.c ****     *
1704:.\Generated_Source\PSoC4/CapSense_1_CSHL.c ****     * Note:
1705:.\Generated_Source\PSoC4/CapSense_1_CSHL.c ****     *  If noise counts on the slider segments are greater than the noise
1706:.\Generated_Source\PSoC4/CapSense_1_CSHL.c ****     *  threshold, this subroutine may generate a false centroid result. The noise
1707:.\Generated_Source\PSoC4/CapSense_1_CSHL.c ****     *  threshold should be set carefully (high enough above the noise level) so
1708:.\Generated_Source\PSoC4/CapSense_1_CSHL.c ****     *  that noise will not generate a false centroid.
1709:.\Generated_Source\PSoC4/CapSense_1_CSHL.c ****     *******************************************************************************/
1710:.\Generated_Source\PSoC4/CapSense_1_CSHL.c ****     uint16 CapSense_1_GetCentroidPos(uint32 widget)
1711:.\Generated_Source\PSoC4/CapSense_1_CSHL.c ****     {
1712:.\Generated_Source\PSoC4/CapSense_1_CSHL.c ****         #if (CapSense_1_IS_DIPLEX_SLIDER)
1713:.\Generated_Source\PSoC4/CapSense_1_CSHL.c ****             const uint8 *diplex;
1714:.\Generated_Source\PSoC4/CapSense_1_CSHL.c ****         #endif /* (CapSense_1_IS_DIPLEX_SLIDER) */
1715:.\Generated_Source\PSoC4/CapSense_1_CSHL.c ****                 
1716:.\Generated_Source\PSoC4/CapSense_1_CSHL.c ****         #if (0u != CapSense_1_LINEAR_SLIDERS_POS_FILTERS_MASK)
1717:.\Generated_Source\PSoC4/CapSense_1_CSHL.c ****             uint8 posIndex;
1718:.\Generated_Source\PSoC4/CapSense_1_CSHL.c ****             uint8 firstTimeIndex = CapSense_1_posFiltersData[widget];
1719:.\Generated_Source\PSoC4/CapSense_1_CSHL.c ****             uint8 posFiltersMask = CapSense_1_posFiltersMask[widget];  
ARM GAS  C:\Users\Jakob\AppData\Local\Temp\cc5GwTcI.s 			page 64


1720:.\Generated_Source\PSoC4/CapSense_1_CSHL.c ****         #endif /* (0u != CapSense_1_LINEAR_SLIDERS_POS_FILTERS_MASK) */
1721:.\Generated_Source\PSoC4/CapSense_1_CSHL.c **** 
1722:.\Generated_Source\PSoC4/CapSense_1_CSHL.c ****         #if ((0u != (CapSense_1_MEDIAN_FILTER & CapSense_1_LINEAR_SLIDERS_POS_FILTERS_MASK)) || \
1723:.\Generated_Source\PSoC4/CapSense_1_CSHL.c ****              (0u != (CapSense_1_AVERAGING_FILTER & CapSense_1_LINEAR_SLIDERS_POS_FILTERS_MASK)))
1724:.\Generated_Source\PSoC4/CapSense_1_CSHL.c ****             uint8 tempPos;
1725:.\Generated_Source\PSoC4/CapSense_1_CSHL.c ****         #endif /* ((0u != (CapSense_1_MEDIAN_FILTER & CapSense_1_LINEAR_SLIDERS_POS_FILTERS_MASK)) 
1726:.\Generated_Source\PSoC4/CapSense_1_CSHL.c ****                *   (0u != (CapSense_1_AVERAGING_FILTER & CapSense_1_LINEAR_SLIDERS_POS_FILTERS_MASK
1727:.\Generated_Source\PSoC4/CapSense_1_CSHL.c ****                */
1728:.\Generated_Source\PSoC4/CapSense_1_CSHL.c **** 
1729:.\Generated_Source\PSoC4/CapSense_1_CSHL.c ****         uint8 maximum;
1730:.\Generated_Source\PSoC4/CapSense_1_CSHL.c ****         uint16 position;
1731:.\Generated_Source\PSoC4/CapSense_1_CSHL.c ****         uint8 offset = CapSense_1_rawDataIndex[widget];
1732:.\Generated_Source\PSoC4/CapSense_1_CSHL.c ****         uint8 count = CapSense_1_numberOfSensors[widget];
1733:.\Generated_Source\PSoC4/CapSense_1_CSHL.c ****                         
1734:.\Generated_Source\PSoC4/CapSense_1_CSHL.c ****         #if (CapSense_1_IS_DIPLEX_SLIDER)
1735:.\Generated_Source\PSoC4/CapSense_1_CSHL.c ****             if(widget < CapSense_1_TOTAL_DIPLEXED_SLIDERS_COUNT)
1736:.\Generated_Source\PSoC4/CapSense_1_CSHL.c ****             {
1737:.\Generated_Source\PSoC4/CapSense_1_CSHL.c ****                 maximum = CapSense_1_diplexTable[widget];
1738:.\Generated_Source\PSoC4/CapSense_1_CSHL.c ****                 diplex = &CapSense_1_diplexTable[maximum];
1739:.\Generated_Source\PSoC4/CapSense_1_CSHL.c ****             }
1740:.\Generated_Source\PSoC4/CapSense_1_CSHL.c ****             else
1741:.\Generated_Source\PSoC4/CapSense_1_CSHL.c ****             {
1742:.\Generated_Source\PSoC4/CapSense_1_CSHL.c ****                 diplex = 0u;
1743:.\Generated_Source\PSoC4/CapSense_1_CSHL.c ****             }
1744:.\Generated_Source\PSoC4/CapSense_1_CSHL.c ****         #endif /* (CapSense_1_IS_DIPLEX_SLIDER) */
1745:.\Generated_Source\PSoC4/CapSense_1_CSHL.c **** 
1746:.\Generated_Source\PSoC4/CapSense_1_CSHL.c **** 		/* Find Maximum within centroid */      
1747:.\Generated_Source\PSoC4/CapSense_1_CSHL.c **** 		#if (CapSense_1_IS_DIPLEX_SLIDER)        
1748:.\Generated_Source\PSoC4/CapSense_1_CSHL.c **** 			maximum = CapSense_1_FindMaximum(offset, count, (uint8)CapSense_1_fingerThreshold[widget], diple
1749:.\Generated_Source\PSoC4/CapSense_1_CSHL.c **** 		#else
1750:.\Generated_Source\PSoC4/CapSense_1_CSHL.c **** 			maximum = CapSense_1_FindMaximum(offset, count, (uint8)CapSense_1_fingerThreshold[widget]);
1751:.\Generated_Source\PSoC4/CapSense_1_CSHL.c **** 		#endif /* (CapSense_1_IS_DIPLEX_SLIDER) */
1752:.\Generated_Source\PSoC4/CapSense_1_CSHL.c **** 
1753:.\Generated_Source\PSoC4/CapSense_1_CSHL.c ****         if (maximum != 0xFFu)
1754:.\Generated_Source\PSoC4/CapSense_1_CSHL.c ****         {
1755:.\Generated_Source\PSoC4/CapSense_1_CSHL.c ****             /* Calculate centroid */
1756:.\Generated_Source\PSoC4/CapSense_1_CSHL.c ****             position = (uint16) CapSense_1_CalcCentroid(maximum, 
1757:.\Generated_Source\PSoC4/CapSense_1_CSHL.c ****                          offset, count, CapSense_1_centroidMult[widget], CapSense_1_noiseThreshold[
1758:.\Generated_Source\PSoC4/CapSense_1_CSHL.c **** 
1759:.\Generated_Source\PSoC4/CapSense_1_CSHL.c ****             #if (0u != CapSense_1_LINEAR_SLIDERS_POS_FILTERS_MASK)
1760:.\Generated_Source\PSoC4/CapSense_1_CSHL.c ****                 /* Check if this linear slider has enabled filters */
1761:.\Generated_Source\PSoC4/CapSense_1_CSHL.c ****                 if (0u != (posFiltersMask & CapSense_1_ANY_POS_FILTER))
1762:.\Generated_Source\PSoC4/CapSense_1_CSHL.c ****                 {
1763:.\Generated_Source\PSoC4/CapSense_1_CSHL.c ****                     /* Calculate position to store filters data */
1764:.\Generated_Source\PSoC4/CapSense_1_CSHL.c ****                     posIndex  = firstTimeIndex + 1u;
1765:.\Generated_Source\PSoC4/CapSense_1_CSHL.c ****                     
1766:.\Generated_Source\PSoC4/CapSense_1_CSHL.c ****                     if (0u == CapSense_1_posFiltersData[firstTimeIndex])
1767:.\Generated_Source\PSoC4/CapSense_1_CSHL.c ****                     {
1768:.\Generated_Source\PSoC4/CapSense_1_CSHL.c ****                         /* Init filters */
1769:.\Generated_Source\PSoC4/CapSense_1_CSHL.c ****                         CapSense_1_posFiltersData[posIndex] = (uint8) position;
1770:.\Generated_Source\PSoC4/CapSense_1_CSHL.c ****                         #if ((0u != (CapSense_1_MEDIAN_FILTER & \
1771:.\Generated_Source\PSoC4/CapSense_1_CSHL.c ****                                      CapSense_1_LINEAR_SLIDERS_POS_FILTERS_MASK)) || \
1772:.\Generated_Source\PSoC4/CapSense_1_CSHL.c ****                              (0u != (CapSense_1_AVERAGING_FILTER & \
1773:.\Generated_Source\PSoC4/CapSense_1_CSHL.c ****                                      CapSense_1_LINEAR_SLIDERS_POS_FILTERS_MASK)))
1774:.\Generated_Source\PSoC4/CapSense_1_CSHL.c **** 
1775:.\Generated_Source\PSoC4/CapSense_1_CSHL.c ****                             if ( (0u != (posFiltersMask & CapSense_1_MEDIAN_FILTER)) || 
1776:.\Generated_Source\PSoC4/CapSense_1_CSHL.c ****                                  (0u != (posFiltersMask & CapSense_1_AVERAGING_FILTER)) )
ARM GAS  C:\Users\Jakob\AppData\Local\Temp\cc5GwTcI.s 			page 65


1777:.\Generated_Source\PSoC4/CapSense_1_CSHL.c ****                             {
1778:.\Generated_Source\PSoC4/CapSense_1_CSHL.c ****                                 CapSense_1_posFiltersData[posIndex + 1u] = (uint8) position;
1779:.\Generated_Source\PSoC4/CapSense_1_CSHL.c ****                             }
1780:.\Generated_Source\PSoC4/CapSense_1_CSHL.c ****                         #endif /* ((0u != (CapSense_1_MEDIAN_FILTER & \
1781:.\Generated_Source\PSoC4/CapSense_1_CSHL.c ****                                *           CapSense_1_LINEAR_SLIDERS_POS_FILTERS_MASK)) || \
1782:.\Generated_Source\PSoC4/CapSense_1_CSHL.c ****                                *   (0u != (CapSense_1_AVERAGING_FILTER & \
1783:.\Generated_Source\PSoC4/CapSense_1_CSHL.c ****                                *           CapSense_1_LINEAR_SLIDERS_POS_FILTERS_MASK)))
1784:.\Generated_Source\PSoC4/CapSense_1_CSHL.c ****                                */
1785:.\Generated_Source\PSoC4/CapSense_1_CSHL.c ****                         
1786:.\Generated_Source\PSoC4/CapSense_1_CSHL.c ****                         CapSense_1_posFiltersData[firstTimeIndex] = 1u;
1787:.\Generated_Source\PSoC4/CapSense_1_CSHL.c ****                     }
1788:.\Generated_Source\PSoC4/CapSense_1_CSHL.c ****                     else
1789:.\Generated_Source\PSoC4/CapSense_1_CSHL.c ****                     {
1790:.\Generated_Source\PSoC4/CapSense_1_CSHL.c ****                         /* Do filtering */
1791:.\Generated_Source\PSoC4/CapSense_1_CSHL.c ****                         #if (0u != (CapSense_1_MEDIAN_FILTER & CapSense_1_LINEAR_SLIDERS_POS_FILTER
1792:.\Generated_Source\PSoC4/CapSense_1_CSHL.c ****                             if (0u != (posFiltersMask & CapSense_1_MEDIAN_FILTER))
1793:.\Generated_Source\PSoC4/CapSense_1_CSHL.c ****                             {
1794:.\Generated_Source\PSoC4/CapSense_1_CSHL.c ****                                 tempPos = (uint8) position;
1795:.\Generated_Source\PSoC4/CapSense_1_CSHL.c ****                                 position = CapSense_1_MedianFilter(position,
1796:.\Generated_Source\PSoC4/CapSense_1_CSHL.c ****                                                                 (uint16)CapSense_1_posFiltersData[p
1797:.\Generated_Source\PSoC4/CapSense_1_CSHL.c ****                                                                 (uint16)CapSense_1_posFiltersData[p
1798:.\Generated_Source\PSoC4/CapSense_1_CSHL.c ****                                 CapSense_1_posFiltersData[posIndex + 1u] =
1799:.\Generated_Source\PSoC4/CapSense_1_CSHL.c ****                                                                              CapSense_1_posFiltersD
1800:.\Generated_Source\PSoC4/CapSense_1_CSHL.c ****                                 CapSense_1_posFiltersData[posIndex] = tempPos;
1801:.\Generated_Source\PSoC4/CapSense_1_CSHL.c ****                             }
1802:.\Generated_Source\PSoC4/CapSense_1_CSHL.c ****                         #endif /*(0u != (CapSense_1_MEDIAN_FILTER &
1803:.\Generated_Source\PSoC4/CapSense_1_CSHL.c ****                                *         CapSense_1_LINEAR_SLIDERS_POS_FILTERS_MASK))
1804:.\Generated_Source\PSoC4/CapSense_1_CSHL.c ****                                */
1805:.\Generated_Source\PSoC4/CapSense_1_CSHL.c **** 
1806:.\Generated_Source\PSoC4/CapSense_1_CSHL.c ****                         #if(0u!=(CapSense_1_AVERAGING_FILTER & CapSense_1_LINEAR_SLIDERS_POS_FILTER
1807:.\Generated_Source\PSoC4/CapSense_1_CSHL.c ****                             if (0u != (posFiltersMask & CapSense_1_AVERAGING_FILTER)) 
1808:.\Generated_Source\PSoC4/CapSense_1_CSHL.c ****                             {
1809:.\Generated_Source\PSoC4/CapSense_1_CSHL.c ****                                 tempPos = (uint8) position;
1810:.\Generated_Source\PSoC4/CapSense_1_CSHL.c ****                                 position = CapSense_1_AveragingFilter(position,
1811:.\Generated_Source\PSoC4/CapSense_1_CSHL.c ****                                                                 (uint16)CapSense_1_posFiltersData[p
1812:.\Generated_Source\PSoC4/CapSense_1_CSHL.c ****                                                                 (uint16)CapSense_1_posFiltersData[p
1813:.\Generated_Source\PSoC4/CapSense_1_CSHL.c ****                                 CapSense_1_posFiltersData[posIndex+1u]=CapSense_1_posFiltersData[po
1814:.\Generated_Source\PSoC4/CapSense_1_CSHL.c ****                                 CapSense_1_posFiltersData[posIndex] = tempPos;
1815:.\Generated_Source\PSoC4/CapSense_1_CSHL.c ****                             }
1816:.\Generated_Source\PSoC4/CapSense_1_CSHL.c ****                         #endif /* (0u != (CapSense_1_AVERAGING_FILTER & \
1817:.\Generated_Source\PSoC4/CapSense_1_CSHL.c ****                                *           CapSense_1_LINEAR_SLIDERS_POS_FILTERS_MASK))
1818:.\Generated_Source\PSoC4/CapSense_1_CSHL.c ****                                */
1819:.\Generated_Source\PSoC4/CapSense_1_CSHL.c **** 
1820:.\Generated_Source\PSoC4/CapSense_1_CSHL.c ****                         #if (0u != (CapSense_1_IIR2_FILTER & CapSense_1_LINEAR_SLIDERS_POS_FILTERS_
1821:.\Generated_Source\PSoC4/CapSense_1_CSHL.c ****                             if (0u != (posFiltersMask & CapSense_1_IIR2_FILTER)) 
1822:.\Generated_Source\PSoC4/CapSense_1_CSHL.c ****                             {
1823:.\Generated_Source\PSoC4/CapSense_1_CSHL.c ****                                 position = CapSense_1_IIR2Filter(position,
1824:.\Generated_Source\PSoC4/CapSense_1_CSHL.c ****                                                                     (uint16)CapSense_1_posFiltersDa
1825:.\Generated_Source\PSoC4/CapSense_1_CSHL.c ****                                 CapSense_1_posFiltersData[posIndex] = (uint8) position;
1826:.\Generated_Source\PSoC4/CapSense_1_CSHL.c ****                             }
1827:.\Generated_Source\PSoC4/CapSense_1_CSHL.c ****                         #endif /* (0u != (CapSense_1_IIR2_FILTER & \
1828:.\Generated_Source\PSoC4/CapSense_1_CSHL.c ****                                *          CapSense_1_LINEAR_SLIDERS_POS_FILTERS_MASK))
1829:.\Generated_Source\PSoC4/CapSense_1_CSHL.c ****                                */
1830:.\Generated_Source\PSoC4/CapSense_1_CSHL.c **** 
1831:.\Generated_Source\PSoC4/CapSense_1_CSHL.c ****                         #if (0u != (CapSense_1_IIR4_FILTER & CapSense_1_LINEAR_SLIDERS_POS_FILTERS_
1832:.\Generated_Source\PSoC4/CapSense_1_CSHL.c ****                             if (0u != (posFiltersMask & CapSense_1_IIR4_FILTER))
1833:.\Generated_Source\PSoC4/CapSense_1_CSHL.c ****                             {
ARM GAS  C:\Users\Jakob\AppData\Local\Temp\cc5GwTcI.s 			page 66


1834:.\Generated_Source\PSoC4/CapSense_1_CSHL.c ****                                 position = CapSense_1_IIR4Filter(position,
1835:.\Generated_Source\PSoC4/CapSense_1_CSHL.c ****                                                                     (uint16)CapSense_1_posFiltersDa
1836:.\Generated_Source\PSoC4/CapSense_1_CSHL.c ****                                 CapSense_1_posFiltersData[posIndex] = (uint8) position;
1837:.\Generated_Source\PSoC4/CapSense_1_CSHL.c ****                             }                                
1838:.\Generated_Source\PSoC4/CapSense_1_CSHL.c ****                         #endif /* (0u != (CapSense_1_IIR4_FILTER & \
1839:.\Generated_Source\PSoC4/CapSense_1_CSHL.c ****                                *          CapSense_1_LINEAR_SLIDERS_POS_FILTERS_MASK))
1840:.\Generated_Source\PSoC4/CapSense_1_CSHL.c ****                                */
1841:.\Generated_Source\PSoC4/CapSense_1_CSHL.c **** 
1842:.\Generated_Source\PSoC4/CapSense_1_CSHL.c ****                         #if (0u != (CapSense_1_JITTER_FILTER & CapSense_1_LINEAR_SLIDERS_POS_FILTER
1843:.\Generated_Source\PSoC4/CapSense_1_CSHL.c ****                             if (0u != (posFiltersMask & CapSense_1_JITTER_FILTER))
1844:.\Generated_Source\PSoC4/CapSense_1_CSHL.c ****                             {
1845:.\Generated_Source\PSoC4/CapSense_1_CSHL.c ****                                 position = CapSense_1_JitterFilter(position,
1846:.\Generated_Source\PSoC4/CapSense_1_CSHL.c ****                                                                     (uint16)CapSense_1_posFiltersDa
1847:.\Generated_Source\PSoC4/CapSense_1_CSHL.c ****                                 CapSense_1_posFiltersData[posIndex] = (uint8) position;
1848:.\Generated_Source\PSoC4/CapSense_1_CSHL.c ****                             }
1849:.\Generated_Source\PSoC4/CapSense_1_CSHL.c ****                         #endif /* (0u != (CapSense_1_JITTER_FILTER & \
1850:.\Generated_Source\PSoC4/CapSense_1_CSHL.c ****                                *           CapSense_1_LINEAR_SLIDERS_POS_FILTERS_MASK))
1851:.\Generated_Source\PSoC4/CapSense_1_CSHL.c ****                                */
1852:.\Generated_Source\PSoC4/CapSense_1_CSHL.c ****                     }
1853:.\Generated_Source\PSoC4/CapSense_1_CSHL.c ****                 }
1854:.\Generated_Source\PSoC4/CapSense_1_CSHL.c ****             #endif /* (0u != CapSense_1_LINEAR_SLIDERS_POS_FILTERS_MASK) */
1855:.\Generated_Source\PSoC4/CapSense_1_CSHL.c **** 
1856:.\Generated_Source\PSoC4/CapSense_1_CSHL.c ****         }
1857:.\Generated_Source\PSoC4/CapSense_1_CSHL.c ****         else
1858:.\Generated_Source\PSoC4/CapSense_1_CSHL.c ****         {
1859:.\Generated_Source\PSoC4/CapSense_1_CSHL.c ****             /* Maximum wasn't found */
1860:.\Generated_Source\PSoC4/CapSense_1_CSHL.c ****             position = 0xFFFFu;
1861:.\Generated_Source\PSoC4/CapSense_1_CSHL.c **** 
1862:.\Generated_Source\PSoC4/CapSense_1_CSHL.c ****             #if(0u != CapSense_1_LINEAR_SLIDERS_POS_FILTERS_MASK)
1863:.\Generated_Source\PSoC4/CapSense_1_CSHL.c ****                 /* Reset filters */
1864:.\Generated_Source\PSoC4/CapSense_1_CSHL.c ****                 if(0u != (posFiltersMask & CapSense_1_ANY_POS_FILTER))
1865:.\Generated_Source\PSoC4/CapSense_1_CSHL.c ****                 {
1866:.\Generated_Source\PSoC4/CapSense_1_CSHL.c ****                     CapSense_1_posFiltersData[firstTimeIndex] = 0u;
1867:.\Generated_Source\PSoC4/CapSense_1_CSHL.c ****                 }
1868:.\Generated_Source\PSoC4/CapSense_1_CSHL.c ****             #endif /* (0u != CapSense_1_LINEAR_SLIDERS_POS_FILTERS_MASK) */
1869:.\Generated_Source\PSoC4/CapSense_1_CSHL.c ****         }
1870:.\Generated_Source\PSoC4/CapSense_1_CSHL.c **** 
1871:.\Generated_Source\PSoC4/CapSense_1_CSHL.c ****         
1872:.\Generated_Source\PSoC4/CapSense_1_CSHL.c ****         return (position);
1873:.\Generated_Source\PSoC4/CapSense_1_CSHL.c ****     }
1874:.\Generated_Source\PSoC4/CapSense_1_CSHL.c **** #endif /* ((CapSense_1_TOTAL_RADIAL_SLIDERS_COUNT > 0u) || (CapSense_1_TOTAL_LINEAR_SLIDERS_COUNT >
1875:.\Generated_Source\PSoC4/CapSense_1_CSHL.c **** 
1876:.\Generated_Source\PSoC4/CapSense_1_CSHL.c **** 
1877:.\Generated_Source\PSoC4/CapSense_1_CSHL.c **** #if((CapSense_1_TOTAL_RADIAL_SLIDERS_COUNT > 0u) || (CapSense_1_TOTAL_LINEAR_SLIDERS_COUNT > 0u))
1878:.\Generated_Source\PSoC4/CapSense_1_CSHL.c ****     /*******************************************************************************
1879:.\Generated_Source\PSoC4/CapSense_1_CSHL.c ****     * Function Name: CapSense_1_GetRadialCentroidPos
1880:.\Generated_Source\PSoC4/CapSense_1_CSHL.c ****     ********************************************************************************
1881:.\Generated_Source\PSoC4/CapSense_1_CSHL.c ****     *
1882:.\Generated_Source\PSoC4/CapSense_1_CSHL.c ****     * Summary:
1883:.\Generated_Source\PSoC4/CapSense_1_CSHL.c ****     *  Checks the CapSense_1_Signal[ ] array for a centroid within
1884:.\Generated_Source\PSoC4/CapSense_1_CSHL.c ****     *  a slider specified range. The centroid position is calculated according to the resolution
1885:.\Generated_Source\PSoC4/CapSense_1_CSHL.c ****     *  specified in the CapSense customizer. The position filters are applied to the
1886:.\Generated_Source\PSoC4/CapSense_1_CSHL.c ****     *  result if enabled.
1887:.\Generated_Source\PSoC4/CapSense_1_CSHL.c ****     *
1888:.\Generated_Source\PSoC4/CapSense_1_CSHL.c ****     * Parameters:
1889:.\Generated_Source\PSoC4/CapSense_1_CSHL.c ****     *  widget:  Widget number.
1890:.\Generated_Source\PSoC4/CapSense_1_CSHL.c ****     *  For every radial slider widget there are defines in this format:
ARM GAS  C:\Users\Jakob\AppData\Local\Temp\cc5GwTcI.s 			page 67


1891:.\Generated_Source\PSoC4/CapSense_1_CSHL.c ****     *  #define CapSense_1_"widget_name"__RS           5
1892:.\Generated_Source\PSoC4/CapSense_1_CSHL.c ****     * 
1893:.\Generated_Source\PSoC4/CapSense_1_CSHL.c ****     * Return:
1894:.\Generated_Source\PSoC4/CapSense_1_CSHL.c ****     *  Returns a position value of the radial slider.
1895:.\Generated_Source\PSoC4/CapSense_1_CSHL.c ****     *
1896:.\Generated_Source\PSoC4/CapSense_1_CSHL.c **** 	* Global Variables:
1897:.\Generated_Source\PSoC4/CapSense_1_CSHL.c **** 	*  None.
1898:.\Generated_Source\PSoC4/CapSense_1_CSHL.c **** 	*
1899:.\Generated_Source\PSoC4/CapSense_1_CSHL.c ****     * Side Effects:
1900:.\Generated_Source\PSoC4/CapSense_1_CSHL.c ****     *  If any sensor within the slider widget is active, the function returns values
1901:.\Generated_Source\PSoC4/CapSense_1_CSHL.c ****     *  from zero to the API resolution value set in the CapSense customizer. If no
1902:.\Generated_Source\PSoC4/CapSense_1_CSHL.c ****     *  sensors are active, the function returns 0xFFFF.
1903:.\Generated_Source\PSoC4/CapSense_1_CSHL.c ****     *  There are no checks of the widget type argument provided to this function.
1904:.\Generated_Source\PSoC4/CapSense_1_CSHL.c ****     *  The unproper widget type provided will cause unexpected position calculations.
1905:.\Generated_Source\PSoC4/CapSense_1_CSHL.c ****     *
1906:.\Generated_Source\PSoC4/CapSense_1_CSHL.c ****     * Note:
1907:.\Generated_Source\PSoC4/CapSense_1_CSHL.c ****     *  If noise counts on the slider segments are greater than the noise
1908:.\Generated_Source\PSoC4/CapSense_1_CSHL.c ****     *  threshold, this subroutine may generate a false centroid result. The noise
1909:.\Generated_Source\PSoC4/CapSense_1_CSHL.c ****     *  threshold should be set carefully (high enough above the noise level) so 
1910:.\Generated_Source\PSoC4/CapSense_1_CSHL.c ****     *  that noise will not generate a false centroid.
1911:.\Generated_Source\PSoC4/CapSense_1_CSHL.c ****     *
1912:.\Generated_Source\PSoC4/CapSense_1_CSHL.c ****     *******************************************************************************/
1913:.\Generated_Source\PSoC4/CapSense_1_CSHL.c ****      uint16 CapSense_1_GetRadialCentroidPos(uint32 widget)
1914:.\Generated_Source\PSoC4/CapSense_1_CSHL.c ****     {
1915:.\Generated_Source\PSoC4/CapSense_1_CSHL.c ****         #if (0u != CapSense_1_RADIAL_SLIDERS_POS_FILTERS_MASK)
1916:.\Generated_Source\PSoC4/CapSense_1_CSHL.c ****             uint8 posIndex;
1917:.\Generated_Source\PSoC4/CapSense_1_CSHL.c ****             uint8 firstTimeIndex = CapSense_1_posFiltersData[widget];
1918:.\Generated_Source\PSoC4/CapSense_1_CSHL.c ****             uint8 posFiltersMask = CapSense_1_posFiltersMask[widget]; 
1919:.\Generated_Source\PSoC4/CapSense_1_CSHL.c ****         #endif /* (0u != CapSense_1_RADIAL_SLIDERS_POS_FILTERS_MASK) */
1920:.\Generated_Source\PSoC4/CapSense_1_CSHL.c **** 
1921:.\Generated_Source\PSoC4/CapSense_1_CSHL.c ****         #if ((0u != (CapSense_1_MEDIAN_FILTER & CapSense_1_RADIAL_SLIDERS_POS_FILTERS_MASK)) || \
1922:.\Generated_Source\PSoC4/CapSense_1_CSHL.c ****              (0u != (CapSense_1_AVERAGING_FILTER & CapSense_1_RADIAL_SLIDERS_POS_FILTERS_MASK)))
1923:.\Generated_Source\PSoC4/CapSense_1_CSHL.c ****             uint8 tempPos;
1924:.\Generated_Source\PSoC4/CapSense_1_CSHL.c ****         #endif /* ((0u != (CapSense_1_MEDIAN_FILTER & CapSense_1_RADIAL_SLIDERS_POS_FILTERS_MASK)) 
1925:.\Generated_Source\PSoC4/CapSense_1_CSHL.c ****                *   (0u != (CapSense_1_AVERAGING_FILTER & CapSense_1_RADIAL_SLIDERS_POS_FILTERS_MASK
1926:.\Generated_Source\PSoC4/CapSense_1_CSHL.c ****                */
1927:.\Generated_Source\PSoC4/CapSense_1_CSHL.c **** 
1928:.\Generated_Source\PSoC4/CapSense_1_CSHL.c ****         uint8 maximum;
1929:.\Generated_Source\PSoC4/CapSense_1_CSHL.c ****         uint16 position;
1930:.\Generated_Source\PSoC4/CapSense_1_CSHL.c ****         uint8 offset = CapSense_1_rawDataIndex[widget];
1931:.\Generated_Source\PSoC4/CapSense_1_CSHL.c ****         uint8 count = CapSense_1_numberOfSensors[widget];
1932:.\Generated_Source\PSoC4/CapSense_1_CSHL.c **** 
1933:.\Generated_Source\PSoC4/CapSense_1_CSHL.c **** 		/* Find Maximum within centroid */      
1934:.\Generated_Source\PSoC4/CapSense_1_CSHL.c **** 		#if (CapSense_1_IS_DIPLEX_SLIDER)        
1935:.\Generated_Source\PSoC4/CapSense_1_CSHL.c **** 			maximum = CapSense_1_FindMaximum(offset, count, (uint8)CapSense_1_fingerThreshold[widget], 0u);
1936:.\Generated_Source\PSoC4/CapSense_1_CSHL.c **** 		#else
1937:.\Generated_Source\PSoC4/CapSense_1_CSHL.c **** 			maximum = CapSense_1_FindMaximum(offset, count, (uint8)CapSense_1_fingerThreshold[widget]);
1938:.\Generated_Source\PSoC4/CapSense_1_CSHL.c **** 		#endif /* (CapSense_1_IS_DIPLEX_SLIDER) */
1939:.\Generated_Source\PSoC4/CapSense_1_CSHL.c ****         
1940:.\Generated_Source\PSoC4/CapSense_1_CSHL.c ****         if (maximum != CapSense_1_MAXIMUM_CENTROID)
1941:.\Generated_Source\PSoC4/CapSense_1_CSHL.c ****         {
1942:.\Generated_Source\PSoC4/CapSense_1_CSHL.c ****             /* Calculate centroid */
1943:.\Generated_Source\PSoC4/CapSense_1_CSHL.c ****             position = (uint16) CapSense_1_CalcCentroid(maximum, 
1944:.\Generated_Source\PSoC4/CapSense_1_CSHL.c ****                          offset, count, CapSense_1_centroidMult[widget], CapSense_1_noiseThreshold[
1945:.\Generated_Source\PSoC4/CapSense_1_CSHL.c **** 
1946:.\Generated_Source\PSoC4/CapSense_1_CSHL.c ****             #if (0u != CapSense_1_RADIAL_SLIDERS_POS_FILTERS_MASK)
1947:.\Generated_Source\PSoC4/CapSense_1_CSHL.c ****                 /* Check if this Radial slider has enabled filters */
ARM GAS  C:\Users\Jakob\AppData\Local\Temp\cc5GwTcI.s 			page 68


1948:.\Generated_Source\PSoC4/CapSense_1_CSHL.c ****                 if (0u != (posFiltersMask & CapSense_1_ANY_POS_FILTER))
1949:.\Generated_Source\PSoC4/CapSense_1_CSHL.c ****                 {
1950:.\Generated_Source\PSoC4/CapSense_1_CSHL.c ****                     /* Calculate position to store filters data */
1951:.\Generated_Source\PSoC4/CapSense_1_CSHL.c ****                     posIndex  = firstTimeIndex + 1u;
1952:.\Generated_Source\PSoC4/CapSense_1_CSHL.c ****                     
1953:.\Generated_Source\PSoC4/CapSense_1_CSHL.c ****                     if (0u == CapSense_1_posFiltersData[firstTimeIndex])
1954:.\Generated_Source\PSoC4/CapSense_1_CSHL.c ****                     {
1955:.\Generated_Source\PSoC4/CapSense_1_CSHL.c ****                         /* Init filters */
1956:.\Generated_Source\PSoC4/CapSense_1_CSHL.c ****                         CapSense_1_posFiltersData[posIndex] = (uint8) position;
1957:.\Generated_Source\PSoC4/CapSense_1_CSHL.c ****                         #if ((0u != (CapSense_1_MEDIAN_FILTER & \
1958:.\Generated_Source\PSoC4/CapSense_1_CSHL.c ****                                      CapSense_1_RADIAL_SLIDERS_POS_FILTERS_MASK)) || \
1959:.\Generated_Source\PSoC4/CapSense_1_CSHL.c ****                              (0u != (CapSense_1_AVERAGING_FILTER & \
1960:.\Generated_Source\PSoC4/CapSense_1_CSHL.c ****                                      CapSense_1_RADIAL_SLIDERS_POS_FILTERS_MASK)))
1961:.\Generated_Source\PSoC4/CapSense_1_CSHL.c **** 
1962:.\Generated_Source\PSoC4/CapSense_1_CSHL.c ****                             if ( (0u != (posFiltersMask & CapSense_1_MEDIAN_FILTER))  || 
1963:.\Generated_Source\PSoC4/CapSense_1_CSHL.c ****                                  (0u != (posFiltersMask & CapSense_1_AVERAGING_FILTER)) )
1964:.\Generated_Source\PSoC4/CapSense_1_CSHL.c ****                             {
1965:.\Generated_Source\PSoC4/CapSense_1_CSHL.c ****                                 CapSense_1_posFiltersData[posIndex + 1u] = (uint8) position;
1966:.\Generated_Source\PSoC4/CapSense_1_CSHL.c ****                             }
1967:.\Generated_Source\PSoC4/CapSense_1_CSHL.c ****                         #endif /* ((0u != (CapSense_1_MEDIAN_FILTER & \
1968:.\Generated_Source\PSoC4/CapSense_1_CSHL.c ****                                *           CapSense_1_RADIAL_SLIDERS_POS_FILTERS_MASK)) || \
1969:.\Generated_Source\PSoC4/CapSense_1_CSHL.c ****                                *   (0u != (CapSense_1_AVERAGING_FILTER & \
1970:.\Generated_Source\PSoC4/CapSense_1_CSHL.c ****                                *           CapSense_1_RADIAL_SLIDERS_POS_FILTERS_MASK)))
1971:.\Generated_Source\PSoC4/CapSense_1_CSHL.c ****                                */
1972:.\Generated_Source\PSoC4/CapSense_1_CSHL.c ****                         
1973:.\Generated_Source\PSoC4/CapSense_1_CSHL.c ****                         CapSense_1_posFiltersData[firstTimeIndex] = 1u;
1974:.\Generated_Source\PSoC4/CapSense_1_CSHL.c ****                     }
1975:.\Generated_Source\PSoC4/CapSense_1_CSHL.c ****                     else
1976:.\Generated_Source\PSoC4/CapSense_1_CSHL.c ****                     {
1977:.\Generated_Source\PSoC4/CapSense_1_CSHL.c ****                         /* Do filtering */
1978:.\Generated_Source\PSoC4/CapSense_1_CSHL.c ****                         #if (0u != (CapSense_1_MEDIAN_FILTER & CapSense_1_RADIAL_SLIDERS_POS_FILTER
1979:.\Generated_Source\PSoC4/CapSense_1_CSHL.c ****                             if (0u != (posFiltersMask & CapSense_1_MEDIAN_FILTER))
1980:.\Generated_Source\PSoC4/CapSense_1_CSHL.c ****                             {
1981:.\Generated_Source\PSoC4/CapSense_1_CSHL.c ****                                 tempPos = (uint8) position;
1982:.\Generated_Source\PSoC4/CapSense_1_CSHL.c ****                                 position = CapSense_1_MedianFilter(position,
1983:.\Generated_Source\PSoC4/CapSense_1_CSHL.c ****                                                                         CapSense_1_posFiltersData[p
1984:.\Generated_Source\PSoC4/CapSense_1_CSHL.c ****                                                                         CapSense_1_posFiltersData[p
1985:.\Generated_Source\PSoC4/CapSense_1_CSHL.c ****                                 CapSense_1_posFiltersData[posIndex + 1u] = 
1986:.\Generated_Source\PSoC4/CapSense_1_CSHL.c ****                                                                               CapSense_1_posFilters
1987:.\Generated_Source\PSoC4/CapSense_1_CSHL.c ****                                 CapSense_1_posFiltersData[posIndex] = tempPos;
1988:.\Generated_Source\PSoC4/CapSense_1_CSHL.c ****                             }
1989:.\Generated_Source\PSoC4/CapSense_1_CSHL.c ****                         #endif /* (0u != (CapSense_1_MEDIAN_FILTER & 
1990:.\Generated_Source\PSoC4/CapSense_1_CSHL.c ****                                *          CapSense_1_RADIAL_SLIDERS_POS_FILTERS_MASK))
1991:.\Generated_Source\PSoC4/CapSense_1_CSHL.c ****                                */
1992:.\Generated_Source\PSoC4/CapSense_1_CSHL.c **** 
1993:.\Generated_Source\PSoC4/CapSense_1_CSHL.c ****                         #if (0u != (CapSense_1_AVERAGING_FILTER & \
1994:.\Generated_Source\PSoC4/CapSense_1_CSHL.c ****                                     CapSense_1_RADIAL_SLIDERS_POS_FILTERS_MASK))
1995:.\Generated_Source\PSoC4/CapSense_1_CSHL.c ****                             if (0u != (posFiltersMask & CapSense_1_AVERAGING_FILTER))
1996:.\Generated_Source\PSoC4/CapSense_1_CSHL.c ****                             {
1997:.\Generated_Source\PSoC4/CapSense_1_CSHL.c ****                                 tempPos = (uint8) position;
1998:.\Generated_Source\PSoC4/CapSense_1_CSHL.c ****                                 position = CapSense_1_AveragingFilter(position, 
1999:.\Generated_Source\PSoC4/CapSense_1_CSHL.c ****                                                                        CapSense_1_posFiltersData[po
2000:.\Generated_Source\PSoC4/CapSense_1_CSHL.c ****                                                                        CapSense_1_posFiltersData[po
2001:.\Generated_Source\PSoC4/CapSense_1_CSHL.c ****                                 CapSense_1_posFiltersData[posIndex+1u]= CapSense_1_posFiltersData[p
2002:.\Generated_Source\PSoC4/CapSense_1_CSHL.c ****                                 CapSense_1_posFiltersData[posIndex] = tempPos;
2003:.\Generated_Source\PSoC4/CapSense_1_CSHL.c ****                             }
2004:.\Generated_Source\PSoC4/CapSense_1_CSHL.c ****                         #endif /* (0u != (CapSense_1_AVERAGING_FILTER & \
ARM GAS  C:\Users\Jakob\AppData\Local\Temp\cc5GwTcI.s 			page 69


2005:.\Generated_Source\PSoC4/CapSense_1_CSHL.c ****                                *          CapSense_1_RADIAL_SLIDERS_POS_FILTERS_MASK))
2006:.\Generated_Source\PSoC4/CapSense_1_CSHL.c ****                                */
2007:.\Generated_Source\PSoC4/CapSense_1_CSHL.c **** 
2008:.\Generated_Source\PSoC4/CapSense_1_CSHL.c ****                         #if (0u != (CapSense_1_IIR2_FILTER & CapSense_1_RADIAL_SLIDERS_POS_FILTERS_
2009:.\Generated_Source\PSoC4/CapSense_1_CSHL.c ****                             if (0u != (posFiltersMask & CapSense_1_IIR2_FILTER))
2010:.\Generated_Source\PSoC4/CapSense_1_CSHL.c ****                             {
2011:.\Generated_Source\PSoC4/CapSense_1_CSHL.c ****                                 position = CapSense_1_IIR2Filter(position,
2012:.\Generated_Source\PSoC4/CapSense_1_CSHL.c ****                                                                     (uint16)CapSense_1_posFiltersDa
2013:.\Generated_Source\PSoC4/CapSense_1_CSHL.c ****                                 CapSense_1_posFiltersData[posIndex] = (uint8) position;
2014:.\Generated_Source\PSoC4/CapSense_1_CSHL.c ****                             }
2015:.\Generated_Source\PSoC4/CapSense_1_CSHL.c ****                         #endif /* (0u != (CapSense_1_IIR2_FILTER & 
2016:.\Generated_Source\PSoC4/CapSense_1_CSHL.c ****                                *          CapSense_1_RADIAL_SLIDERS_POS_FILTERS_MASK))
2017:.\Generated_Source\PSoC4/CapSense_1_CSHL.c ****                                */
2018:.\Generated_Source\PSoC4/CapSense_1_CSHL.c **** 
2019:.\Generated_Source\PSoC4/CapSense_1_CSHL.c ****                         #if (0u != (CapSense_1_IIR4_FILTER & CapSense_1_RADIAL_SLIDERS_POS_FILTERS_
2020:.\Generated_Source\PSoC4/CapSense_1_CSHL.c ****                             if (0u != (posFiltersMask & CapSense_1_IIR4_FILTER))
2021:.\Generated_Source\PSoC4/CapSense_1_CSHL.c ****                             {
2022:.\Generated_Source\PSoC4/CapSense_1_CSHL.c ****                                 position = CapSense_1_IIR4Filter(position,
2023:.\Generated_Source\PSoC4/CapSense_1_CSHL.c ****                                                                     (uint16)CapSense_1_posFiltersDa
2024:.\Generated_Source\PSoC4/CapSense_1_CSHL.c ****                                 CapSense_1_posFiltersData[posIndex] = (uint8) position;
2025:.\Generated_Source\PSoC4/CapSense_1_CSHL.c ****                             }
2026:.\Generated_Source\PSoC4/CapSense_1_CSHL.c ****                         #endif /* (0u != (CapSense_1_IIR4_FILTER & 
2027:.\Generated_Source\PSoC4/CapSense_1_CSHL.c ****                                *          CapSense_1_RADIAL_SLIDERS_POS_FILTERS_MASK))
2028:.\Generated_Source\PSoC4/CapSense_1_CSHL.c ****                                */
2029:.\Generated_Source\PSoC4/CapSense_1_CSHL.c **** 
2030:.\Generated_Source\PSoC4/CapSense_1_CSHL.c ****                         #if (0u != (CapSense_1_JITTER_FILTER & CapSense_1_RADIAL_SLIDERS_POS_FILTER
2031:.\Generated_Source\PSoC4/CapSense_1_CSHL.c ****                             if (0u != (posFiltersMask & CapSense_1_JITTER_FILTER))
2032:.\Generated_Source\PSoC4/CapSense_1_CSHL.c ****                             {
2033:.\Generated_Source\PSoC4/CapSense_1_CSHL.c ****                                 position = CapSense_1_JitterFilter(position, 
2034:.\Generated_Source\PSoC4/CapSense_1_CSHL.c ****                                                                          CapSense_1_posFiltersData[
2035:.\Generated_Source\PSoC4/CapSense_1_CSHL.c ****                                 CapSense_1_posFiltersData[posIndex] = (uint8) position;
2036:.\Generated_Source\PSoC4/CapSense_1_CSHL.c ****                             }
2037:.\Generated_Source\PSoC4/CapSense_1_CSHL.c ****                         #endif /* (0u != (CapSense_1_JITTER_FILTER &
2038:.\Generated_Source\PSoC4/CapSense_1_CSHL.c ****                                *           CapSense_1_RADIAL_SLIDERS_POS_FILTERS_MASK))
2039:.\Generated_Source\PSoC4/CapSense_1_CSHL.c ****                                */
2040:.\Generated_Source\PSoC4/CapSense_1_CSHL.c ****                     }
2041:.\Generated_Source\PSoC4/CapSense_1_CSHL.c ****                 }
2042:.\Generated_Source\PSoC4/CapSense_1_CSHL.c ****             #endif /* (0u != CapSense_1_RADIAL_SLIDERS_POS_FILTERS_MASK) */
2043:.\Generated_Source\PSoC4/CapSense_1_CSHL.c **** 
2044:.\Generated_Source\PSoC4/CapSense_1_CSHL.c ****         }
2045:.\Generated_Source\PSoC4/CapSense_1_CSHL.c ****         else
2046:.\Generated_Source\PSoC4/CapSense_1_CSHL.c ****         {
2047:.\Generated_Source\PSoC4/CapSense_1_CSHL.c ****             /* Maximum wasn't found?? */
2048:.\Generated_Source\PSoC4/CapSense_1_CSHL.c ****             position = 0xFFFFu;
2049:.\Generated_Source\PSoC4/CapSense_1_CSHL.c **** 
2050:.\Generated_Source\PSoC4/CapSense_1_CSHL.c ****             #if (0u != CapSense_1_RADIAL_SLIDERS_POS_FILTERS_MASK)
2051:.\Generated_Source\PSoC4/CapSense_1_CSHL.c ****                 /* Reset filters */
2052:.\Generated_Source\PSoC4/CapSense_1_CSHL.c ****                 if((posFiltersMask & CapSense_1_ANY_POS_FILTER) != 0u)
2053:.\Generated_Source\PSoC4/CapSense_1_CSHL.c ****                 {
2054:.\Generated_Source\PSoC4/CapSense_1_CSHL.c ****                     CapSense_1_posFiltersData[firstTimeIndex] = 0u;
2055:.\Generated_Source\PSoC4/CapSense_1_CSHL.c ****                 }
2056:.\Generated_Source\PSoC4/CapSense_1_CSHL.c ****             #endif /* (0u != CapSense_1_RADIAL_SLIDERS_POS_FILTERS_MASK) */
2057:.\Generated_Source\PSoC4/CapSense_1_CSHL.c ****         }
2058:.\Generated_Source\PSoC4/CapSense_1_CSHL.c ****         
2059:.\Generated_Source\PSoC4/CapSense_1_CSHL.c ****         return (position);
2060:.\Generated_Source\PSoC4/CapSense_1_CSHL.c ****     }
2061:.\Generated_Source\PSoC4/CapSense_1_CSHL.c **** #endif /* ((CapSense_1_TOTAL_RADIAL_SLIDERS_COUNT > 0u) || (CapSense_1_TOTAL_LINEAR_SLIDERS_COUNT >
ARM GAS  C:\Users\Jakob\AppData\Local\Temp\cc5GwTcI.s 			page 70


2062:.\Generated_Source\PSoC4/CapSense_1_CSHL.c **** 
2063:.\Generated_Source\PSoC4/CapSense_1_CSHL.c **** 
2064:.\Generated_Source\PSoC4/CapSense_1_CSHL.c **** #if(CapSense_1_TOTAL_TOUCH_PADS_COUNT > 0u)
2065:.\Generated_Source\PSoC4/CapSense_1_CSHL.c ****     /*******************************************************************************
2066:.\Generated_Source\PSoC4/CapSense_1_CSHL.c ****     * Function Name: CapSense_1_GetTouchCentroidPos
2067:.\Generated_Source\PSoC4/CapSense_1_CSHL.c ****     ********************************************************************************
2068:.\Generated_Source\PSoC4/CapSense_1_CSHL.c ****     *
2069:.\Generated_Source\PSoC4/CapSense_1_CSHL.c ****     * Summary:
2070:.\Generated_Source\PSoC4/CapSense_1_CSHL.c ****     *  If a finger is present on a touchpad, this function calculates the X and Y
2071:.\Generated_Source\PSoC4/CapSense_1_CSHL.c ****     *  position of the finger by calculating the centroids within touchpad specified
2072:.\Generated_Source\PSoC4/CapSense_1_CSHL.c ****     *  range. The X and Y positions are calculated according to the API resolutions set in the
2073:.\Generated_Source\PSoC4/CapSense_1_CSHL.c ****     *  CapSense customizer. Returns 1 if a finger is on the touchpad.
2074:.\Generated_Source\PSoC4/CapSense_1_CSHL.c ****     *  The position filter is applied to the result if enabled.
2075:.\Generated_Source\PSoC4/CapSense_1_CSHL.c ****     *  This function is available only if a touch pad is defined by the CapSense
2076:.\Generated_Source\PSoC4/CapSense_1_CSHL.c ****     *  customizer.
2077:.\Generated_Source\PSoC4/CapSense_1_CSHL.c ****     *
2078:.\Generated_Source\PSoC4/CapSense_1_CSHL.c ****     * Parameters:
2079:.\Generated_Source\PSoC4/CapSense_1_CSHL.c ****     *  widget:  Widget number. 
2080:.\Generated_Source\PSoC4/CapSense_1_CSHL.c ****     *  For every touchpad widget there are defines in this format:
2081:.\Generated_Source\PSoC4/CapSense_1_CSHL.c ****     *  #define CapSense_1_"widget_name"__TP            5
2082:.\Generated_Source\PSoC4/CapSense_1_CSHL.c ****     *
2083:.\Generated_Source\PSoC4/CapSense_1_CSHL.c ****     *  pos:     Pointer to the array of two uint16 elements, where result
2084:.\Generated_Source\PSoC4/CapSense_1_CSHL.c ****     *  result of calculation of X and Y position are stored.
2085:.\Generated_Source\PSoC4/CapSense_1_CSHL.c ****     *  pos[0u]  - position of X
2086:.\Generated_Source\PSoC4/CapSense_1_CSHL.c ****     *  pos[1u]  - position of Y
2087:.\Generated_Source\PSoC4/CapSense_1_CSHL.c ****     *
2088:.\Generated_Source\PSoC4/CapSense_1_CSHL.c ****     * Return:
2089:.\Generated_Source\PSoC4/CapSense_1_CSHL.c ****     *  Returns a 1 if a finger is on the touch pad, 0 - if not.
2090:.\Generated_Source\PSoC4/CapSense_1_CSHL.c **** 	*
2091:.\Generated_Source\PSoC4/CapSense_1_CSHL.c **** 	* Global Variables:
2092:.\Generated_Source\PSoC4/CapSense_1_CSHL.c **** 	*  None.
2093:.\Generated_Source\PSoC4/CapSense_1_CSHL.c **** 	*
2094:.\Generated_Source\PSoC4/CapSense_1_CSHL.c ****     * Side Effects:
2095:.\Generated_Source\PSoC4/CapSense_1_CSHL.c ****     *   There are no checks of the widget type argument provided to this function.
2096:.\Generated_Source\PSoC4/CapSense_1_CSHL.c ****     *   The unproper widget type provided will cause unexpected position
2097:.\Generated_Source\PSoC4/CapSense_1_CSHL.c ****     *   calculations.
2098:.\Generated_Source\PSoC4/CapSense_1_CSHL.c ****     *
2099:.\Generated_Source\PSoC4/CapSense_1_CSHL.c ****     *******************************************************************************/
2100:.\Generated_Source\PSoC4/CapSense_1_CSHL.c ****     uint32 CapSense_1_GetTouchCentroidPos(uint32 widget, uint16* pos)
2101:.\Generated_Source\PSoC4/CapSense_1_CSHL.c ****     {
2102:.\Generated_Source\PSoC4/CapSense_1_CSHL.c ****         #if (0u != CapSense_1_TOUCH_PADS_POS_FILTERS_MASK)
2103:.\Generated_Source\PSoC4/CapSense_1_CSHL.c ****             uint8 posXIndex;
2104:.\Generated_Source\PSoC4/CapSense_1_CSHL.c ****             uint8 posYIndex;
2105:.\Generated_Source\PSoC4/CapSense_1_CSHL.c ****             uint8 firstTimeIndex = CapSense_1_posFiltersData[widget];
2106:.\Generated_Source\PSoC4/CapSense_1_CSHL.c ****             uint8 posFiltersMask = CapSense_1_posFiltersMask[widget];
2107:.\Generated_Source\PSoC4/CapSense_1_CSHL.c ****         #endif /* (0u != CapSense_1_TOUCH_PADS_POS_FILTERS_MASK) */
2108:.\Generated_Source\PSoC4/CapSense_1_CSHL.c **** 
2109:.\Generated_Source\PSoC4/CapSense_1_CSHL.c ****         #if ((0u != (CapSense_1_MEDIAN_FILTER & CapSense_1_TOUCH_PADS_POS_FILTERS_MASK)) || \
2110:.\Generated_Source\PSoC4/CapSense_1_CSHL.c ****              (0u != (CapSense_1_AVERAGING_FILTER & CapSense_1_TOUCH_PADS_POS_FILTERS_MASK)))
2111:.\Generated_Source\PSoC4/CapSense_1_CSHL.c ****             uint16 tempPos;
2112:.\Generated_Source\PSoC4/CapSense_1_CSHL.c ****         #endif /* ((0u != (CapSense_1_MEDIAN_FILTER & CapSense_1_TOUCH_PADS_POS_FILTERS_MASK)) || \
2113:.\Generated_Source\PSoC4/CapSense_1_CSHL.c ****                *   (0u != (CapSense_1_AVERAGING_FILTER & CapSense_1_TOUCH_PADS_POS_FILTERS_MASK)))
2114:.\Generated_Source\PSoC4/CapSense_1_CSHL.c ****                */
2115:.\Generated_Source\PSoC4/CapSense_1_CSHL.c **** 
2116:.\Generated_Source\PSoC4/CapSense_1_CSHL.c ****         uint8 MaxX;
2117:.\Generated_Source\PSoC4/CapSense_1_CSHL.c ****         uint8 MaxY;
2118:.\Generated_Source\PSoC4/CapSense_1_CSHL.c ****         uint8 posX;
ARM GAS  C:\Users\Jakob\AppData\Local\Temp\cc5GwTcI.s 			page 71


2119:.\Generated_Source\PSoC4/CapSense_1_CSHL.c ****         uint8 posY;
2120:.\Generated_Source\PSoC4/CapSense_1_CSHL.c ****         uint32 touch = 0u;
2121:.\Generated_Source\PSoC4/CapSense_1_CSHL.c ****         uint8 offset = CapSense_1_rawDataIndex[widget];
2122:.\Generated_Source\PSoC4/CapSense_1_CSHL.c ****         uint8 count = CapSense_1_numberOfSensors[widget];
2123:.\Generated_Source\PSoC4/CapSense_1_CSHL.c ****         
2124:.\Generated_Source\PSoC4/CapSense_1_CSHL.c ****         /* Find Maximum within X centroid */
2125:.\Generated_Source\PSoC4/CapSense_1_CSHL.c ****         #if (CapSense_1_IS_DIPLEX_SLIDER)
2126:.\Generated_Source\PSoC4/CapSense_1_CSHL.c ****             MaxX = CapSense_1_FindMaximum(offset, count, CapSense_1_fingerThreshold[widget], 0u);
2127:.\Generated_Source\PSoC4/CapSense_1_CSHL.c ****         #else
2128:.\Generated_Source\PSoC4/CapSense_1_CSHL.c ****             MaxX = CapSense_1_FindMaximum(offset, count, CapSense_1_fingerThreshold[widget]);
2129:.\Generated_Source\PSoC4/CapSense_1_CSHL.c ****         #endif /* (CapSense_1_IS_DIPLEX_SLIDER) */
2130:.\Generated_Source\PSoC4/CapSense_1_CSHL.c **** 
2131:.\Generated_Source\PSoC4/CapSense_1_CSHL.c ****         if (MaxX != CapSense_1_MAXIMUM_CENTROID)
2132:.\Generated_Source\PSoC4/CapSense_1_CSHL.c ****         {
2133:.\Generated_Source\PSoC4/CapSense_1_CSHL.c ****             offset = CapSense_1_rawDataIndex[widget + 1u];
2134:.\Generated_Source\PSoC4/CapSense_1_CSHL.c ****             count = CapSense_1_numberOfSensors[widget + 1u];
2135:.\Generated_Source\PSoC4/CapSense_1_CSHL.c **** 
2136:.\Generated_Source\PSoC4/CapSense_1_CSHL.c ****             /* Find Maximum within Y centroid */
2137:.\Generated_Source\PSoC4/CapSense_1_CSHL.c ****             #if (CapSense_1_IS_DIPLEX_SLIDER)
2138:.\Generated_Source\PSoC4/CapSense_1_CSHL.c ****                 MaxY = CapSense_1_FindMaximum(offset, count, CapSense_1_fingerThreshold[widget + 1u
2139:.\Generated_Source\PSoC4/CapSense_1_CSHL.c ****             #else
2140:.\Generated_Source\PSoC4/CapSense_1_CSHL.c ****                 MaxY = CapSense_1_FindMaximum(offset, count, CapSense_1_fingerThreshold[widget + 1u
2141:.\Generated_Source\PSoC4/CapSense_1_CSHL.c ****             #endif /* (CapSense_1_IS_DIPLEX_SLIDER) */
2142:.\Generated_Source\PSoC4/CapSense_1_CSHL.c **** 
2143:.\Generated_Source\PSoC4/CapSense_1_CSHL.c ****             if (MaxY != CapSense_1_MAXIMUM_CENTROID)
2144:.\Generated_Source\PSoC4/CapSense_1_CSHL.c ****             {
2145:.\Generated_Source\PSoC4/CapSense_1_CSHL.c ****                 /* X and Y maximums are found = true touch */
2146:.\Generated_Source\PSoC4/CapSense_1_CSHL.c ****                 touch = 1u;
2147:.\Generated_Source\PSoC4/CapSense_1_CSHL.c ****                 
2148:.\Generated_Source\PSoC4/CapSense_1_CSHL.c ****                 /* Calculate Y centroid */
2149:.\Generated_Source\PSoC4/CapSense_1_CSHL.c ****                 posY = CapSense_1_CalcCentroid(MaxY, offset, count, 
2150:.\Generated_Source\PSoC4/CapSense_1_CSHL.c ****                             CapSense_1_centroidMult[widget + 1u], CapSense_1_noiseThreshold[widget 
2151:.\Generated_Source\PSoC4/CapSense_1_CSHL.c ****                 
2152:.\Generated_Source\PSoC4/CapSense_1_CSHL.c ****                 /* Calculate X centroid */
2153:.\Generated_Source\PSoC4/CapSense_1_CSHL.c ****                 offset = CapSense_1_rawDataIndex[widget];
2154:.\Generated_Source\PSoC4/CapSense_1_CSHL.c ****                 count = CapSense_1_numberOfSensors[widget];
2155:.\Generated_Source\PSoC4/CapSense_1_CSHL.c ****                 
2156:.\Generated_Source\PSoC4/CapSense_1_CSHL.c ****                 posX = CapSense_1_CalcCentroid(MaxX, offset, count, 
2157:.\Generated_Source\PSoC4/CapSense_1_CSHL.c ****                             CapSense_1_centroidMult[widget],CapSense_1_noiseThreshold[widget]);
2158:.\Generated_Source\PSoC4/CapSense_1_CSHL.c ****     
2159:.\Generated_Source\PSoC4/CapSense_1_CSHL.c ****                 #if (0u != CapSense_1_TOUCH_PADS_POS_FILTERS_MASK)
2160:.\Generated_Source\PSoC4/CapSense_1_CSHL.c ****                     /* Check if this TP has enabled filters */
2161:.\Generated_Source\PSoC4/CapSense_1_CSHL.c ****                     if (0u != (posFiltersMask & CapSense_1_ANY_POS_FILTER))
2162:.\Generated_Source\PSoC4/CapSense_1_CSHL.c ****                     {
2163:.\Generated_Source\PSoC4/CapSense_1_CSHL.c ****                         /* Calculate position to store filters data */
2164:.\Generated_Source\PSoC4/CapSense_1_CSHL.c ****                         posXIndex  = firstTimeIndex + 1u;
2165:.\Generated_Source\PSoC4/CapSense_1_CSHL.c ****                         posYIndex  = CapSense_1_posFiltersData[widget + 1u];
2166:.\Generated_Source\PSoC4/CapSense_1_CSHL.c ****                         
2167:.\Generated_Source\PSoC4/CapSense_1_CSHL.c ****                         if (0u == CapSense_1_posFiltersData[firstTimeIndex])
2168:.\Generated_Source\PSoC4/CapSense_1_CSHL.c ****                         {
2169:.\Generated_Source\PSoC4/CapSense_1_CSHL.c ****                             /* Init filters */
2170:.\Generated_Source\PSoC4/CapSense_1_CSHL.c ****                             CapSense_1_posFiltersData[posXIndex] = posX;
2171:.\Generated_Source\PSoC4/CapSense_1_CSHL.c ****                             CapSense_1_posFiltersData[posYIndex] = posY;
2172:.\Generated_Source\PSoC4/CapSense_1_CSHL.c **** 
2173:.\Generated_Source\PSoC4/CapSense_1_CSHL.c ****                             #if((0u != (CapSense_1_MEDIAN_FILTER & \
2174:.\Generated_Source\PSoC4/CapSense_1_CSHL.c ****                                         CapSense_1_TOUCH_PADS_POS_FILTERS_MASK))|| \
2175:.\Generated_Source\PSoC4/CapSense_1_CSHL.c ****                                 (0u != (CapSense_1_AVERAGING_FILTER & \
ARM GAS  C:\Users\Jakob\AppData\Local\Temp\cc5GwTcI.s 			page 72


2176:.\Generated_Source\PSoC4/CapSense_1_CSHL.c ****                                         CapSense_1_TOUCH_PADS_POS_FILTERS_MASK)))
2177:.\Generated_Source\PSoC4/CapSense_1_CSHL.c **** 
2178:.\Generated_Source\PSoC4/CapSense_1_CSHL.c ****                                 if ( (0u != (posFiltersMask & CapSense_1_MEDIAN_FILTER)) || 
2179:.\Generated_Source\PSoC4/CapSense_1_CSHL.c ****                                      (0u != (posFiltersMask & CapSense_1_AVERAGING_FILTER)) )
2180:.\Generated_Source\PSoC4/CapSense_1_CSHL.c ****                                 {
2181:.\Generated_Source\PSoC4/CapSense_1_CSHL.c ****                                     CapSense_1_posFiltersData[posXIndex + 1u] = posX;
2182:.\Generated_Source\PSoC4/CapSense_1_CSHL.c ****                                     CapSense_1_posFiltersData[posYIndex + 1u] = posY;
2183:.\Generated_Source\PSoC4/CapSense_1_CSHL.c ****                                 }
2184:.\Generated_Source\PSoC4/CapSense_1_CSHL.c ****                             #endif /* ((0u != (CapSense_1_MEDIAN_FILTER & \
2185:.\Generated_Source\PSoC4/CapSense_1_CSHL.c ****                                    *           CapSense_1_TOUCH_PADS_POS_FILTERS_MASK)) || \
2186:.\Generated_Source\PSoC4/CapSense_1_CSHL.c ****                                    *    (0u != (CapSense_1_AVERAGING_FILTER & \
2187:.\Generated_Source\PSoC4/CapSense_1_CSHL.c ****                                    *            CapSense_1_TOUCH_PADS_POS_FILTERS_MASK)))
2188:.\Generated_Source\PSoC4/CapSense_1_CSHL.c ****                                    */
2189:.\Generated_Source\PSoC4/CapSense_1_CSHL.c ****                             
2190:.\Generated_Source\PSoC4/CapSense_1_CSHL.c ****                             CapSense_1_posFiltersData[firstTimeIndex] = 1u;
2191:.\Generated_Source\PSoC4/CapSense_1_CSHL.c ****                         }
2192:.\Generated_Source\PSoC4/CapSense_1_CSHL.c ****                         else
2193:.\Generated_Source\PSoC4/CapSense_1_CSHL.c ****                         {
2194:.\Generated_Source\PSoC4/CapSense_1_CSHL.c ****                             /* Do filtering */
2195:.\Generated_Source\PSoC4/CapSense_1_CSHL.c ****                             #if (0u != (CapSense_1_MEDIAN_FILTER & CapSense_1_TOUCH_PADS_POS_FILTER
2196:.\Generated_Source\PSoC4/CapSense_1_CSHL.c ****                                 if (0u != (posFiltersMask & CapSense_1_MEDIAN_FILTER))
2197:.\Generated_Source\PSoC4/CapSense_1_CSHL.c ****                                 {
2198:.\Generated_Source\PSoC4/CapSense_1_CSHL.c ****                                     tempPos = posX;
2199:.\Generated_Source\PSoC4/CapSense_1_CSHL.c ****                                     posX = (uint8) CapSense_1_MedianFilter(posX,
2200:.\Generated_Source\PSoC4/CapSense_1_CSHL.c ****                                                                       CapSense_1_posFiltersData[pos
2201:.\Generated_Source\PSoC4/CapSense_1_CSHL.c ****                                                                       CapSense_1_posFiltersData[pos
2202:.\Generated_Source\PSoC4/CapSense_1_CSHL.c ****                                     CapSense_1_posFiltersData[posXIndex + 1u] = 
2203:.\Generated_Source\PSoC4/CapSense_1_CSHL.c ****                                                                              CapSense_1_posFiltersD
2204:.\Generated_Source\PSoC4/CapSense_1_CSHL.c ****                                     CapSense_1_posFiltersData[posXIndex] = tempPos;
2205:.\Generated_Source\PSoC4/CapSense_1_CSHL.c ****                                     
2206:.\Generated_Source\PSoC4/CapSense_1_CSHL.c ****                                     tempPos = posY;
2207:.\Generated_Source\PSoC4/CapSense_1_CSHL.c ****                                     posY = (uint8) CapSense_1_MedianFilter(posY,
2208:.\Generated_Source\PSoC4/CapSense_1_CSHL.c ****                                                                        CapSense_1_posFiltersData[po
2209:.\Generated_Source\PSoC4/CapSense_1_CSHL.c ****                                                                        CapSense_1_posFiltersData[po
2210:.\Generated_Source\PSoC4/CapSense_1_CSHL.c ****                                     CapSense_1_posFiltersData[posYIndex + 1u] = 
2211:.\Generated_Source\PSoC4/CapSense_1_CSHL.c ****                                                                              CapSense_1_posFiltersD
2212:.\Generated_Source\PSoC4/CapSense_1_CSHL.c ****                                     CapSense_1_posFiltersData[posYIndex] = tempPos;
2213:.\Generated_Source\PSoC4/CapSense_1_CSHL.c ****                                 }
2214:.\Generated_Source\PSoC4/CapSense_1_CSHL.c ****                                 
2215:.\Generated_Source\PSoC4/CapSense_1_CSHL.c ****                             #endif /* (0u != (CapSense_1_MEDIAN_FILTER & \
2216:.\Generated_Source\PSoC4/CapSense_1_CSHL.c ****                                    *          CapSense_1_TOUCH_PADS_POS_FILTERS_MASK))
2217:.\Generated_Source\PSoC4/CapSense_1_CSHL.c ****                                    */
2218:.\Generated_Source\PSoC4/CapSense_1_CSHL.c **** 
2219:.\Generated_Source\PSoC4/CapSense_1_CSHL.c ****                             #if(0u !=(CapSense_1_AVERAGING_FILTER & CapSense_1_TOUCH_PADS_POS_FILTE
2220:.\Generated_Source\PSoC4/CapSense_1_CSHL.c ****                                 if (0u != (posFiltersMask & CapSense_1_AVERAGING_FILTER))
2221:.\Generated_Source\PSoC4/CapSense_1_CSHL.c ****                                 {
2222:.\Generated_Source\PSoC4/CapSense_1_CSHL.c ****                                     tempPos = posX;
2223:.\Generated_Source\PSoC4/CapSense_1_CSHL.c ****                                     posX = (uint8) CapSense_1_AveragingFilter(posX,
2224:.\Generated_Source\PSoC4/CapSense_1_CSHL.c ****                                                                        CapSense_1_posFiltersData[po
2225:.\Generated_Source\PSoC4/CapSense_1_CSHL.c ****                                                                        CapSense_1_posFiltersData[po
2226:.\Generated_Source\PSoC4/CapSense_1_CSHL.c ****                                     CapSense_1_posFiltersData[posXIndex + 1u] = 
2227:.\Generated_Source\PSoC4/CapSense_1_CSHL.c ****                                                                              CapSense_1_posFiltersD
2228:.\Generated_Source\PSoC4/CapSense_1_CSHL.c ****                                     CapSense_1_posFiltersData[posXIndex] = tempPos;
2229:.\Generated_Source\PSoC4/CapSense_1_CSHL.c ****                                     
2230:.\Generated_Source\PSoC4/CapSense_1_CSHL.c ****                                     tempPos = posY;
2231:.\Generated_Source\PSoC4/CapSense_1_CSHL.c ****                                     posY = (uint8) CapSense_1_AveragingFilter(posY, 
2232:.\Generated_Source\PSoC4/CapSense_1_CSHL.c ****                                                                       CapSense_1_posFiltersData[pos
ARM GAS  C:\Users\Jakob\AppData\Local\Temp\cc5GwTcI.s 			page 73


2233:.\Generated_Source\PSoC4/CapSense_1_CSHL.c ****                                                                       CapSense_1_posFiltersData[pos
2234:.\Generated_Source\PSoC4/CapSense_1_CSHL.c ****                                     CapSense_1_posFiltersData[posYIndex + 1u] = 
2235:.\Generated_Source\PSoC4/CapSense_1_CSHL.c ****                                                                             CapSense_1_posFiltersDa
2236:.\Generated_Source\PSoC4/CapSense_1_CSHL.c ****                                     CapSense_1_posFiltersData[posYIndex] = tempPos;
2237:.\Generated_Source\PSoC4/CapSense_1_CSHL.c ****                                 }
2238:.\Generated_Source\PSoC4/CapSense_1_CSHL.c **** 
2239:.\Generated_Source\PSoC4/CapSense_1_CSHL.c ****                             #endif /* (0u != (CapSense_1_AVERAGING_FILTER & \
2240:.\Generated_Source\PSoC4/CapSense_1_CSHL.c ****                                    *           CapSense_1_TOUCH_PADS_POS_FILTERS_MASK))
2241:.\Generated_Source\PSoC4/CapSense_1_CSHL.c ****                                    */
2242:.\Generated_Source\PSoC4/CapSense_1_CSHL.c **** 
2243:.\Generated_Source\PSoC4/CapSense_1_CSHL.c ****                             #if (0u != (CapSense_1_IIR2_FILTER & CapSense_1_TOUCH_PADS_POS_FILTERS_
2244:.\Generated_Source\PSoC4/CapSense_1_CSHL.c ****                                 if (0u != (posFiltersMask & CapSense_1_IIR2_FILTER))
2245:.\Generated_Source\PSoC4/CapSense_1_CSHL.c ****                                 {
2246:.\Generated_Source\PSoC4/CapSense_1_CSHL.c ****                                     posX = (uint8) CapSense_1_IIR2Filter(posX, 
2247:.\Generated_Source\PSoC4/CapSense_1_CSHL.c ****                                                                            CapSense_1_posFiltersDat
2248:.\Generated_Source\PSoC4/CapSense_1_CSHL.c ****                                     CapSense_1_posFiltersData[posXIndex] = posX;
2249:.\Generated_Source\PSoC4/CapSense_1_CSHL.c ****                                     
2250:.\Generated_Source\PSoC4/CapSense_1_CSHL.c ****                                     posY = (uint8) CapSense_1_IIR2Filter(posY, 
2251:.\Generated_Source\PSoC4/CapSense_1_CSHL.c ****                                                                             CapSense_1_posFiltersDa
2252:.\Generated_Source\PSoC4/CapSense_1_CSHL.c ****                                     CapSense_1_posFiltersData[posYIndex] = posY;
2253:.\Generated_Source\PSoC4/CapSense_1_CSHL.c ****                                 }
2254:.\Generated_Source\PSoC4/CapSense_1_CSHL.c ****                                 
2255:.\Generated_Source\PSoC4/CapSense_1_CSHL.c ****                             #endif /* (0u != (CapSense_1_IIR2_FILTER & \
2256:.\Generated_Source\PSoC4/CapSense_1_CSHL.c ****                                    *          CapSense_1_TOUCH_PADS_POS_FILTERS_MASK))
2257:.\Generated_Source\PSoC4/CapSense_1_CSHL.c ****                                    */
2258:.\Generated_Source\PSoC4/CapSense_1_CSHL.c **** 
2259:.\Generated_Source\PSoC4/CapSense_1_CSHL.c ****                             #if (0u != (CapSense_1_IIR4_FILTER & CapSense_1_TOUCH_PADS_POS_FILTERS_
2260:.\Generated_Source\PSoC4/CapSense_1_CSHL.c ****                                 if (0u != (posFiltersMask & CapSense_1_IIR4_FILTER))
2261:.\Generated_Source\PSoC4/CapSense_1_CSHL.c ****                                 {
2262:.\Generated_Source\PSoC4/CapSense_1_CSHL.c ****                                     posX = (uint8) CapSense_1_IIR4Filter((uint16)posX,
2263:.\Generated_Source\PSoC4/CapSense_1_CSHL.c ****                                                                     (uint16)CapSense_1_posFiltersDa
2264:.\Generated_Source\PSoC4/CapSense_1_CSHL.c ****                                     CapSense_1_posFiltersData[posXIndex] = posX;
2265:.\Generated_Source\PSoC4/CapSense_1_CSHL.c **** 
2266:.\Generated_Source\PSoC4/CapSense_1_CSHL.c ****                                     posY = (uint8) CapSense_1_IIR4Filter((uint16)posY,
2267:.\Generated_Source\PSoC4/CapSense_1_CSHL.c ****                                                                     (uint16)CapSense_1_posFiltersDa
2268:.\Generated_Source\PSoC4/CapSense_1_CSHL.c ****                                     CapSense_1_posFiltersData[posYIndex] = posY;
2269:.\Generated_Source\PSoC4/CapSense_1_CSHL.c ****                                 }
2270:.\Generated_Source\PSoC4/CapSense_1_CSHL.c ****                                 
2271:.\Generated_Source\PSoC4/CapSense_1_CSHL.c ****                             #endif /* (0u != (CapSense_1_IIR4_FILTER & \
2272:.\Generated_Source\PSoC4/CapSense_1_CSHL.c ****                                    *           CapSense_1_TOUCH_PADS_POS_FILTERS_MASK))
2273:.\Generated_Source\PSoC4/CapSense_1_CSHL.c ****                                    */
2274:.\Generated_Source\PSoC4/CapSense_1_CSHL.c **** 
2275:.\Generated_Source\PSoC4/CapSense_1_CSHL.c ****                             #if (0u != (CapSense_1_JITTER_FILTER & CapSense_1_TOUCH_PADS_POS_FILTER
2276:.\Generated_Source\PSoC4/CapSense_1_CSHL.c ****                                 if (0u != (posFiltersMask & CapSense_1_JITTER_FILTER))
2277:.\Generated_Source\PSoC4/CapSense_1_CSHL.c ****                                     {
2278:.\Generated_Source\PSoC4/CapSense_1_CSHL.c ****                                         posX = (uint8) CapSense_1_JitterFilter(posX, 
2279:.\Generated_Source\PSoC4/CapSense_1_CSHL.c ****                                                                             CapSense_1_posFiltersDa
2280:.\Generated_Source\PSoC4/CapSense_1_CSHL.c ****                                         CapSense_1_posFiltersData[posXIndex] = posX;
2281:.\Generated_Source\PSoC4/CapSense_1_CSHL.c ****                                         
2282:.\Generated_Source\PSoC4/CapSense_1_CSHL.c ****                                         posY = (uint8) CapSense_1_JitterFilter(posY, 
2283:.\Generated_Source\PSoC4/CapSense_1_CSHL.c ****                                                                             CapSense_1_posFiltersDa
2284:.\Generated_Source\PSoC4/CapSense_1_CSHL.c ****                                         CapSense_1_posFiltersData[posYIndex] = posY;
2285:.\Generated_Source\PSoC4/CapSense_1_CSHL.c ****                                     }
2286:.\Generated_Source\PSoC4/CapSense_1_CSHL.c ****                             #endif /* (0u != (CapSense_1_JITTER_FILTER & \
2287:.\Generated_Source\PSoC4/CapSense_1_CSHL.c ****                                    *           CapSense_1_TOUCH_PADS_POS_FILTERS_MASK))
2288:.\Generated_Source\PSoC4/CapSense_1_CSHL.c ****                                    */
2289:.\Generated_Source\PSoC4/CapSense_1_CSHL.c ****                         }
ARM GAS  C:\Users\Jakob\AppData\Local\Temp\cc5GwTcI.s 			page 74


2290:.\Generated_Source\PSoC4/CapSense_1_CSHL.c ****                     }
2291:.\Generated_Source\PSoC4/CapSense_1_CSHL.c ****                 #endif /* (0u != CapSense_1_TOUCH_PADS_POS_FILTERS_MASK) */
2292:.\Generated_Source\PSoC4/CapSense_1_CSHL.c **** 
2293:.\Generated_Source\PSoC4/CapSense_1_CSHL.c ****                 /* Save positions */
2294:.\Generated_Source\PSoC4/CapSense_1_CSHL.c ****                 pos[0u] = posX;
2295:.\Generated_Source\PSoC4/CapSense_1_CSHL.c ****                 pos[1u] = posY;
2296:.\Generated_Source\PSoC4/CapSense_1_CSHL.c ****             }
2297:.\Generated_Source\PSoC4/CapSense_1_CSHL.c ****         }
2298:.\Generated_Source\PSoC4/CapSense_1_CSHL.c **** 
2299:.\Generated_Source\PSoC4/CapSense_1_CSHL.c ****         #if (0u != CapSense_1_TOUCH_PADS_POS_FILTERS_MASK)
2300:.\Generated_Source\PSoC4/CapSense_1_CSHL.c ****             if(touch == 0u)
2301:.\Generated_Source\PSoC4/CapSense_1_CSHL.c ****             {
2302:.\Generated_Source\PSoC4/CapSense_1_CSHL.c ****                 /* Reset filters */
2303:.\Generated_Source\PSoC4/CapSense_1_CSHL.c ****                 if ((posFiltersMask & CapSense_1_ANY_POS_FILTER) != 0u)
2304:.\Generated_Source\PSoC4/CapSense_1_CSHL.c ****                 {
2305:.\Generated_Source\PSoC4/CapSense_1_CSHL.c ****                     CapSense_1_posFiltersData[firstTimeIndex] = 0u;
2306:.\Generated_Source\PSoC4/CapSense_1_CSHL.c ****                 }
2307:.\Generated_Source\PSoC4/CapSense_1_CSHL.c ****             }
2308:.\Generated_Source\PSoC4/CapSense_1_CSHL.c ****         #endif /* (0u != CapSense_1_TOUCH_PADS_POS_FILTERS_MASK) */
2309:.\Generated_Source\PSoC4/CapSense_1_CSHL.c ****         
2310:.\Generated_Source\PSoC4/CapSense_1_CSHL.c ****         return (touch);
2311:.\Generated_Source\PSoC4/CapSense_1_CSHL.c ****     }
2312:.\Generated_Source\PSoC4/CapSense_1_CSHL.c **** #endif /* (CapSense_1_TOTAL_TOUCH_PADS_COUNT > 0u) */
2313:.\Generated_Source\PSoC4/CapSense_1_CSHL.c **** 
2314:.\Generated_Source\PSoC4/CapSense_1_CSHL.c **** 
2315:.\Generated_Source\PSoC4/CapSense_1_CSHL.c **** #if ( (0u != (CapSense_1_RAW_FILTER_MASK & CapSense_1_MEDIAN_FILTER)) || \
2316:.\Generated_Source\PSoC4/CapSense_1_CSHL.c ****       (0u != (CapSense_1_POS_FILTERS_MASK & CapSense_1_MEDIAN_FILTER)) || \
2317:.\Generated_Source\PSoC4/CapSense_1_CSHL.c ****       ((CapSense_1_TUNING_METHOD == CapSense_1__TUNING_AUTO)) )
2318:.\Generated_Source\PSoC4/CapSense_1_CSHL.c ****     /*******************************************************************************
2319:.\Generated_Source\PSoC4/CapSense_1_CSHL.c ****     * Function Name: CapSense_1_MedianFilter
2320:.\Generated_Source\PSoC4/CapSense_1_CSHL.c ****     ********************************************************************************
2321:.\Generated_Source\PSoC4/CapSense_1_CSHL.c ****     *
2322:.\Generated_Source\PSoC4/CapSense_1_CSHL.c ****     * Summary:
2323:.\Generated_Source\PSoC4/CapSense_1_CSHL.c ****     *  This is the Median filter function. 
2324:.\Generated_Source\PSoC4/CapSense_1_CSHL.c ****     *  The median filter looks at the three most recent samples and reports the 
2325:.\Generated_Source\PSoC4/CapSense_1_CSHL.c ****     *  median value.
2326:.\Generated_Source\PSoC4/CapSense_1_CSHL.c ****     *
2327:.\Generated_Source\PSoC4/CapSense_1_CSHL.c ****     * Parameters:
2328:.\Generated_Source\PSoC4/CapSense_1_CSHL.c ****     *  x1:  Current value.
2329:.\Generated_Source\PSoC4/CapSense_1_CSHL.c ****     *  x2:  Previous value.
2330:.\Generated_Source\PSoC4/CapSense_1_CSHL.c ****     *  x3:  Before previous value.
2331:.\Generated_Source\PSoC4/CapSense_1_CSHL.c ****     *
2332:.\Generated_Source\PSoC4/CapSense_1_CSHL.c ****     * Return:
2333:.\Generated_Source\PSoC4/CapSense_1_CSHL.c ****     *  Returns filtered value.
2334:.\Generated_Source\PSoC4/CapSense_1_CSHL.c **** 	*
2335:.\Generated_Source\PSoC4/CapSense_1_CSHL.c **** 	* Global Variables:
2336:.\Generated_Source\PSoC4/CapSense_1_CSHL.c **** 	*  None.
2337:.\Generated_Source\PSoC4/CapSense_1_CSHL.c **** 	*
2338:.\Generated_Source\PSoC4/CapSense_1_CSHL.c **** 	* Side Effects:
2339:.\Generated_Source\PSoC4/CapSense_1_CSHL.c **** 	*  None
2340:.\Generated_Source\PSoC4/CapSense_1_CSHL.c **** 	* 
2341:.\Generated_Source\PSoC4/CapSense_1_CSHL.c ****     *******************************************************************************/
2342:.\Generated_Source\PSoC4/CapSense_1_CSHL.c ****     uint16 CapSense_1_MedianFilter(uint16 x1, uint16 x2, uint16 x3)
2343:.\Generated_Source\PSoC4/CapSense_1_CSHL.c ****     {
 1860              		.loc 1 2343 0
 1861              		.cfi_startproc
 1862 0000 80B5     		push	{r7, lr}
ARM GAS  C:\Users\Jakob\AppData\Local\Temp\cc5GwTcI.s 			page 75


 1863              	.LCFI78:
 1864              		.cfi_def_cfa_offset 8
 1865              		.cfi_offset 7, -8
 1866              		.cfi_offset 14, -4
 1867 0002 84B0     		sub	sp, sp, #16
 1868              	.LCFI79:
 1869              		.cfi_def_cfa_offset 24
 1870 0004 00AF     		add	r7, sp, #0
 1871              	.LCFI80:
 1872              		.cfi_def_cfa_register 7
 1873 0006 BB1D     		add	r3, r7, #6
 1874 0008 1880     		strh	r0, [r3]
 1875 000a 3B1D     		add	r3, r7, #4
 1876 000c 1980     		strh	r1, [r3]
 1877 000e BB1C     		add	r3, r7, #2
 1878 0010 1A80     		strh	r2, [r3]
2344:.\Generated_Source\PSoC4/CapSense_1_CSHL.c ****         uint16 tmp;
2345:.\Generated_Source\PSoC4/CapSense_1_CSHL.c ****         
2346:.\Generated_Source\PSoC4/CapSense_1_CSHL.c ****         if (x1 > x2)
 1879              		.loc 1 2346 0
 1880 0012 BA1D     		add	r2, r7, #6
 1881 0014 3B1D     		add	r3, r7, #4
 1882 0016 1288     		ldrh	r2, [r2]
 1883 0018 1B88     		ldrh	r3, [r3]
 1884 001a 9A42     		cmp	r2, r3
 1885 001c 0DD9     		bls	.L114
2347:.\Generated_Source\PSoC4/CapSense_1_CSHL.c ****         {
2348:.\Generated_Source\PSoC4/CapSense_1_CSHL.c ****             tmp = x2;
 1886              		.loc 1 2348 0
 1887 001e 3B1C     		mov	r3, r7
 1888 0020 0E33     		add	r3, r3, #14
 1889 0022 3A1D     		add	r2, r7, #4
 1890 0024 1288     		ldrh	r2, [r2]
 1891 0026 1A80     		strh	r2, [r3]
2349:.\Generated_Source\PSoC4/CapSense_1_CSHL.c ****             x2 = x1;
 1892              		.loc 1 2349 0
 1893 0028 3B1D     		add	r3, r7, #4
 1894 002a BA1D     		add	r2, r7, #6
 1895 002c 1288     		ldrh	r2, [r2]
 1896 002e 1A80     		strh	r2, [r3]
2350:.\Generated_Source\PSoC4/CapSense_1_CSHL.c ****             x1 = tmp;
 1897              		.loc 1 2350 0
 1898 0030 BB1D     		add	r3, r7, #6
 1899 0032 3A1C     		mov	r2, r7
 1900 0034 0E32     		add	r2, r2, #14
 1901 0036 1288     		ldrh	r2, [r2]
 1902 0038 1A80     		strh	r2, [r3]
 1903              	.L114:
2351:.\Generated_Source\PSoC4/CapSense_1_CSHL.c ****         }
2352:.\Generated_Source\PSoC4/CapSense_1_CSHL.c ****         
2353:.\Generated_Source\PSoC4/CapSense_1_CSHL.c ****         if (x2 > x3)
 1904              		.loc 1 2353 0
 1905 003a 3A1D     		add	r2, r7, #4
 1906 003c BB1C     		add	r3, r7, #2
 1907 003e 1288     		ldrh	r2, [r2]
 1908 0040 1B88     		ldrh	r3, [r3]
 1909 0042 9A42     		cmp	r2, r3
ARM GAS  C:\Users\Jakob\AppData\Local\Temp\cc5GwTcI.s 			page 76


 1910 0044 03D9     		bls	.L115
2354:.\Generated_Source\PSoC4/CapSense_1_CSHL.c ****         {
2355:.\Generated_Source\PSoC4/CapSense_1_CSHL.c ****             x2 = x3;
 1911              		.loc 1 2355 0
 1912 0046 3B1D     		add	r3, r7, #4
 1913 0048 BA1C     		add	r2, r7, #2
 1914 004a 1288     		ldrh	r2, [r2]
 1915 004c 1A80     		strh	r2, [r3]
 1916              	.L115:
2356:.\Generated_Source\PSoC4/CapSense_1_CSHL.c ****         }
2357:.\Generated_Source\PSoC4/CapSense_1_CSHL.c ****         
2358:.\Generated_Source\PSoC4/CapSense_1_CSHL.c ****         return ((x1 > x2) ? x1 : x2);
 1917              		.loc 1 2358 0
 1918 004e 3B1D     		add	r3, r7, #4
 1919 0050 BA1D     		add	r2, r7, #6
 1920 0052 1288     		ldrh	r2, [r2]
 1921 0054 1B88     		ldrh	r3, [r3]
 1922 0056 98B2     		uxth	r0, r3
 1923 0058 91B2     		uxth	r1, r2
 1924 005a 8842     		cmp	r0, r1
 1925 005c 00D2     		bcs	.L116
 1926 005e 131C     		add	r3, r2, #0
 1927              	.L116:
 1928 0060 9BB2     		uxth	r3, r3
2359:.\Generated_Source\PSoC4/CapSense_1_CSHL.c ****     }
 1929              		.loc 1 2359 0
 1930 0062 181C     		mov	r0, r3
 1931 0064 BD46     		mov	sp, r7
 1932 0066 04B0     		add	sp, sp, #16
 1933              		@ sp needed for prologue
 1934 0068 80BD     		pop	{r7, pc}
 1935              		.cfi_endproc
 1936              	.LFE59:
 1937              		.size	CapSense_1_MedianFilter, .-CapSense_1_MedianFilter
 1938 006a C046     		.section	.text.CapSense_1_IIR4Filter,"ax",%progbits
 1939              		.align	2
 1940              		.global	CapSense_1_IIR4Filter
 1941              		.code	16
 1942              		.thumb_func
 1943              		.type	CapSense_1_IIR4Filter, %function
 1944              	CapSense_1_IIR4Filter:
 1945              	.LFB60:
2360:.\Generated_Source\PSoC4/CapSense_1_CSHL.c **** #endif /* ( (0u != (CapSense_1_RAW_FILTER_MASK & CapSense_1_MEDIAN_FILTER)) || \
2361:.\Generated_Source\PSoC4/CapSense_1_CSHL.c ****       (0u != (CapSense_1_POS_FILTERS_MASK & CapSense_1_MEDIAN_FILTER)) || \
2362:.\Generated_Source\PSoC4/CapSense_1_CSHL.c ****       ((CapSense_1_TUNING_METHOD == CapSense_1__TUNING_AUTO)) ) */
2363:.\Generated_Source\PSoC4/CapSense_1_CSHL.c **** 
2364:.\Generated_Source\PSoC4/CapSense_1_CSHL.c **** 
2365:.\Generated_Source\PSoC4/CapSense_1_CSHL.c **** #if ( (0u != (CapSense_1_RAW_FILTER_MASK & CapSense_1_AVERAGING_FILTER)) || \
2366:.\Generated_Source\PSoC4/CapSense_1_CSHL.c ****       (0u != (CapSense_1_POS_FILTERS_MASK & CapSense_1_AVERAGING_FILTER)) )
2367:.\Generated_Source\PSoC4/CapSense_1_CSHL.c ****     /*******************************************************************************
2368:.\Generated_Source\PSoC4/CapSense_1_CSHL.c ****     * Function Name: CapSense_1_AveragingFilter
2369:.\Generated_Source\PSoC4/CapSense_1_CSHL.c ****     ********************************************************************************
2370:.\Generated_Source\PSoC4/CapSense_1_CSHL.c ****     *
2371:.\Generated_Source\PSoC4/CapSense_1_CSHL.c ****     * Summary:
2372:.\Generated_Source\PSoC4/CapSense_1_CSHL.c ****     *  This is the Averaging filter function.
2373:.\Generated_Source\PSoC4/CapSense_1_CSHL.c ****     *  The averaging filter looks at the three most recent samples of a position and
2374:.\Generated_Source\PSoC4/CapSense_1_CSHL.c ****     *  reports the averaging value.
ARM GAS  C:\Users\Jakob\AppData\Local\Temp\cc5GwTcI.s 			page 77


2375:.\Generated_Source\PSoC4/CapSense_1_CSHL.c ****     *
2376:.\Generated_Source\PSoC4/CapSense_1_CSHL.c ****     * Parameters:
2377:.\Generated_Source\PSoC4/CapSense_1_CSHL.c ****     *  x1:  Current value.
2378:.\Generated_Source\PSoC4/CapSense_1_CSHL.c ****     *  x2:  Previous value.
2379:.\Generated_Source\PSoC4/CapSense_1_CSHL.c ****     *  x3:  Before previous value.
2380:.\Generated_Source\PSoC4/CapSense_1_CSHL.c ****     *
2381:.\Generated_Source\PSoC4/CapSense_1_CSHL.c ****     * Return:
2382:.\Generated_Source\PSoC4/CapSense_1_CSHL.c ****     *  Returns filtered value.
2383:.\Generated_Source\PSoC4/CapSense_1_CSHL.c **** 	*
2384:.\Generated_Source\PSoC4/CapSense_1_CSHL.c **** 	* Global Variables:
2385:.\Generated_Source\PSoC4/CapSense_1_CSHL.c **** 	*  None.
2386:.\Generated_Source\PSoC4/CapSense_1_CSHL.c **** 	*
2387:.\Generated_Source\PSoC4/CapSense_1_CSHL.c **** 	* Side Effects:
2388:.\Generated_Source\PSoC4/CapSense_1_CSHL.c **** 	*  None
2389:.\Generated_Source\PSoC4/CapSense_1_CSHL.c **** 	* 
2390:.\Generated_Source\PSoC4/CapSense_1_CSHL.c ****     *******************************************************************************/
2391:.\Generated_Source\PSoC4/CapSense_1_CSHL.c ****     uint16 CapSense_1_AveragingFilter(uint16 x1, uint16 x2, uint16 x3)
2392:.\Generated_Source\PSoC4/CapSense_1_CSHL.c ****     {
2393:.\Generated_Source\PSoC4/CapSense_1_CSHL.c ****         uint32 tmp = ((uint32)x1 + (uint32)x2 + (uint32)x3) / 3u;
2394:.\Generated_Source\PSoC4/CapSense_1_CSHL.c ****         
2395:.\Generated_Source\PSoC4/CapSense_1_CSHL.c ****         return ((uint16) tmp);
2396:.\Generated_Source\PSoC4/CapSense_1_CSHL.c ****     }
2397:.\Generated_Source\PSoC4/CapSense_1_CSHL.c **** #endif /* ( (0u != (CapSense_1_RAW_FILTER_MASK & CapSense_1_AVERAGING_FILTER) || \
2398:.\Generated_Source\PSoC4/CapSense_1_CSHL.c ****       (0u != (CapSense_1_POS_FILTERS_MASK & CapSense_1_AVERAGING_FILTER) ) */
2399:.\Generated_Source\PSoC4/CapSense_1_CSHL.c **** 
2400:.\Generated_Source\PSoC4/CapSense_1_CSHL.c **** 
2401:.\Generated_Source\PSoC4/CapSense_1_CSHL.c **** #if ( (0u != (CapSense_1_RAW_FILTER_MASK & CapSense_1_IIR2_FILTER)) || \
2402:.\Generated_Source\PSoC4/CapSense_1_CSHL.c ****       (0u != (CapSense_1_POS_FILTERS_MASK & CapSense_1_IIR2_FILTER)) )
2403:.\Generated_Source\PSoC4/CapSense_1_CSHL.c ****     /*******************************************************************************
2404:.\Generated_Source\PSoC4/CapSense_1_CSHL.c ****     * Function Name: CapSense_1_IIR2Filter
2405:.\Generated_Source\PSoC4/CapSense_1_CSHL.c ****     ********************************************************************************
2406:.\Generated_Source\PSoC4/CapSense_1_CSHL.c ****     *
2407:.\Generated_Source\PSoC4/CapSense_1_CSHL.c ****     * Summary:
2408:.\Generated_Source\PSoC4/CapSense_1_CSHL.c ****     *  This is the IIR1/2 filter function. IIR1/2 = 1/2current + 1/2previous.
2409:.\Generated_Source\PSoC4/CapSense_1_CSHL.c ****     *
2410:.\Generated_Source\PSoC4/CapSense_1_CSHL.c ****     * Parameters:
2411:.\Generated_Source\PSoC4/CapSense_1_CSHL.c ****     *  x1:  Current value.
2412:.\Generated_Source\PSoC4/CapSense_1_CSHL.c ****     *  x2:  Previous value.
2413:.\Generated_Source\PSoC4/CapSense_1_CSHL.c ****     *
2414:.\Generated_Source\PSoC4/CapSense_1_CSHL.c ****     * Return:
2415:.\Generated_Source\PSoC4/CapSense_1_CSHL.c ****     *  Returns filtered value.
2416:.\Generated_Source\PSoC4/CapSense_1_CSHL.c **** 	*
2417:.\Generated_Source\PSoC4/CapSense_1_CSHL.c **** 	* Global Variables:
2418:.\Generated_Source\PSoC4/CapSense_1_CSHL.c **** 	*  None.
2419:.\Generated_Source\PSoC4/CapSense_1_CSHL.c **** 	*
2420:.\Generated_Source\PSoC4/CapSense_1_CSHL.c **** 	* Side Effects:
2421:.\Generated_Source\PSoC4/CapSense_1_CSHL.c **** 	*  None
2422:.\Generated_Source\PSoC4/CapSense_1_CSHL.c **** 	* 
2423:.\Generated_Source\PSoC4/CapSense_1_CSHL.c ****     *******************************************************************************/
2424:.\Generated_Source\PSoC4/CapSense_1_CSHL.c ****     uint16 CapSense_1_IIR2Filter(uint16 x1, uint16 x2)
2425:.\Generated_Source\PSoC4/CapSense_1_CSHL.c ****     {
2426:.\Generated_Source\PSoC4/CapSense_1_CSHL.c ****         uint32 tmp;
2427:.\Generated_Source\PSoC4/CapSense_1_CSHL.c ****         
2428:.\Generated_Source\PSoC4/CapSense_1_CSHL.c ****         /* IIR = 1/2 Current Value+ 1/2 Previous Value */
2429:.\Generated_Source\PSoC4/CapSense_1_CSHL.c ****         tmp = (uint32)x1 + (uint32)x2;
2430:.\Generated_Source\PSoC4/CapSense_1_CSHL.c ****         tmp >>= 1u;
2431:.\Generated_Source\PSoC4/CapSense_1_CSHL.c ****     
ARM GAS  C:\Users\Jakob\AppData\Local\Temp\cc5GwTcI.s 			page 78


2432:.\Generated_Source\PSoC4/CapSense_1_CSHL.c ****         return ((uint16) tmp);
2433:.\Generated_Source\PSoC4/CapSense_1_CSHL.c ****     }
2434:.\Generated_Source\PSoC4/CapSense_1_CSHL.c **** #endif /* ( (0u != (CapSense_1_RAW_FILTER_MASK & CapSense_1_IIR2_FILTER)) || \
2435:.\Generated_Source\PSoC4/CapSense_1_CSHL.c ****        *    (0u != (CapSense_1_POS_FILTERS_MASK & CapSense_1_IIR2_FILTER)) )
2436:.\Generated_Source\PSoC4/CapSense_1_CSHL.c ****        */
2437:.\Generated_Source\PSoC4/CapSense_1_CSHL.c **** 
2438:.\Generated_Source\PSoC4/CapSense_1_CSHL.c **** 
2439:.\Generated_Source\PSoC4/CapSense_1_CSHL.c **** #if ( (0u != (CapSense_1_RAW_FILTER_MASK & CapSense_1_IIR4_FILTER)) || \
2440:.\Generated_Source\PSoC4/CapSense_1_CSHL.c ****       (0u != (CapSense_1_POS_FILTERS_MASK & CapSense_1_IIR4_FILTER)) )
2441:.\Generated_Source\PSoC4/CapSense_1_CSHL.c ****     /*******************************************************************************
2442:.\Generated_Source\PSoC4/CapSense_1_CSHL.c ****     * Function Name: CapSense_1_IIR4Filter
2443:.\Generated_Source\PSoC4/CapSense_1_CSHL.c ****     ********************************************************************************
2444:.\Generated_Source\PSoC4/CapSense_1_CSHL.c ****     *
2445:.\Generated_Source\PSoC4/CapSense_1_CSHL.c ****     * Summary:
2446:.\Generated_Source\PSoC4/CapSense_1_CSHL.c ****     *  This is the IIR1/4 filter function. IIR1/4 = 1/4current + 3/4previous.
2447:.\Generated_Source\PSoC4/CapSense_1_CSHL.c ****     *
2448:.\Generated_Source\PSoC4/CapSense_1_CSHL.c ****     * Parameters:
2449:.\Generated_Source\PSoC4/CapSense_1_CSHL.c ****     *  x1:  Current value.
2450:.\Generated_Source\PSoC4/CapSense_1_CSHL.c ****     *  x2:  Previous value.
2451:.\Generated_Source\PSoC4/CapSense_1_CSHL.c ****     *
2452:.\Generated_Source\PSoC4/CapSense_1_CSHL.c ****     * Return:
2453:.\Generated_Source\PSoC4/CapSense_1_CSHL.c ****     *  Returns a filtered value.
2454:.\Generated_Source\PSoC4/CapSense_1_CSHL.c **** 	*
2455:.\Generated_Source\PSoC4/CapSense_1_CSHL.c **** 	* Global Variables:
2456:.\Generated_Source\PSoC4/CapSense_1_CSHL.c **** 	*  None.
2457:.\Generated_Source\PSoC4/CapSense_1_CSHL.c **** 	*
2458:.\Generated_Source\PSoC4/CapSense_1_CSHL.c **** 	* Side Effects:
2459:.\Generated_Source\PSoC4/CapSense_1_CSHL.c **** 	*  None
2460:.\Generated_Source\PSoC4/CapSense_1_CSHL.c **** 	* 
2461:.\Generated_Source\PSoC4/CapSense_1_CSHL.c ****     *******************************************************************************/
2462:.\Generated_Source\PSoC4/CapSense_1_CSHL.c ****     uint16 CapSense_1_IIR4Filter(uint16 x1, uint16 x2)
2463:.\Generated_Source\PSoC4/CapSense_1_CSHL.c ****     {
 1946              		.loc 1 2463 0
 1947              		.cfi_startproc
 1948 0000 80B5     		push	{r7, lr}
 1949              	.LCFI81:
 1950              		.cfi_def_cfa_offset 8
 1951              		.cfi_offset 7, -8
 1952              		.cfi_offset 14, -4
 1953 0002 84B0     		sub	sp, sp, #16
 1954              	.LCFI82:
 1955              		.cfi_def_cfa_offset 24
 1956 0004 00AF     		add	r7, sp, #0
 1957              	.LCFI83:
 1958              		.cfi_def_cfa_register 7
 1959 0006 0A1C     		mov	r2, r1
 1960 0008 BB1D     		add	r3, r7, #6
 1961 000a 011C     		add	r1, r0, #0
 1962 000c 1980     		strh	r1, [r3]
 1963 000e 3B1D     		add	r3, r7, #4
 1964 0010 1A80     		strh	r2, [r3]
2464:.\Generated_Source\PSoC4/CapSense_1_CSHL.c ****         uint32 tmp;
2465:.\Generated_Source\PSoC4/CapSense_1_CSHL.c ****         
2466:.\Generated_Source\PSoC4/CapSense_1_CSHL.c ****         /* IIR = 1/4 Current Value + 3/4 Previous Value */
2467:.\Generated_Source\PSoC4/CapSense_1_CSHL.c ****         tmp = (uint32)x1 + (uint32)x2;
 1965              		.loc 1 2467 0
 1966 0012 BB1D     		add	r3, r7, #6
ARM GAS  C:\Users\Jakob\AppData\Local\Temp\cc5GwTcI.s 			page 79


 1967 0014 1A88     		ldrh	r2, [r3]
 1968 0016 3B1D     		add	r3, r7, #4
 1969 0018 1B88     		ldrh	r3, [r3]
 1970 001a D318     		add	r3, r2, r3
 1971 001c FB60     		str	r3, [r7, #12]
2468:.\Generated_Source\PSoC4/CapSense_1_CSHL.c ****         tmp += ((uint32)x2 << 1u);
 1972              		.loc 1 2468 0
 1973 001e 3B1D     		add	r3, r7, #4
 1974 0020 1B88     		ldrh	r3, [r3]
 1975 0022 5B00     		lsl	r3, r3, #1
 1976 0024 FA68     		ldr	r2, [r7, #12]
 1977 0026 D318     		add	r3, r2, r3
 1978 0028 FB60     		str	r3, [r7, #12]
2469:.\Generated_Source\PSoC4/CapSense_1_CSHL.c ****         tmp >>= 2u;
 1979              		.loc 1 2469 0
 1980 002a FB68     		ldr	r3, [r7, #12]
 1981 002c 9B08     		lsr	r3, r3, #2
 1982 002e FB60     		str	r3, [r7, #12]
2470:.\Generated_Source\PSoC4/CapSense_1_CSHL.c ****         
2471:.\Generated_Source\PSoC4/CapSense_1_CSHL.c ****         return ((uint16) tmp);
 1983              		.loc 1 2471 0
 1984 0030 FB68     		ldr	r3, [r7, #12]
 1985 0032 9BB2     		uxth	r3, r3
2472:.\Generated_Source\PSoC4/CapSense_1_CSHL.c ****     }
 1986              		.loc 1 2472 0
 1987 0034 181C     		mov	r0, r3
 1988 0036 BD46     		mov	sp, r7
 1989 0038 04B0     		add	sp, sp, #16
 1990              		@ sp needed for prologue
 1991 003a 80BD     		pop	{r7, pc}
 1992              		.cfi_endproc
 1993              	.LFE60:
 1994              		.size	CapSense_1_IIR4Filter, .-CapSense_1_IIR4Filter
 1995              		.section	.text.CapSense_1_GetWidgetNumber,"ax",%progbits
 1996              		.align	2
 1997              		.global	CapSense_1_GetWidgetNumber
 1998              		.code	16
 1999              		.thumb_func
 2000              		.type	CapSense_1_GetWidgetNumber, %function
 2001              	CapSense_1_GetWidgetNumber:
 2002              	.LFB61:
2473:.\Generated_Source\PSoC4/CapSense_1_CSHL.c **** #endif /* ( (0u != (CapSense_1_RAW_FILTER_MASK & CapSense_1_IIR4_FILTER)) || \
2474:.\Generated_Source\PSoC4/CapSense_1_CSHL.c ****        *    (0u != (CapSense_1_POS_FILTERS_MASK & CapSense_1_IIR4_FILTER)) )
2475:.\Generated_Source\PSoC4/CapSense_1_CSHL.c ****        */
2476:.\Generated_Source\PSoC4/CapSense_1_CSHL.c **** 
2477:.\Generated_Source\PSoC4/CapSense_1_CSHL.c **** 
2478:.\Generated_Source\PSoC4/CapSense_1_CSHL.c **** #if ( (0u != (CapSense_1_RAW_FILTER_MASK & CapSense_1_JITTER_FILTER)) || \
2479:.\Generated_Source\PSoC4/CapSense_1_CSHL.c ****       (0u != (CapSense_1_POS_FILTERS_MASK & CapSense_1_JITTER_FILTER)) )
2480:.\Generated_Source\PSoC4/CapSense_1_CSHL.c ****     /*******************************************************************************
2481:.\Generated_Source\PSoC4/CapSense_1_CSHL.c ****     * Function Name: uint16 CapSense_1_JitterFilter
2482:.\Generated_Source\PSoC4/CapSense_1_CSHL.c ****     ********************************************************************************
2483:.\Generated_Source\PSoC4/CapSense_1_CSHL.c ****     *
2484:.\Generated_Source\PSoC4/CapSense_1_CSHL.c ****     * Summary:
2485:.\Generated_Source\PSoC4/CapSense_1_CSHL.c ****     *  This is the Jitter filter function.
2486:.\Generated_Source\PSoC4/CapSense_1_CSHL.c ****     *
2487:.\Generated_Source\PSoC4/CapSense_1_CSHL.c ****     * Parameters:
2488:.\Generated_Source\PSoC4/CapSense_1_CSHL.c ****     *  x1:  Current value.
ARM GAS  C:\Users\Jakob\AppData\Local\Temp\cc5GwTcI.s 			page 80


2489:.\Generated_Source\PSoC4/CapSense_1_CSHL.c ****     *  x2:  Previous value.
2490:.\Generated_Source\PSoC4/CapSense_1_CSHL.c ****     *
2491:.\Generated_Source\PSoC4/CapSense_1_CSHL.c ****     * Return:
2492:.\Generated_Source\PSoC4/CapSense_1_CSHL.c ****     *  Returns filtered value.
2493:.\Generated_Source\PSoC4/CapSense_1_CSHL.c **** 	*
2494:.\Generated_Source\PSoC4/CapSense_1_CSHL.c **** 	* Global Variables:
2495:.\Generated_Source\PSoC4/CapSense_1_CSHL.c **** 	*  None.
2496:.\Generated_Source\PSoC4/CapSense_1_CSHL.c **** 	*
2497:.\Generated_Source\PSoC4/CapSense_1_CSHL.c **** 	* Side Effects:
2498:.\Generated_Source\PSoC4/CapSense_1_CSHL.c **** 	*  None
2499:.\Generated_Source\PSoC4/CapSense_1_CSHL.c **** 	* 
2500:.\Generated_Source\PSoC4/CapSense_1_CSHL.c ****     *******************************************************************************/
2501:.\Generated_Source\PSoC4/CapSense_1_CSHL.c ****     uint16 CapSense_1_JitterFilter(uint16 x1, uint16 x2)
2502:.\Generated_Source\PSoC4/CapSense_1_CSHL.c ****     {
2503:.\Generated_Source\PSoC4/CapSense_1_CSHL.c ****         if (x1 > x2)
2504:.\Generated_Source\PSoC4/CapSense_1_CSHL.c ****         {
2505:.\Generated_Source\PSoC4/CapSense_1_CSHL.c ****             x1--;
2506:.\Generated_Source\PSoC4/CapSense_1_CSHL.c ****         }
2507:.\Generated_Source\PSoC4/CapSense_1_CSHL.c ****         else
2508:.\Generated_Source\PSoC4/CapSense_1_CSHL.c ****         {
2509:.\Generated_Source\PSoC4/CapSense_1_CSHL.c ****             if (x1 < x2)
2510:.\Generated_Source\PSoC4/CapSense_1_CSHL.c ****             {
2511:.\Generated_Source\PSoC4/CapSense_1_CSHL.c ****                 x1++;
2512:.\Generated_Source\PSoC4/CapSense_1_CSHL.c ****             }
2513:.\Generated_Source\PSoC4/CapSense_1_CSHL.c ****         }
2514:.\Generated_Source\PSoC4/CapSense_1_CSHL.c ****     
2515:.\Generated_Source\PSoC4/CapSense_1_CSHL.c ****         return x1;
2516:.\Generated_Source\PSoC4/CapSense_1_CSHL.c ****     }
2517:.\Generated_Source\PSoC4/CapSense_1_CSHL.c **** #endif /* ( (0u != (CapSense_1_RAW_FILTER_MASK & CapSense_1_JITTER_FILTER)) || \
2518:.\Generated_Source\PSoC4/CapSense_1_CSHL.c ****        *    (0u != (CapSense_1_POS_FILTERS_MASK & CapSense_1_JITTER_FILTER)) )
2519:.\Generated_Source\PSoC4/CapSense_1_CSHL.c ****        */
2520:.\Generated_Source\PSoC4/CapSense_1_CSHL.c **** 
2521:.\Generated_Source\PSoC4/CapSense_1_CSHL.c **** 
2522:.\Generated_Source\PSoC4/CapSense_1_CSHL.c **** #if (0u != (CapSense_1_RAW_FILTER_MASK & CapSense_1_IIR8_FILTER))
2523:.\Generated_Source\PSoC4/CapSense_1_CSHL.c ****     /*******************************************************************************
2524:.\Generated_Source\PSoC4/CapSense_1_CSHL.c ****     * Function Name: CapSense_1_IIR8Filter
2525:.\Generated_Source\PSoC4/CapSense_1_CSHL.c ****     ********************************************************************************
2526:.\Generated_Source\PSoC4/CapSense_1_CSHL.c ****     *
2527:.\Generated_Source\PSoC4/CapSense_1_CSHL.c ****     * Summary:
2528:.\Generated_Source\PSoC4/CapSense_1_CSHL.c ****     *  This is the IIR1/8 filter function. IIR1/8 = 1/8current + 7/8previous.
2529:.\Generated_Source\PSoC4/CapSense_1_CSHL.c ****     *  Only applies for raw data.
2530:.\Generated_Source\PSoC4/CapSense_1_CSHL.c ****     *
2531:.\Generated_Source\PSoC4/CapSense_1_CSHL.c ****     * Parameters:
2532:.\Generated_Source\PSoC4/CapSense_1_CSHL.c ****     *  x1:  Current value.
2533:.\Generated_Source\PSoC4/CapSense_1_CSHL.c ****     *  x2:  Previous value.
2534:.\Generated_Source\PSoC4/CapSense_1_CSHL.c ****     *
2535:.\Generated_Source\PSoC4/CapSense_1_CSHL.c ****     * Return:
2536:.\Generated_Source\PSoC4/CapSense_1_CSHL.c ****     *  Returns filtered value.
2537:.\Generated_Source\PSoC4/CapSense_1_CSHL.c **** 	*
2538:.\Generated_Source\PSoC4/CapSense_1_CSHL.c **** 	* Global Variables:
2539:.\Generated_Source\PSoC4/CapSense_1_CSHL.c **** 	*  None.
2540:.\Generated_Source\PSoC4/CapSense_1_CSHL.c **** 	*
2541:.\Generated_Source\PSoC4/CapSense_1_CSHL.c **** 	* Side Effects:
2542:.\Generated_Source\PSoC4/CapSense_1_CSHL.c **** 	*  None
2543:.\Generated_Source\PSoC4/CapSense_1_CSHL.c **** 	* 
2544:.\Generated_Source\PSoC4/CapSense_1_CSHL.c ****     *******************************************************************************/
2545:.\Generated_Source\PSoC4/CapSense_1_CSHL.c ****     uint16 CapSense_1_IIR8Filter(uint16 x1, uint16 x2)
ARM GAS  C:\Users\Jakob\AppData\Local\Temp\cc5GwTcI.s 			page 81


2546:.\Generated_Source\PSoC4/CapSense_1_CSHL.c ****     {
2547:.\Generated_Source\PSoC4/CapSense_1_CSHL.c ****         uint32 tmp;
2548:.\Generated_Source\PSoC4/CapSense_1_CSHL.c ****         
2549:.\Generated_Source\PSoC4/CapSense_1_CSHL.c ****         /* IIR = 1/8 Current Value + 7/8 Previous Value */
2550:.\Generated_Source\PSoC4/CapSense_1_CSHL.c ****         tmp = (uint32)x1;
2551:.\Generated_Source\PSoC4/CapSense_1_CSHL.c ****         tmp += (((uint32)x2 << 3u) - ((uint32)x2));
2552:.\Generated_Source\PSoC4/CapSense_1_CSHL.c ****         tmp >>= 3u;
2553:.\Generated_Source\PSoC4/CapSense_1_CSHL.c ****     
2554:.\Generated_Source\PSoC4/CapSense_1_CSHL.c ****         return ((uint16) tmp);
2555:.\Generated_Source\PSoC4/CapSense_1_CSHL.c ****     }
2556:.\Generated_Source\PSoC4/CapSense_1_CSHL.c **** #endif /* (0u != (CapSense_1_RAW_FILTER_MASK & CapSense_1_IIR8_FILTER)) */
2557:.\Generated_Source\PSoC4/CapSense_1_CSHL.c **** 
2558:.\Generated_Source\PSoC4/CapSense_1_CSHL.c **** 
2559:.\Generated_Source\PSoC4/CapSense_1_CSHL.c **** #if (0u != (CapSense_1_RAW_FILTER_MASK & CapSense_1_IIR16_FILTER))
2560:.\Generated_Source\PSoC4/CapSense_1_CSHL.c ****     /*******************************************************************************
2561:.\Generated_Source\PSoC4/CapSense_1_CSHL.c ****     * Function Name: CapSense_1_IIR16Filter
2562:.\Generated_Source\PSoC4/CapSense_1_CSHL.c ****     ********************************************************************************
2563:.\Generated_Source\PSoC4/CapSense_1_CSHL.c ****     *
2564:.\Generated_Source\PSoC4/CapSense_1_CSHL.c ****     * Summary:
2565:.\Generated_Source\PSoC4/CapSense_1_CSHL.c ****     *  This is the IIR1/16 filter function. IIR1/16 = 1/16current + 15/16previous.
2566:.\Generated_Source\PSoC4/CapSense_1_CSHL.c ****     *  Only applies for raw data.
2567:.\Generated_Source\PSoC4/CapSense_1_CSHL.c ****     *
2568:.\Generated_Source\PSoC4/CapSense_1_CSHL.c ****     * Parameters:
2569:.\Generated_Source\PSoC4/CapSense_1_CSHL.c ****     *  x1:  Current value.
2570:.\Generated_Source\PSoC4/CapSense_1_CSHL.c ****     *  x2:  Previous value.
2571:.\Generated_Source\PSoC4/CapSense_1_CSHL.c ****     *
2572:.\Generated_Source\PSoC4/CapSense_1_CSHL.c ****     * Return:
2573:.\Generated_Source\PSoC4/CapSense_1_CSHL.c ****     *  Returns filtered value.
2574:.\Generated_Source\PSoC4/CapSense_1_CSHL.c **** 	*
2575:.\Generated_Source\PSoC4/CapSense_1_CSHL.c **** 	* Global Variables:
2576:.\Generated_Source\PSoC4/CapSense_1_CSHL.c **** 	*  None.
2577:.\Generated_Source\PSoC4/CapSense_1_CSHL.c **** 	*
2578:.\Generated_Source\PSoC4/CapSense_1_CSHL.c **** 	* Side Effects:
2579:.\Generated_Source\PSoC4/CapSense_1_CSHL.c **** 	*  None
2580:.\Generated_Source\PSoC4/CapSense_1_CSHL.c **** 	* 
2581:.\Generated_Source\PSoC4/CapSense_1_CSHL.c ****     *******************************************************************************/
2582:.\Generated_Source\PSoC4/CapSense_1_CSHL.c ****     uint16 CapSense_1_IIR16Filter(uint16 x1, uint16 x2)
2583:.\Generated_Source\PSoC4/CapSense_1_CSHL.c ****     {
2584:.\Generated_Source\PSoC4/CapSense_1_CSHL.c ****         uint32 tmp;
2585:.\Generated_Source\PSoC4/CapSense_1_CSHL.c ****         
2586:.\Generated_Source\PSoC4/CapSense_1_CSHL.c ****         /* IIR = 1/16 Current Value + 15/16 Previous Value */
2587:.\Generated_Source\PSoC4/CapSense_1_CSHL.c ****         tmp = (uint32)x1;
2588:.\Generated_Source\PSoC4/CapSense_1_CSHL.c ****         tmp += (((uint32)x2 << 4u) - ((uint32)x2));
2589:.\Generated_Source\PSoC4/CapSense_1_CSHL.c ****         tmp >>= 4u;
2590:.\Generated_Source\PSoC4/CapSense_1_CSHL.c ****         
2591:.\Generated_Source\PSoC4/CapSense_1_CSHL.c ****         return ((uint16) tmp);
2592:.\Generated_Source\PSoC4/CapSense_1_CSHL.c ****     }
2593:.\Generated_Source\PSoC4/CapSense_1_CSHL.c **** #endif /* (CapSense_1_RAW_FILTER_MASK & CapSense_1_IIR16_FILTER) */
2594:.\Generated_Source\PSoC4/CapSense_1_CSHL.c **** 
2595:.\Generated_Source\PSoC4/CapSense_1_CSHL.c **** 
2596:.\Generated_Source\PSoC4/CapSense_1_CSHL.c **** #if (0u != (CapSense_1_TOTAL_MATRIX_BUTTONS_COUNT))
2597:.\Generated_Source\PSoC4/CapSense_1_CSHL.c **** 
2598:.\Generated_Source\PSoC4/CapSense_1_CSHL.c ****     /*******************************************************************************
2599:.\Generated_Source\PSoC4/CapSense_1_CSHL.c ****     * Function Name: CapSense_1_GetMatrixButtonPos
2600:.\Generated_Source\PSoC4/CapSense_1_CSHL.c ****     ********************************************************************************
2601:.\Generated_Source\PSoC4/CapSense_1_CSHL.c ****     *
2602:.\Generated_Source\PSoC4/CapSense_1_CSHL.c ****     * Summary:
ARM GAS  C:\Users\Jakob\AppData\Local\Temp\cc5GwTcI.s 			page 82


2603:.\Generated_Source\PSoC4/CapSense_1_CSHL.c ****     *  Function calculates and returns a touch position (column and row) for the matrix
2604:.\Generated_Source\PSoC4/CapSense_1_CSHL.c ****     *  button widget.
2605:.\Generated_Source\PSoC4/CapSense_1_CSHL.c ****     *
2606:.\Generated_Source\PSoC4/CapSense_1_CSHL.c ****     * Parameters:
2607:.\Generated_Source\PSoC4/CapSense_1_CSHL.c ****     *  widget:  widget number;
2608:.\Generated_Source\PSoC4/CapSense_1_CSHL.c ****     *  pos:     pointer to an array of two uint8, where touch position will be 
2609:.\Generated_Source\PSoC4/CapSense_1_CSHL.c ****     *           stored:
2610:.\Generated_Source\PSoC4/CapSense_1_CSHL.c ****     *           pos[0] - column position;
2611:.\Generated_Source\PSoC4/CapSense_1_CSHL.c ****     *           pos[1] - raw position.
2612:.\Generated_Source\PSoC4/CapSense_1_CSHL.c ****     *
2613:.\Generated_Source\PSoC4/CapSense_1_CSHL.c ****     * Return:
2614:.\Generated_Source\PSoC4/CapSense_1_CSHL.c ****     *  Returns 1 if row and column sensors of matrix button are active, 0 - in other
2615:.\Generated_Source\PSoC4/CapSense_1_CSHL.c ****     *  cases.
2616:.\Generated_Source\PSoC4/CapSense_1_CSHL.c **** 	*
2617:.\Generated_Source\PSoC4/CapSense_1_CSHL.c **** 	* Global Variables:
2618:.\Generated_Source\PSoC4/CapSense_1_CSHL.c **** 	*  CapSense_1_fingerThreshold[ ]  used to store the finger threshold for all widgets.
2619:.\Generated_Source\PSoC4/CapSense_1_CSHL.c **** 	*  CapSense_1_sensorSignal[ ]  used to store a difference between the current value of 
2620:.\Generated_Source\PSoC4/CapSense_1_CSHL.c **** 	*  raw data and a previous value of the baseline.
2621:.\Generated_Source\PSoC4/CapSense_1_CSHL.c **** 	*
2622:.\Generated_Source\PSoC4/CapSense_1_CSHL.c **** 	* Side Effects:
2623:.\Generated_Source\PSoC4/CapSense_1_CSHL.c **** 	*  None
2624:.\Generated_Source\PSoC4/CapSense_1_CSHL.c **** 	* 
2625:.\Generated_Source\PSoC4/CapSense_1_CSHL.c ****     *******************************************************************************/
2626:.\Generated_Source\PSoC4/CapSense_1_CSHL.c ****     uint32 CapSense_1_GetMatrixButtonPos(uint32 widget, uint8* pos)
2627:.\Generated_Source\PSoC4/CapSense_1_CSHL.c ****     {
2628:.\Generated_Source\PSoC4/CapSense_1_CSHL.c ****         uint8 i;
2629:.\Generated_Source\PSoC4/CapSense_1_CSHL.c ****         uint32 retVal = 0u;
2630:.\Generated_Source\PSoC4/CapSense_1_CSHL.c ****         uint16 row_sig_max = 0u;
2631:.\Generated_Source\PSoC4/CapSense_1_CSHL.c ****         uint16 col_sig_max = 0u;
2632:.\Generated_Source\PSoC4/CapSense_1_CSHL.c ****         uint8 row_ind = 0u;
2633:.\Generated_Source\PSoC4/CapSense_1_CSHL.c ****         uint8 col_ind = 0u;
2634:.\Generated_Source\PSoC4/CapSense_1_CSHL.c **** 
2635:.\Generated_Source\PSoC4/CapSense_1_CSHL.c ****         if (CapSense_1_CheckIsWidgetActive(widget) == 1u)
2636:.\Generated_Source\PSoC4/CapSense_1_CSHL.c ****         {
2637:.\Generated_Source\PSoC4/CapSense_1_CSHL.c ****             /* Find row number with maximal signal value */
2638:.\Generated_Source\PSoC4/CapSense_1_CSHL.c ****             for(i = CapSense_1_rawDataIndex[widget]; i < (CapSense_1_rawDataIndex[widget] + \
2639:.\Generated_Source\PSoC4/CapSense_1_CSHL.c ****                  CapSense_1_numberOfSensors[widget]); i++)
2640:.\Generated_Source\PSoC4/CapSense_1_CSHL.c ****             {
2641:.\Generated_Source\PSoC4/CapSense_1_CSHL.c ****                 if (CapSense_1_sensorSignal[i] > col_sig_max)
2642:.\Generated_Source\PSoC4/CapSense_1_CSHL.c ****                 {
2643:.\Generated_Source\PSoC4/CapSense_1_CSHL.c ****                     col_ind = i;
2644:.\Generated_Source\PSoC4/CapSense_1_CSHL.c ****                     col_sig_max = CapSense_1_sensorSignal[i];
2645:.\Generated_Source\PSoC4/CapSense_1_CSHL.c ****                 }
2646:.\Generated_Source\PSoC4/CapSense_1_CSHL.c ****             }
2647:.\Generated_Source\PSoC4/CapSense_1_CSHL.c **** 
2648:.\Generated_Source\PSoC4/CapSense_1_CSHL.c ****             /* Find row number with maximal signal value */
2649:.\Generated_Source\PSoC4/CapSense_1_CSHL.c ****             for(i = CapSense_1_rawDataIndex[widget+1u]; i < (CapSense_1_rawDataIndex[widget+1u] + \
2650:.\Generated_Source\PSoC4/CapSense_1_CSHL.c ****                  CapSense_1_numberOfSensors[widget+1u]); i++)
2651:.\Generated_Source\PSoC4/CapSense_1_CSHL.c ****             {
2652:.\Generated_Source\PSoC4/CapSense_1_CSHL.c ****                 if (CapSense_1_sensorSignal[i] > row_sig_max)
2653:.\Generated_Source\PSoC4/CapSense_1_CSHL.c ****                 {
2654:.\Generated_Source\PSoC4/CapSense_1_CSHL.c ****                     row_ind = i;
2655:.\Generated_Source\PSoC4/CapSense_1_CSHL.c ****                     row_sig_max = CapSense_1_sensorSignal[i];
2656:.\Generated_Source\PSoC4/CapSense_1_CSHL.c ****                 }
2657:.\Generated_Source\PSoC4/CapSense_1_CSHL.c ****             }
2658:.\Generated_Source\PSoC4/CapSense_1_CSHL.c **** 
2659:.\Generated_Source\PSoC4/CapSense_1_CSHL.c ****             if((col_sig_max >= CapSense_1_fingerThreshold[widget]) && \
ARM GAS  C:\Users\Jakob\AppData\Local\Temp\cc5GwTcI.s 			page 83


2660:.\Generated_Source\PSoC4/CapSense_1_CSHL.c ****                (row_sig_max >= CapSense_1_fingerThreshold[widget+1u]))
2661:.\Generated_Source\PSoC4/CapSense_1_CSHL.c ****             {
2662:.\Generated_Source\PSoC4/CapSense_1_CSHL.c ****                 pos[0u] = col_ind - CapSense_1_rawDataIndex[widget];
2663:.\Generated_Source\PSoC4/CapSense_1_CSHL.c ****                 pos[1u] = row_ind - CapSense_1_rawDataIndex[widget+1u];
2664:.\Generated_Source\PSoC4/CapSense_1_CSHL.c ****                 retVal = 1u;
2665:.\Generated_Source\PSoC4/CapSense_1_CSHL.c ****             }
2666:.\Generated_Source\PSoC4/CapSense_1_CSHL.c ****         }
2667:.\Generated_Source\PSoC4/CapSense_1_CSHL.c ****         return (retVal);
2668:.\Generated_Source\PSoC4/CapSense_1_CSHL.c ****     }
2669:.\Generated_Source\PSoC4/CapSense_1_CSHL.c **** 
2670:.\Generated_Source\PSoC4/CapSense_1_CSHL.c **** #endif /* (0u != (CapSense_1_TOTAL_MATRIX_BUTTONS_COUNT)) */
2671:.\Generated_Source\PSoC4/CapSense_1_CSHL.c **** 
2672:.\Generated_Source\PSoC4/CapSense_1_CSHL.c **** /*******************************************************************************
2673:.\Generated_Source\PSoC4/CapSense_1_CSHL.c **** * Function Name: CapSense_1_GetWidgetNumber
2674:.\Generated_Source\PSoC4/CapSense_1_CSHL.c **** ********************************************************************************
2675:.\Generated_Source\PSoC4/CapSense_1_CSHL.c **** *
2676:.\Generated_Source\PSoC4/CapSense_1_CSHL.c **** * Summary:
2677:.\Generated_Source\PSoC4/CapSense_1_CSHL.c **** *  This API returns the widget number for the sensor.
2678:.\Generated_Source\PSoC4/CapSense_1_CSHL.c **** *
2679:.\Generated_Source\PSoC4/CapSense_1_CSHL.c **** * Parameters:
2680:.\Generated_Source\PSoC4/CapSense_1_CSHL.c **** *  sensor: sensor index. The value of index can be 
2681:.\Generated_Source\PSoC4/CapSense_1_CSHL.c **** *  from 0 to (CapSense_1_TOTAL_SENSOR_COUNT-1).
2682:.\Generated_Source\PSoC4/CapSense_1_CSHL.c **** *
2683:.\Generated_Source\PSoC4/CapSense_1_CSHL.c **** * Return:
2684:.\Generated_Source\PSoC4/CapSense_1_CSHL.c **** *  This API returns the widget number for the sensor. 
2685:.\Generated_Source\PSoC4/CapSense_1_CSHL.c **** *
2686:.\Generated_Source\PSoC4/CapSense_1_CSHL.c **** * Global Variables:
2687:.\Generated_Source\PSoC4/CapSense_1_CSHL.c **** *  CapSense_1_widgetNumber[]  - stores widget numbers.
2688:.\Generated_Source\PSoC4/CapSense_1_CSHL.c **** * 
2689:.\Generated_Source\PSoC4/CapSense_1_CSHL.c **** * Side Effects:
2690:.\Generated_Source\PSoC4/CapSense_1_CSHL.c **** *  None
2691:.\Generated_Source\PSoC4/CapSense_1_CSHL.c **** *
2692:.\Generated_Source\PSoC4/CapSense_1_CSHL.c **** *******************************************************************************/
2693:.\Generated_Source\PSoC4/CapSense_1_CSHL.c **** uint32 CapSense_1_GetWidgetNumber(uint32 sensor)
2694:.\Generated_Source\PSoC4/CapSense_1_CSHL.c **** {
 2003              		.loc 1 2694 0
 2004              		.cfi_startproc
 2005 0000 80B5     		push	{r7, lr}
 2006              	.LCFI84:
 2007              		.cfi_def_cfa_offset 8
 2008              		.cfi_offset 7, -8
 2009              		.cfi_offset 14, -4
 2010 0002 82B0     		sub	sp, sp, #8
 2011              	.LCFI85:
 2012              		.cfi_def_cfa_offset 16
 2013 0004 00AF     		add	r7, sp, #0
 2014              	.LCFI86:
 2015              		.cfi_def_cfa_register 7
 2016 0006 7860     		str	r0, [r7, #4]
2695:.\Generated_Source\PSoC4/CapSense_1_CSHL.c **** 	return((uint32)CapSense_1_widgetNumber[sensor]);
 2017              		.loc 1 2695 0
 2018 0008 034A     		ldr	r2, .L122
 2019 000a 7B68     		ldr	r3, [r7, #4]
 2020 000c D318     		add	r3, r2, r3
 2021 000e 1B78     		ldrb	r3, [r3]
2696:.\Generated_Source\PSoC4/CapSense_1_CSHL.c **** }
 2022              		.loc 1 2696 0
ARM GAS  C:\Users\Jakob\AppData\Local\Temp\cc5GwTcI.s 			page 84


 2023 0010 181C     		mov	r0, r3
 2024 0012 BD46     		mov	sp, r7
 2025 0014 02B0     		add	sp, sp, #8
 2026              		@ sp needed for prologue
 2027 0016 80BD     		pop	{r7, pc}
 2028              	.L123:
 2029              		.align	2
 2030              	.L122:
 2031 0018 00000000 		.word	CapSense_1_widgetNumber
 2032              		.cfi_endproc
 2033              	.LFE61:
 2034              		.size	CapSense_1_GetWidgetNumber, .-CapSense_1_GetWidgetNumber
 2035              		.section	.text.CapSense_1_GetLowBaselineReset,"ax",%progbits
 2036              		.align	2
 2037              		.global	CapSense_1_GetLowBaselineReset
 2038              		.code	16
 2039              		.thumb_func
 2040              		.type	CapSense_1_GetLowBaselineReset, %function
 2041              	CapSense_1_GetLowBaselineReset:
 2042              	.LFB62:
2697:.\Generated_Source\PSoC4/CapSense_1_CSHL.c **** 
2698:.\Generated_Source\PSoC4/CapSense_1_CSHL.c **** /*******************************************************************************
2699:.\Generated_Source\PSoC4/CapSense_1_CSHL.c **** * Function Name: CapSense_1_GetLowBaselineReset
2700:.\Generated_Source\PSoC4/CapSense_1_CSHL.c **** ********************************************************************************
2701:.\Generated_Source\PSoC4/CapSense_1_CSHL.c **** *
2702:.\Generated_Source\PSoC4/CapSense_1_CSHL.c **** * Summary:
2703:.\Generated_Source\PSoC4/CapSense_1_CSHL.c **** *  This API returns the low baseline reset threshold value for the  sensor.
2704:.\Generated_Source\PSoC4/CapSense_1_CSHL.c **** *
2705:.\Generated_Source\PSoC4/CapSense_1_CSHL.c **** * Parameters:
2706:.\Generated_Source\PSoC4/CapSense_1_CSHL.c **** *  sensor: sensor index. The value of index can be 
2707:.\Generated_Source\PSoC4/CapSense_1_CSHL.c **** *  from 0 to (CapSense_1_TOTAL_SENSOR_COUNT-1).
2708:.\Generated_Source\PSoC4/CapSense_1_CSHL.c **** *
2709:.\Generated_Source\PSoC4/CapSense_1_CSHL.c **** * Return:
2710:.\Generated_Source\PSoC4/CapSense_1_CSHL.c **** *  low baseline reset threshold value a sensor.
2711:.\Generated_Source\PSoC4/CapSense_1_CSHL.c **** *
2712:.\Generated_Source\PSoC4/CapSense_1_CSHL.c **** * Global Variables:
2713:.\Generated_Source\PSoC4/CapSense_1_CSHL.c **** *  CapSense_1_lowBaselineReset[]  - stores low baseline reset values.
2714:.\Generated_Source\PSoC4/CapSense_1_CSHL.c **** * 
2715:.\Generated_Source\PSoC4/CapSense_1_CSHL.c **** * Side Effects:
2716:.\Generated_Source\PSoC4/CapSense_1_CSHL.c **** *  None
2717:.\Generated_Source\PSoC4/CapSense_1_CSHL.c **** *
2718:.\Generated_Source\PSoC4/CapSense_1_CSHL.c **** *******************************************************************************/
2719:.\Generated_Source\PSoC4/CapSense_1_CSHL.c **** uint8 CapSense_1_GetLowBaselineReset(uint32 sensor)
2720:.\Generated_Source\PSoC4/CapSense_1_CSHL.c **** {
 2043              		.loc 1 2720 0
 2044              		.cfi_startproc
 2045 0000 80B5     		push	{r7, lr}
 2046              	.LCFI87:
 2047              		.cfi_def_cfa_offset 8
 2048              		.cfi_offset 7, -8
 2049              		.cfi_offset 14, -4
 2050 0002 82B0     		sub	sp, sp, #8
 2051              	.LCFI88:
 2052              		.cfi_def_cfa_offset 16
 2053 0004 00AF     		add	r7, sp, #0
 2054              	.LCFI89:
 2055              		.cfi_def_cfa_register 7
ARM GAS  C:\Users\Jakob\AppData\Local\Temp\cc5GwTcI.s 			page 85


 2056 0006 7860     		str	r0, [r7, #4]
2721:.\Generated_Source\PSoC4/CapSense_1_CSHL.c **** 	return(CapSense_1_lowBaselineReset[sensor]);
 2057              		.loc 1 2721 0
 2058 0008 034A     		ldr	r2, .L126
 2059 000a 7B68     		ldr	r3, [r7, #4]
 2060 000c D318     		add	r3, r2, r3
 2061 000e 1B78     		ldrb	r3, [r3]
2722:.\Generated_Source\PSoC4/CapSense_1_CSHL.c **** }
 2062              		.loc 1 2722 0
 2063 0010 181C     		mov	r0, r3
 2064 0012 BD46     		mov	sp, r7
 2065 0014 02B0     		add	sp, sp, #8
 2066              		@ sp needed for prologue
 2067 0016 80BD     		pop	{r7, pc}
 2068              	.L127:
 2069              		.align	2
 2070              	.L126:
 2071 0018 00000000 		.word	CapSense_1_lowBaselineReset
 2072              		.cfi_endproc
 2073              	.LFE62:
 2074              		.size	CapSense_1_GetLowBaselineReset, .-CapSense_1_GetLowBaselineReset
 2075              		.section	.text.CapSense_1_GetDebounce,"ax",%progbits
 2076              		.align	2
 2077              		.global	CapSense_1_GetDebounce
 2078              		.code	16
 2079              		.thumb_func
 2080              		.type	CapSense_1_GetDebounce, %function
 2081              	CapSense_1_GetDebounce:
 2082              	.LFB63:
2723:.\Generated_Source\PSoC4/CapSense_1_CSHL.c **** 
2724:.\Generated_Source\PSoC4/CapSense_1_CSHL.c **** /*******************************************************************************
2725:.\Generated_Source\PSoC4/CapSense_1_CSHL.c **** * Function Name: CapSense_1_GetDebounce
2726:.\Generated_Source\PSoC4/CapSense_1_CSHL.c **** ********************************************************************************
2727:.\Generated_Source\PSoC4/CapSense_1_CSHL.c **** *
2728:.\Generated_Source\PSoC4/CapSense_1_CSHL.c **** * Summary:
2729:.\Generated_Source\PSoC4/CapSense_1_CSHL.c **** *  This API returns a debounce value.
2730:.\Generated_Source\PSoC4/CapSense_1_CSHL.c **** *
2731:.\Generated_Source\PSoC4/CapSense_1_CSHL.c **** * Parameters:
2732:.\Generated_Source\PSoC4/CapSense_1_CSHL.c **** *  sensor: sensor index. The value of index can be 
2733:.\Generated_Source\PSoC4/CapSense_1_CSHL.c **** *  from 0 to (CapSense_1_TOTAL_SENSOR_COUNT-1).
2734:.\Generated_Source\PSoC4/CapSense_1_CSHL.c **** *
2735:.\Generated_Source\PSoC4/CapSense_1_CSHL.c **** * Return:
2736:.\Generated_Source\PSoC4/CapSense_1_CSHL.c **** *  Debounce value 
2737:.\Generated_Source\PSoC4/CapSense_1_CSHL.c **** *
2738:.\Generated_Source\PSoC4/CapSense_1_CSHL.c **** * Global Variables:
2739:.\Generated_Source\PSoC4/CapSense_1_CSHL.c **** *  CapSense_1_debounce[]  - stores the debounce value.
2740:.\Generated_Source\PSoC4/CapSense_1_CSHL.c **** * 
2741:.\Generated_Source\PSoC4/CapSense_1_CSHL.c **** * Side Effects:
2742:.\Generated_Source\PSoC4/CapSense_1_CSHL.c **** *  None
2743:.\Generated_Source\PSoC4/CapSense_1_CSHL.c **** *
2744:.\Generated_Source\PSoC4/CapSense_1_CSHL.c **** *******************************************************************************/
2745:.\Generated_Source\PSoC4/CapSense_1_CSHL.c **** uint8 CapSense_1_GetDebounce(uint32 widget)
2746:.\Generated_Source\PSoC4/CapSense_1_CSHL.c **** {
 2083              		.loc 1 2746 0
 2084              		.cfi_startproc
 2085 0000 80B5     		push	{r7, lr}
 2086              	.LCFI90:
ARM GAS  C:\Users\Jakob\AppData\Local\Temp\cc5GwTcI.s 			page 86


 2087              		.cfi_def_cfa_offset 8
 2088              		.cfi_offset 7, -8
 2089              		.cfi_offset 14, -4
 2090 0002 82B0     		sub	sp, sp, #8
 2091              	.LCFI91:
 2092              		.cfi_def_cfa_offset 16
 2093 0004 00AF     		add	r7, sp, #0
 2094              	.LCFI92:
 2095              		.cfi_def_cfa_register 7
 2096 0006 7860     		str	r0, [r7, #4]
2747:.\Generated_Source\PSoC4/CapSense_1_CSHL.c **** 	return(CapSense_1_debounce[widget]);
 2097              		.loc 1 2747 0
 2098 0008 034A     		ldr	r2, .L130
 2099 000a 7B68     		ldr	r3, [r7, #4]
 2100 000c D318     		add	r3, r2, r3
 2101 000e 1B78     		ldrb	r3, [r3]
2748:.\Generated_Source\PSoC4/CapSense_1_CSHL.c **** }
 2102              		.loc 1 2748 0
 2103 0010 181C     		mov	r0, r3
 2104 0012 BD46     		mov	sp, r7
 2105 0014 02B0     		add	sp, sp, #8
 2106              		@ sp needed for prologue
 2107 0016 80BD     		pop	{r7, pc}
 2108              	.L131:
 2109              		.align	2
 2110              	.L130:
 2111 0018 00000000 		.word	CapSense_1_debounce
 2112              		.cfi_endproc
 2113              	.LFE63:
 2114              		.size	CapSense_1_GetDebounce, .-CapSense_1_GetDebounce
 2115              		.text
 2116              	.Letext0:
 2117              		.file 2 ".\\Generated_Source\\PSoC4\\cytypes.h"
 2118              		.file 3 ".\\Generated_Source\\PSoC4\\CapSense_1_PVT.h"
 2119              		.section	.debug_info,"",%progbits
 2120              	.Ldebug_info0:
 2121 0000 520B0000 		.4byte	0xb52
 2122 0004 0200     		.2byte	0x2
 2123 0006 00000000 		.4byte	.Ldebug_abbrev0
 2124 000a 04       		.byte	0x4
 2125 000b 01       		.uleb128 0x1
 2126 000c 0E060000 		.4byte	.LASF105
 2127 0010 01       		.byte	0x1
 2128 0011 CB080000 		.4byte	.LASF106
 2129 0015 9A020000 		.4byte	.LASF107
 2130 0019 00000000 		.4byte	.Ldebug_ranges0+0
 2131 001d 00000000 		.4byte	0
 2132 0021 00000000 		.4byte	0
 2133 0025 00000000 		.4byte	.Ldebug_line0
 2134 0029 02       		.uleb128 0x2
 2135 002a 01       		.byte	0x1
 2136 002b 06       		.byte	0x6
 2137 002c 3A010000 		.4byte	.LASF0
 2138 0030 02       		.uleb128 0x2
 2139 0031 01       		.byte	0x1
 2140 0032 08       		.byte	0x8
 2141 0033 98060000 		.4byte	.LASF1
ARM GAS  C:\Users\Jakob\AppData\Local\Temp\cc5GwTcI.s 			page 87


 2142 0037 02       		.uleb128 0x2
 2143 0038 02       		.byte	0x2
 2144 0039 05       		.byte	0x5
 2145 003a EC060000 		.4byte	.LASF2
 2146 003e 02       		.uleb128 0x2
 2147 003f 02       		.byte	0x2
 2148 0040 07       		.byte	0x7
 2149 0041 10030000 		.4byte	.LASF3
 2150 0045 02       		.uleb128 0x2
 2151 0046 04       		.byte	0x4
 2152 0047 05       		.byte	0x5
 2153 0048 76010000 		.4byte	.LASF4
 2154 004c 02       		.uleb128 0x2
 2155 004d 04       		.byte	0x4
 2156 004e 07       		.byte	0x7
 2157 004f 52020000 		.4byte	.LASF5
 2158 0053 02       		.uleb128 0x2
 2159 0054 08       		.byte	0x8
 2160 0055 05       		.byte	0x5
 2161 0056 2C010000 		.4byte	.LASF6
 2162 005a 02       		.uleb128 0x2
 2163 005b 08       		.byte	0x8
 2164 005c 07       		.byte	0x7
 2165 005d 84000000 		.4byte	.LASF7
 2166 0061 03       		.uleb128 0x3
 2167 0062 04       		.byte	0x4
 2168 0063 05       		.byte	0x5
 2169 0064 696E7400 		.ascii	"int\000"
 2170 0068 02       		.uleb128 0x2
 2171 0069 04       		.byte	0x4
 2172 006a 07       		.byte	0x7
 2173 006b 45020000 		.4byte	.LASF8
 2174 006f 04       		.uleb128 0x4
 2175 0070 98010000 		.4byte	.LASF9
 2176 0074 02       		.byte	0x2
 2177 0075 5B       		.byte	0x5b
 2178 0076 30000000 		.4byte	0x30
 2179 007a 04       		.uleb128 0x4
 2180 007b 00000000 		.4byte	.LASF10
 2181 007f 02       		.byte	0x2
 2182 0080 5C       		.byte	0x5c
 2183 0081 3E000000 		.4byte	0x3e
 2184 0085 04       		.uleb128 0x4
 2185 0086 A5010000 		.4byte	.LASF11
 2186 008a 02       		.byte	0x2
 2187 008b 5D       		.byte	0x5d
 2188 008c 4C000000 		.4byte	0x4c
 2189 0090 02       		.uleb128 0x2
 2190 0091 04       		.byte	0x4
 2191 0092 04       		.byte	0x4
 2192 0093 5D050000 		.4byte	.LASF12
 2193 0097 02       		.uleb128 0x2
 2194 0098 08       		.byte	0x8
 2195 0099 04       		.byte	0x4
 2196 009a 9E010000 		.4byte	.LASF13
 2197 009e 02       		.uleb128 0x2
 2198 009f 01       		.byte	0x1
ARM GAS  C:\Users\Jakob\AppData\Local\Temp\cc5GwTcI.s 			page 88


 2199 00a0 08       		.byte	0x8
 2200 00a1 89070000 		.4byte	.LASF14
 2201 00a5 02       		.uleb128 0x2
 2202 00a6 04       		.byte	0x4
 2203 00a7 07       		.byte	0x7
 2204 00a8 67040000 		.4byte	.LASF15
 2205 00ac 05       		.uleb128 0x5
 2206 00ad 38       		.byte	0x38
 2207 00ae 03       		.byte	0x3
 2208 00af 28       		.byte	0x28
 2209 00b0 79010000 		.4byte	0x179
 2210 00b4 06       		.uleb128 0x6
 2211 00b5 C2040000 		.4byte	.LASF16
 2212 00b9 03       		.byte	0x3
 2213 00ba 2A       		.byte	0x2a
 2214 00bb 79010000 		.4byte	0x179
 2215 00bf 02       		.byte	0x2
 2216 00c0 23       		.byte	0x23
 2217 00c1 00       		.uleb128 0
 2218 00c2 06       		.uleb128 0x6
 2219 00c3 D1040000 		.4byte	.LASF17
 2220 00c7 03       		.byte	0x3
 2221 00c8 2B       		.byte	0x2b
 2222 00c9 79010000 		.4byte	0x179
 2223 00cd 02       		.byte	0x2
 2224 00ce 23       		.byte	0x23
 2225 00cf 04       		.uleb128 0x4
 2226 00d0 06       		.uleb128 0x6
 2227 00d1 23030000 		.4byte	.LASF18
 2228 00d5 03       		.byte	0x3
 2229 00d6 2C       		.byte	0x2c
 2230 00d7 79010000 		.4byte	0x179
 2231 00db 02       		.byte	0x2
 2232 00dc 23       		.byte	0x23
 2233 00dd 08       		.uleb128 0x8
 2234 00de 06       		.uleb128 0x6
 2235 00df 03040000 		.4byte	.LASF19
 2236 00e3 03       		.byte	0x3
 2237 00e4 2D       		.byte	0x2d
 2238 00e5 79010000 		.4byte	0x179
 2239 00e9 02       		.byte	0x2
 2240 00ea 23       		.byte	0x23
 2241 00eb 0C       		.uleb128 0xc
 2242 00ec 06       		.uleb128 0x6
 2243 00ed FD060000 		.4byte	.LASF20
 2244 00f1 03       		.byte	0x3
 2245 00f2 2E       		.byte	0x2e
 2246 00f3 79010000 		.4byte	0x179
 2247 00f7 02       		.byte	0x2
 2248 00f8 23       		.byte	0x23
 2249 00f9 10       		.uleb128 0x10
 2250 00fa 06       		.uleb128 0x6
 2251 00fb 5F010000 		.4byte	.LASF21
 2252 00ff 03       		.byte	0x3
 2253 0100 2F       		.byte	0x2f
 2254 0101 7F010000 		.4byte	0x17f
 2255 0105 02       		.byte	0x2
ARM GAS  C:\Users\Jakob\AppData\Local\Temp\cc5GwTcI.s 			page 89


 2256 0106 23       		.byte	0x23
 2257 0107 14       		.uleb128 0x14
 2258 0108 06       		.uleb128 0x6
 2259 0109 64020000 		.4byte	.LASF22
 2260 010d 03       		.byte	0x3
 2261 010e 30       		.byte	0x30
 2262 010f 8A010000 		.4byte	0x18a
 2263 0113 02       		.byte	0x2
 2264 0114 23       		.byte	0x23
 2265 0115 18       		.uleb128 0x18
 2266 0116 06       		.uleb128 0x6
 2267 0117 A6080000 		.4byte	.LASF23
 2268 011b 03       		.byte	0x3
 2269 011c 31       		.byte	0x31
 2270 011d 7F010000 		.4byte	0x17f
 2271 0121 02       		.byte	0x2
 2272 0122 23       		.byte	0x23
 2273 0123 1C       		.uleb128 0x1c
 2274 0124 06       		.uleb128 0x6
 2275 0125 4F010000 		.4byte	.LASF24
 2276 0129 03       		.byte	0x3
 2277 012a 32       		.byte	0x32
 2278 012b 7F010000 		.4byte	0x17f
 2279 012f 02       		.byte	0x2
 2280 0130 23       		.byte	0x23
 2281 0131 20       		.uleb128 0x20
 2282 0132 06       		.uleb128 0x6
 2283 0133 44000000 		.4byte	.LASF25
 2284 0137 03       		.byte	0x3
 2285 0138 33       		.byte	0x33
 2286 0139 A0010000 		.4byte	0x1a0
 2287 013d 02       		.byte	0x2
 2288 013e 23       		.byte	0x23
 2289 013f 24       		.uleb128 0x24
 2290 0140 06       		.uleb128 0x6
 2291 0141 E1070000 		.4byte	.LASF26
 2292 0145 03       		.byte	0x3
 2293 0146 34       		.byte	0x34
 2294 0147 B2010000 		.4byte	0x1b2
 2295 014b 02       		.byte	0x2
 2296 014c 23       		.byte	0x23
 2297 014d 28       		.uleb128 0x28
 2298 014e 06       		.uleb128 0x6
 2299 014f A6060000 		.4byte	.LASF27
 2300 0153 03       		.byte	0x3
 2301 0154 35       		.byte	0x35
 2302 0155 A0010000 		.4byte	0x1a0
 2303 0159 02       		.byte	0x2
 2304 015a 23       		.byte	0x23
 2305 015b 2C       		.uleb128 0x2c
 2306 015c 06       		.uleb128 0x6
 2307 015d 73020000 		.4byte	.LASF28
 2308 0161 03       		.byte	0x3
 2309 0162 36       		.byte	0x36
 2310 0163 CD010000 		.4byte	0x1cd
 2311 0167 02       		.byte	0x2
 2312 0168 23       		.byte	0x23
ARM GAS  C:\Users\Jakob\AppData\Local\Temp\cc5GwTcI.s 			page 90


 2313 0169 30       		.uleb128 0x30
 2314 016a 06       		.uleb128 0x6
 2315 016b 63080000 		.4byte	.LASF29
 2316 016f 03       		.byte	0x3
 2317 0170 37       		.byte	0x37
 2318 0171 E9010000 		.4byte	0x1e9
 2319 0175 02       		.byte	0x2
 2320 0176 23       		.byte	0x23
 2321 0177 34       		.uleb128 0x34
 2322 0178 00       		.byte	0
 2323 0179 07       		.uleb128 0x7
 2324 017a 04       		.byte	0x4
 2325 017b 6F000000 		.4byte	0x6f
 2326 017f 07       		.uleb128 0x7
 2327 0180 04       		.byte	0x4
 2328 0181 85010000 		.4byte	0x185
 2329 0185 08       		.uleb128 0x8
 2330 0186 6F000000 		.4byte	0x6f
 2331 018a 07       		.uleb128 0x7
 2332 018b 04       		.byte	0x4
 2333 018c 85000000 		.4byte	0x85
 2334 0190 09       		.uleb128 0x9
 2335 0191 01       		.byte	0x1
 2336 0192 7A000000 		.4byte	0x7a
 2337 0196 A0010000 		.4byte	0x1a0
 2338 019a 0A       		.uleb128 0xa
 2339 019b 85000000 		.4byte	0x85
 2340 019f 00       		.byte	0
 2341 01a0 07       		.uleb128 0x7
 2342 01a1 04       		.byte	0x4
 2343 01a2 90010000 		.4byte	0x190
 2344 01a6 0B       		.uleb128 0xb
 2345 01a7 01       		.byte	0x1
 2346 01a8 B2010000 		.4byte	0x1b2
 2347 01ac 0A       		.uleb128 0xa
 2348 01ad 85000000 		.4byte	0x85
 2349 01b1 00       		.byte	0
 2350 01b2 07       		.uleb128 0x7
 2351 01b3 04       		.byte	0x4
 2352 01b4 A6010000 		.4byte	0x1a6
 2353 01b8 09       		.uleb128 0x9
 2354 01b9 01       		.byte	0x1
 2355 01ba 85000000 		.4byte	0x85
 2356 01be CD010000 		.4byte	0x1cd
 2357 01c2 0A       		.uleb128 0xa
 2358 01c3 7F010000 		.4byte	0x17f
 2359 01c7 0A       		.uleb128 0xa
 2360 01c8 85000000 		.4byte	0x85
 2361 01cc 00       		.byte	0
 2362 01cd 07       		.uleb128 0x7
 2363 01ce 04       		.byte	0x4
 2364 01cf B8010000 		.4byte	0x1b8
 2365 01d3 0B       		.uleb128 0xb
 2366 01d4 01       		.byte	0x1
 2367 01d5 E9010000 		.4byte	0x1e9
 2368 01d9 0A       		.uleb128 0xa
 2369 01da 79010000 		.4byte	0x179
ARM GAS  C:\Users\Jakob\AppData\Local\Temp\cc5GwTcI.s 			page 91


 2370 01de 0A       		.uleb128 0xa
 2371 01df 85000000 		.4byte	0x85
 2372 01e3 0A       		.uleb128 0xa
 2373 01e4 85000000 		.4byte	0x85
 2374 01e8 00       		.byte	0
 2375 01e9 07       		.uleb128 0x7
 2376 01ea 04       		.byte	0x4
 2377 01eb D3010000 		.4byte	0x1d3
 2378 01ef 04       		.uleb128 0x4
 2379 01f0 8E070000 		.4byte	.LASF30
 2380 01f4 03       		.byte	0x3
 2381 01f5 38       		.byte	0x38
 2382 01f6 AC000000 		.4byte	0xac
 2383 01fa 05       		.uleb128 0x5
 2384 01fb 0C       		.byte	0xc
 2385 01fc 03       		.byte	0x3
 2386 01fd 3A       		.byte	0x3a
 2387 01fe 57020000 		.4byte	0x257
 2388 0202 06       		.uleb128 0x6
 2389 0203 19080000 		.4byte	.LASF31
 2390 0207 03       		.byte	0x3
 2391 0208 3C       		.byte	0x3c
 2392 0209 6F000000 		.4byte	0x6f
 2393 020d 02       		.byte	0x2
 2394 020e 23       		.byte	0x23
 2395 020f 00       		.uleb128 0
 2396 0210 06       		.uleb128 0x6
 2397 0211 BB080000 		.4byte	.LASF32
 2398 0215 03       		.byte	0x3
 2399 0216 3D       		.byte	0x3d
 2400 0217 6F000000 		.4byte	0x6f
 2401 021b 02       		.byte	0x2
 2402 021c 23       		.byte	0x23
 2403 021d 01       		.uleb128 0x1
 2404 021e 06       		.uleb128 0x6
 2405 021f 2F020000 		.4byte	.LASF33
 2406 0223 03       		.byte	0x3
 2407 0224 3E       		.byte	0x3e
 2408 0225 6F000000 		.4byte	0x6f
 2409 0229 02       		.byte	0x2
 2410 022a 23       		.byte	0x23
 2411 022b 02       		.uleb128 0x2
 2412 022c 06       		.uleb128 0x6
 2413 022d D6010000 		.4byte	.LASF34
 2414 0231 03       		.byte	0x3
 2415 0232 3F       		.byte	0x3f
 2416 0233 7A000000 		.4byte	0x7a
 2417 0237 02       		.byte	0x2
 2418 0238 23       		.byte	0x23
 2419 0239 04       		.uleb128 0x4
 2420 023a 06       		.uleb128 0x6
 2421 023b 59040000 		.4byte	.LASF35
 2422 023f 03       		.byte	0x3
 2423 0240 40       		.byte	0x40
 2424 0241 7A000000 		.4byte	0x7a
 2425 0245 02       		.byte	0x2
 2426 0246 23       		.byte	0x23
ARM GAS  C:\Users\Jakob\AppData\Local\Temp\cc5GwTcI.s 			page 92


 2427 0247 06       		.uleb128 0x6
 2428 0248 06       		.uleb128 0x6
 2429 0249 47040000 		.4byte	.LASF36
 2430 024d 03       		.byte	0x3
 2431 024e 41       		.byte	0x41
 2432 024f 57020000 		.4byte	0x257
 2433 0253 02       		.byte	0x2
 2434 0254 23       		.byte	0x23
 2435 0255 08       		.uleb128 0x8
 2436 0256 00       		.byte	0
 2437 0257 07       		.uleb128 0x7
 2438 0258 04       		.byte	0x4
 2439 0259 5D020000 		.4byte	0x25d
 2440 025d 08       		.uleb128 0x8
 2441 025e EF010000 		.4byte	0x1ef
 2442 0262 04       		.uleb128 0x4
 2443 0263 A2030000 		.4byte	.LASF37
 2444 0267 03       		.byte	0x3
 2445 0268 42       		.byte	0x42
 2446 0269 FA010000 		.4byte	0x1fa
 2447 026d 0C       		.uleb128 0xc
 2448 026e 01       		.byte	0x1
 2449 026f 70000000 		.4byte	.LASF38
 2450 0273 01       		.byte	0x1
 2451 0274 B0       		.byte	0xb0
 2452 0275 01       		.byte	0x1
 2453 0276 00000000 		.4byte	.LFB33
 2454 027a 84000000 		.4byte	.LFE33
 2455 027e 00000000 		.4byte	.LLST0
 2456 0282 01       		.byte	0x1
 2457 0283 A4020000 		.4byte	0x2a4
 2458 0287 0D       		.uleb128 0xd
 2459 0288 32030000 		.4byte	.LASF40
 2460 028c 01       		.byte	0x1
 2461 028d B0       		.byte	0xb0
 2462 028e 85000000 		.4byte	0x85
 2463 0292 02       		.byte	0x2
 2464 0293 91       		.byte	0x91
 2465 0294 6C       		.sleb128 -20
 2466 0295 0E       		.uleb128 0xe
 2467 0296 F6060000 		.4byte	.LASF42
 2468 029a 01       		.byte	0x1
 2469 029b B4       		.byte	0xb4
 2470 029c 6F000000 		.4byte	0x6f
 2471 02a0 02       		.byte	0x2
 2472 02a1 91       		.byte	0x91
 2473 02a2 77       		.sleb128 -9
 2474 02a3 00       		.byte	0
 2475 02a4 0F       		.uleb128 0xf
 2476 02a5 01       		.byte	0x1
 2477 02a6 E0040000 		.4byte	.LASF39
 2478 02aa 01       		.byte	0x1
 2479 02ab FC       		.byte	0xfc
 2480 02ac 01       		.byte	0x1
 2481 02ad 00000000 		.4byte	.LFB34
 2482 02b1 2A000000 		.4byte	.LFE34
 2483 02b5 38000000 		.4byte	.LLST1
ARM GAS  C:\Users\Jakob\AppData\Local\Temp\cc5GwTcI.s 			page 93


 2484 02b9 01       		.byte	0x1
 2485 02ba CD020000 		.4byte	0x2cd
 2486 02be 0D       		.uleb128 0xd
 2487 02bf 32030000 		.4byte	.LASF40
 2488 02c3 01       		.byte	0x1
 2489 02c4 FC       		.byte	0xfc
 2490 02c5 85000000 		.4byte	0x85
 2491 02c9 02       		.byte	0x2
 2492 02ca 91       		.byte	0x91
 2493 02cb 74       		.sleb128 -12
 2494 02cc 00       		.byte	0
 2495 02cd 10       		.uleb128 0x10
 2496 02ce 01       		.byte	0x1
 2497 02cf 4E000000 		.4byte	.LASF41
 2498 02d3 01       		.byte	0x1
 2499 02d4 2101     		.2byte	0x121
 2500 02d6 01       		.byte	0x1
 2501 02d7 00000000 		.4byte	.LFB35
 2502 02db 26000000 		.4byte	.LFE35
 2503 02df 70000000 		.4byte	.LLST2
 2504 02e3 01       		.byte	0x1
 2505 02e4 F6020000 		.4byte	0x2f6
 2506 02e8 11       		.uleb128 0x11
 2507 02e9 6900     		.ascii	"i\000"
 2508 02eb 01       		.byte	0x1
 2509 02ec 2301     		.2byte	0x123
 2510 02ee 85000000 		.4byte	0x85
 2511 02f2 02       		.byte	0x2
 2512 02f3 91       		.byte	0x91
 2513 02f4 74       		.sleb128 -12
 2514 02f5 00       		.byte	0
 2515 02f6 10       		.uleb128 0x10
 2516 02f7 01       		.byte	0x1
 2517 02f8 B7060000 		.4byte	.LASF43
 2518 02fc 01       		.byte	0x1
 2519 02fd 4401     		.2byte	0x144
 2520 02ff 01       		.byte	0x1
 2521 0300 00000000 		.4byte	.LFB36
 2522 0304 50000000 		.4byte	.LFE36
 2523 0308 A8000000 		.4byte	.LLST3
 2524 030c 01       		.byte	0x1
 2525 030d 2E030000 		.4byte	0x32e
 2526 0311 11       		.uleb128 0x11
 2527 0312 6900     		.ascii	"i\000"
 2528 0314 01       		.byte	0x1
 2529 0315 4601     		.2byte	0x146
 2530 0317 85000000 		.4byte	0x85
 2531 031b 02       		.byte	0x2
 2532 031c 91       		.byte	0x91
 2533 031d 74       		.sleb128 -12
 2534 031e 12       		.uleb128 0x12
 2535 031f 79070000 		.4byte	.LASF44
 2536 0323 01       		.byte	0x1
 2537 0324 4701     		.2byte	0x147
 2538 0326 85000000 		.4byte	0x85
 2539 032a 02       		.byte	0x2
 2540 032b 91       		.byte	0x91
ARM GAS  C:\Users\Jakob\AppData\Local\Temp\cc5GwTcI.s 			page 94


 2541 032c 70       		.sleb128 -16
 2542 032d 00       		.byte	0
 2543 032e 10       		.uleb128 0x10
 2544 032f 01       		.byte	0x1
 2545 0330 80050000 		.4byte	.LASF45
 2546 0334 01       		.byte	0x1
 2547 0335 8501     		.2byte	0x185
 2548 0337 01       		.byte	0x1
 2549 0338 00000000 		.4byte	.LFB37
 2550 033c 10020000 		.4byte	.LFE37
 2551 0340 E0000000 		.4byte	.LLST4
 2552 0344 01       		.byte	0x1
 2553 0345 B3030000 		.4byte	0x3b3
 2554 0349 13       		.uleb128 0x13
 2555 034a 32030000 		.4byte	.LASF40
 2556 034e 01       		.byte	0x1
 2557 034f 8501     		.2byte	0x185
 2558 0351 85000000 		.4byte	0x85
 2559 0355 02       		.byte	0x2
 2560 0356 91       		.byte	0x91
 2561 0357 5C       		.sleb128 -36
 2562 0358 12       		.uleb128 0x12
 2563 0359 FE030000 		.4byte	.LASF46
 2564 035d 01       		.byte	0x1
 2565 035e 8701     		.2byte	0x187
 2566 0360 85000000 		.4byte	0x85
 2567 0364 02       		.byte	0x2
 2568 0365 91       		.byte	0x91
 2569 0366 60       		.sleb128 -32
 2570 0367 12       		.uleb128 0x12
 2571 0368 EC070000 		.4byte	.LASF47
 2572 036c 01       		.byte	0x1
 2573 036d 8801     		.2byte	0x188
 2574 036f 85000000 		.4byte	0x85
 2575 0373 02       		.byte	0x2
 2576 0374 91       		.byte	0x91
 2577 0375 6C       		.sleb128 -20
 2578 0376 12       		.uleb128 0x12
 2579 0377 B3080000 		.4byte	.LASF48
 2580 037b 01       		.byte	0x1
 2581 037c 8901     		.2byte	0x189
 2582 037e 7A000000 		.4byte	0x7a
 2583 0382 02       		.byte	0x2
 2584 0383 91       		.byte	0x91
 2585 0384 6A       		.sleb128 -22
 2586 0385 12       		.uleb128 0x12
 2587 0386 07000000 		.4byte	.LASF49
 2588 038a 01       		.byte	0x1
 2589 038b 8A01     		.2byte	0x18a
 2590 038d 7A000000 		.4byte	0x7a
 2591 0391 02       		.byte	0x2
 2592 0392 91       		.byte	0x91
 2593 0393 66       		.sleb128 -26
 2594 0394 12       		.uleb128 0x12
 2595 0395 F6060000 		.4byte	.LASF42
 2596 0399 01       		.byte	0x1
 2597 039a 8B01     		.2byte	0x18b
ARM GAS  C:\Users\Jakob\AppData\Local\Temp\cc5GwTcI.s 			page 95


 2598 039c 6F000000 		.4byte	0x6f
 2599 03a0 02       		.byte	0x2
 2600 03a1 91       		.byte	0x91
 2601 03a2 69       		.sleb128 -23
 2602 03a3 12       		.uleb128 0x12
 2603 03a4 DD060000 		.4byte	.LASF50
 2604 03a8 01       		.byte	0x1
 2605 03a9 8C01     		.2byte	0x18c
 2606 03ab 6F000000 		.4byte	0x6f
 2607 03af 02       		.byte	0x2
 2608 03b0 91       		.byte	0x91
 2609 03b1 68       		.sleb128 -24
 2610 03b2 00       		.byte	0
 2611 03b3 10       		.uleb128 0x10
 2612 03b4 01       		.byte	0x1
 2613 03b5 07070000 		.4byte	.LASF51
 2614 03b9 01       		.byte	0x1
 2615 03ba 3F02     		.2byte	0x23f
 2616 03bc 01       		.byte	0x1
 2617 03bd 00000000 		.4byte	.LFB38
 2618 03c1 1E000000 		.4byte	.LFE38
 2619 03c5 18010000 		.4byte	.LLST5
 2620 03c9 01       		.byte	0x1
 2621 03ca DE030000 		.4byte	0x3de
 2622 03ce 13       		.uleb128 0x13
 2623 03cf 32030000 		.4byte	.LASF40
 2624 03d3 01       		.byte	0x1
 2625 03d4 3F02     		.2byte	0x23f
 2626 03d6 85000000 		.4byte	0x85
 2627 03da 02       		.byte	0x2
 2628 03db 91       		.byte	0x91
 2629 03dc 74       		.sleb128 -12
 2630 03dd 00       		.byte	0
 2631 03de 10       		.uleb128 0x10
 2632 03df 01       		.byte	0x1
 2633 03e0 1F050000 		.4byte	.LASF52
 2634 03e4 01       		.byte	0x1
 2635 03e5 7502     		.2byte	0x275
 2636 03e7 01       		.byte	0x1
 2637 03e8 00000000 		.4byte	.LFB39
 2638 03ec 40000000 		.4byte	.LFE39
 2639 03f0 50010000 		.4byte	.LLST6
 2640 03f4 01       		.byte	0x1
 2641 03f5 16040000 		.4byte	0x416
 2642 03f9 11       		.uleb128 0x11
 2643 03fa 6900     		.ascii	"i\000"
 2644 03fc 01       		.byte	0x1
 2645 03fd 7702     		.2byte	0x277
 2646 03ff 85000000 		.4byte	0x85
 2647 0403 02       		.byte	0x2
 2648 0404 91       		.byte	0x91
 2649 0405 74       		.sleb128 -12
 2650 0406 12       		.uleb128 0x12
 2651 0407 79070000 		.4byte	.LASF44
 2652 040b 01       		.byte	0x1
 2653 040c 7802     		.2byte	0x278
 2654 040e 85000000 		.4byte	0x85
ARM GAS  C:\Users\Jakob\AppData\Local\Temp\cc5GwTcI.s 			page 96


 2655 0412 02       		.byte	0x2
 2656 0413 91       		.byte	0x91
 2657 0414 70       		.sleb128 -16
 2658 0415 00       		.byte	0
 2659 0416 14       		.uleb128 0x14
 2660 0417 01       		.byte	0x1
 2661 0418 FE070000 		.4byte	.LASF55
 2662 041c 01       		.byte	0x1
 2663 041d 9A02     		.2byte	0x29a
 2664 041f 01       		.byte	0x1
 2665 0420 7A000000 		.4byte	0x7a
 2666 0424 00000000 		.4byte	.LFB40
 2667 0428 1C000000 		.4byte	.LFE40
 2668 042c 88010000 		.4byte	.LLST7
 2669 0430 01       		.byte	0x1
 2670 0431 45040000 		.4byte	0x445
 2671 0435 13       		.uleb128 0x13
 2672 0436 32030000 		.4byte	.LASF40
 2673 043a 01       		.byte	0x1
 2674 043b 9A02     		.2byte	0x29a
 2675 043d 85000000 		.4byte	0x85
 2676 0441 02       		.byte	0x2
 2677 0442 91       		.byte	0x91
 2678 0443 74       		.sleb128 -12
 2679 0444 00       		.byte	0
 2680 0445 15       		.uleb128 0x15
 2681 0446 01       		.byte	0x1
 2682 0447 10040000 		.4byte	.LASF53
 2683 044b 01       		.byte	0x1
 2684 044c B502     		.2byte	0x2b5
 2685 044e 01       		.byte	0x1
 2686 044f 00000000 		.4byte	.LFB41
 2687 0453 24000000 		.4byte	.LFE41
 2688 0457 C0010000 		.4byte	.LLST8
 2689 045b 01       		.byte	0x1
 2690 045c 7F040000 		.4byte	0x47f
 2691 0460 13       		.uleb128 0x13
 2692 0461 32030000 		.4byte	.LASF40
 2693 0465 01       		.byte	0x1
 2694 0466 B502     		.2byte	0x2b5
 2695 0468 85000000 		.4byte	0x85
 2696 046c 02       		.byte	0x2
 2697 046d 91       		.byte	0x91
 2698 046e 74       		.sleb128 -12
 2699 046f 13       		.uleb128 0x13
 2700 0470 F9020000 		.4byte	.LASF54
 2701 0474 01       		.byte	0x1
 2702 0475 B502     		.2byte	0x2b5
 2703 0477 7A000000 		.4byte	0x7a
 2704 047b 02       		.byte	0x2
 2705 047c 91       		.byte	0x91
 2706 047d 72       		.sleb128 -14
 2707 047e 00       		.byte	0
 2708 047f 14       		.uleb128 0x14
 2709 0480 01       		.byte	0x1
 2710 0481 A6040000 		.4byte	.LASF56
 2711 0485 01       		.byte	0x1
ARM GAS  C:\Users\Jakob\AppData\Local\Temp\cc5GwTcI.s 			page 97


 2712 0486 D002     		.2byte	0x2d0
 2713 0488 01       		.byte	0x1
 2714 0489 6F000000 		.4byte	0x6f
 2715 048d 00000000 		.4byte	.LFB42
 2716 0491 1C000000 		.4byte	.LFE42
 2717 0495 F8010000 		.4byte	.LLST9
 2718 0499 01       		.byte	0x1
 2719 049a AE040000 		.4byte	0x4ae
 2720 049e 13       		.uleb128 0x13
 2721 049f 32030000 		.4byte	.LASF40
 2722 04a3 01       		.byte	0x1
 2723 04a4 D002     		.2byte	0x2d0
 2724 04a6 85000000 		.4byte	0x85
 2725 04aa 02       		.byte	0x2
 2726 04ab 91       		.byte	0x91
 2727 04ac 74       		.sleb128 -12
 2728 04ad 00       		.byte	0
 2729 04ae 15       		.uleb128 0x15
 2730 04af 01       		.byte	0x1
 2731 04b0 DD020000 		.4byte	.LASF57
 2732 04b4 01       		.byte	0x1
 2733 04b5 EB02     		.2byte	0x2eb
 2734 04b7 01       		.byte	0x1
 2735 04b8 00000000 		.4byte	.LFB43
 2736 04bc 24000000 		.4byte	.LFE43
 2737 04c0 30020000 		.4byte	.LLST10
 2738 04c4 01       		.byte	0x1
 2739 04c5 E8040000 		.4byte	0x4e8
 2740 04c9 13       		.uleb128 0x13
 2741 04ca 32030000 		.4byte	.LASF40
 2742 04ce 01       		.byte	0x1
 2743 04cf EB02     		.2byte	0x2eb
 2744 04d1 85000000 		.4byte	0x85
 2745 04d5 02       		.byte	0x2
 2746 04d6 91       		.byte	0x91
 2747 04d7 74       		.sleb128 -12
 2748 04d8 13       		.uleb128 0x13
 2749 04d9 3F020000 		.4byte	.LASF58
 2750 04dd 01       		.byte	0x1
 2751 04de EB02     		.2byte	0x2eb
 2752 04e0 6F000000 		.4byte	0x6f
 2753 04e4 02       		.byte	0x2
 2754 04e5 91       		.byte	0x91
 2755 04e6 73       		.sleb128 -13
 2756 04e7 00       		.byte	0
 2757 04e8 14       		.uleb128 0x14
 2758 04e9 01       		.byte	0x1
 2759 04ea 45080000 		.4byte	.LASF59
 2760 04ee 01       		.byte	0x1
 2761 04ef 0603     		.2byte	0x306
 2762 04f1 01       		.byte	0x1
 2763 04f2 6F000000 		.4byte	0x6f
 2764 04f6 00000000 		.4byte	.LFB44
 2765 04fa 1C000000 		.4byte	.LFE44
 2766 04fe 68020000 		.4byte	.LLST11
 2767 0502 01       		.byte	0x1
 2768 0503 17050000 		.4byte	0x517
ARM GAS  C:\Users\Jakob\AppData\Local\Temp\cc5GwTcI.s 			page 98


 2769 0507 13       		.uleb128 0x13
 2770 0508 F6060000 		.4byte	.LASF42
 2771 050c 01       		.byte	0x1
 2772 050d 0603     		.2byte	0x306
 2773 050f 85000000 		.4byte	0x85
 2774 0513 02       		.byte	0x2
 2775 0514 91       		.byte	0x91
 2776 0515 74       		.sleb128 -12
 2777 0516 00       		.byte	0
 2778 0517 14       		.uleb128 0x14
 2779 0518 01       		.byte	0x1
 2780 0519 63050000 		.4byte	.LASF60
 2781 051d 01       		.byte	0x1
 2782 051e 2103     		.2byte	0x321
 2783 0520 01       		.byte	0x1
 2784 0521 6F000000 		.4byte	0x6f
 2785 0525 00000000 		.4byte	.LFB45
 2786 0529 1C000000 		.4byte	.LFE45
 2787 052d A0020000 		.4byte	.LLST12
 2788 0531 01       		.byte	0x1
 2789 0532 46050000 		.4byte	0x546
 2790 0536 13       		.uleb128 0x13
 2791 0537 F6060000 		.4byte	.LASF42
 2792 053b 01       		.byte	0x1
 2793 053c 2103     		.2byte	0x321
 2794 053e 85000000 		.4byte	0x85
 2795 0542 02       		.byte	0x2
 2796 0543 91       		.byte	0x91
 2797 0544 74       		.sleb128 -12
 2798 0545 00       		.byte	0
 2799 0546 14       		.uleb128 0x14
 2800 0547 01       		.byte	0x1
 2801 0548 B7010000 		.4byte	.LASF61
 2802 054c 01       		.byte	0x1
 2803 054d 3D03     		.2byte	0x33d
 2804 054f 01       		.byte	0x1
 2805 0550 6F000000 		.4byte	0x6f
 2806 0554 00000000 		.4byte	.LFB46
 2807 0558 1C000000 		.4byte	.LFE46
 2808 055c D8020000 		.4byte	.LLST13
 2809 0560 01       		.byte	0x1
 2810 0561 75050000 		.4byte	0x575
 2811 0565 13       		.uleb128 0x13
 2812 0566 F6060000 		.4byte	.LASF42
 2813 056a 01       		.byte	0x1
 2814 056b 3D03     		.2byte	0x33d
 2815 056d 85000000 		.4byte	0x85
 2816 0571 02       		.byte	0x2
 2817 0572 91       		.byte	0x91
 2818 0573 74       		.sleb128 -12
 2819 0574 00       		.byte	0
 2820 0575 14       		.uleb128 0x14
 2821 0576 01       		.byte	0x1
 2822 0577 58030000 		.4byte	.LASF62
 2823 057b 01       		.byte	0x1
 2824 057c 5903     		.2byte	0x359
 2825 057e 01       		.byte	0x1
ARM GAS  C:\Users\Jakob\AppData\Local\Temp\cc5GwTcI.s 			page 99


 2826 057f 6F000000 		.4byte	0x6f
 2827 0583 00000000 		.4byte	.LFB47
 2828 0587 1C000000 		.4byte	.LFE47
 2829 058b 10030000 		.4byte	.LLST14
 2830 058f 01       		.byte	0x1
 2831 0590 A4050000 		.4byte	0x5a4
 2832 0594 13       		.uleb128 0x13
 2833 0595 F6060000 		.4byte	.LASF42
 2834 0599 01       		.byte	0x1
 2835 059a 5903     		.2byte	0x359
 2836 059c 85000000 		.4byte	0x85
 2837 05a0 02       		.byte	0x2
 2838 05a1 91       		.byte	0x91
 2839 05a2 74       		.sleb128 -12
 2840 05a3 00       		.byte	0
 2841 05a4 15       		.uleb128 0x15
 2842 05a5 01       		.byte	0x1
 2843 05a6 72080000 		.4byte	.LASF63
 2844 05aa 01       		.byte	0x1
 2845 05ab 7A03     		.2byte	0x37a
 2846 05ad 01       		.byte	0x1
 2847 05ae 00000000 		.4byte	.LFB48
 2848 05b2 24000000 		.4byte	.LFE48
 2849 05b6 48030000 		.4byte	.LLST15
 2850 05ba 01       		.byte	0x1
 2851 05bb DE050000 		.4byte	0x5de
 2852 05bf 13       		.uleb128 0x13
 2853 05c0 F6060000 		.4byte	.LASF42
 2854 05c4 01       		.byte	0x1
 2855 05c5 7A03     		.2byte	0x37a
 2856 05c7 85000000 		.4byte	0x85
 2857 05cb 02       		.byte	0x2
 2858 05cc 91       		.byte	0x91
 2859 05cd 74       		.sleb128 -12
 2860 05ce 13       		.uleb128 0x13
 2861 05cf 3F020000 		.4byte	.LASF58
 2862 05d3 01       		.byte	0x1
 2863 05d4 7A03     		.2byte	0x37a
 2864 05d6 6F000000 		.4byte	0x6f
 2865 05da 02       		.byte	0x2
 2866 05db 91       		.byte	0x91
 2867 05dc 73       		.sleb128 -13
 2868 05dd 00       		.byte	0
 2869 05de 15       		.uleb128 0x15
 2870 05df 01       		.byte	0x1
 2871 05e0 17000000 		.4byte	.LASF64
 2872 05e4 01       		.byte	0x1
 2873 05e5 9603     		.2byte	0x396
 2874 05e7 01       		.byte	0x1
 2875 05e8 00000000 		.4byte	.LFB49
 2876 05ec 24000000 		.4byte	.LFE49
 2877 05f0 80030000 		.4byte	.LLST16
 2878 05f4 01       		.byte	0x1
 2879 05f5 18060000 		.4byte	0x618
 2880 05f9 13       		.uleb128 0x13
 2881 05fa F6060000 		.4byte	.LASF42
 2882 05fe 01       		.byte	0x1
ARM GAS  C:\Users\Jakob\AppData\Local\Temp\cc5GwTcI.s 			page 100


 2883 05ff 9603     		.2byte	0x396
 2884 0601 85000000 		.4byte	0x85
 2885 0605 02       		.byte	0x2
 2886 0606 91       		.byte	0x91
 2887 0607 74       		.sleb128 -12
 2888 0608 13       		.uleb128 0x13
 2889 0609 3F020000 		.4byte	.LASF58
 2890 060d 01       		.byte	0x1
 2891 060e 9603     		.2byte	0x396
 2892 0610 6F000000 		.4byte	0x6f
 2893 0614 02       		.byte	0x2
 2894 0615 91       		.byte	0x91
 2895 0616 73       		.sleb128 -13
 2896 0617 00       		.byte	0
 2897 0618 15       		.uleb128 0x15
 2898 0619 01       		.byte	0x1
 2899 061a A5050000 		.4byte	.LASF65
 2900 061e 01       		.byte	0x1
 2901 061f B203     		.2byte	0x3b2
 2902 0621 01       		.byte	0x1
 2903 0622 00000000 		.4byte	.LFB50
 2904 0626 24000000 		.4byte	.LFE50
 2905 062a B8030000 		.4byte	.LLST17
 2906 062e 01       		.byte	0x1
 2907 062f 52060000 		.4byte	0x652
 2908 0633 13       		.uleb128 0x13
 2909 0634 F6060000 		.4byte	.LASF42
 2910 0638 01       		.byte	0x1
 2911 0639 B203     		.2byte	0x3b2
 2912 063b 85000000 		.4byte	0x85
 2913 063f 02       		.byte	0x2
 2914 0640 91       		.byte	0x91
 2915 0641 74       		.sleb128 -12
 2916 0642 13       		.uleb128 0x13
 2917 0643 3F020000 		.4byte	.LASF58
 2918 0647 01       		.byte	0x1
 2919 0648 B203     		.2byte	0x3b2
 2920 064a 6F000000 		.4byte	0x6f
 2921 064e 02       		.byte	0x2
 2922 064f 91       		.byte	0x91
 2923 0650 73       		.sleb128 -13
 2924 0651 00       		.byte	0
 2925 0652 15       		.uleb128 0x15
 2926 0653 01       		.byte	0x1
 2927 0654 7D030000 		.4byte	.LASF66
 2928 0658 01       		.byte	0x1
 2929 0659 CF03     		.2byte	0x3cf
 2930 065b 01       		.byte	0x1
 2931 065c 00000000 		.4byte	.LFB51
 2932 0660 24000000 		.4byte	.LFE51
 2933 0664 F0030000 		.4byte	.LLST18
 2934 0668 01       		.byte	0x1
 2935 0669 8C060000 		.4byte	0x68c
 2936 066d 13       		.uleb128 0x13
 2937 066e F6060000 		.4byte	.LASF42
 2938 0672 01       		.byte	0x1
 2939 0673 CF03     		.2byte	0x3cf
ARM GAS  C:\Users\Jakob\AppData\Local\Temp\cc5GwTcI.s 			page 101


 2940 0675 85000000 		.4byte	0x85
 2941 0679 02       		.byte	0x2
 2942 067a 91       		.byte	0x91
 2943 067b 74       		.sleb128 -12
 2944 067c 13       		.uleb128 0x13
 2945 067d 3F020000 		.4byte	.LASF58
 2946 0681 01       		.byte	0x1
 2947 0682 CF03     		.2byte	0x3cf
 2948 0684 6F000000 		.4byte	0x6f
 2949 0688 02       		.byte	0x2
 2950 0689 91       		.byte	0x91
 2951 068a 73       		.sleb128 -13
 2952 068b 00       		.byte	0
 2953 068c 15       		.uleb128 0x15
 2954 068d 01       		.byte	0x1
 2955 068e 00010000 		.4byte	.LASF67
 2956 0692 01       		.byte	0x1
 2957 0693 EB03     		.2byte	0x3eb
 2958 0695 01       		.byte	0x1
 2959 0696 00000000 		.4byte	.LFB52
 2960 069a 24000000 		.4byte	.LFE52
 2961 069e 28040000 		.4byte	.LLST19
 2962 06a2 01       		.byte	0x1
 2963 06a3 C6060000 		.4byte	0x6c6
 2964 06a7 13       		.uleb128 0x13
 2965 06a8 F6060000 		.4byte	.LASF42
 2966 06ac 01       		.byte	0x1
 2967 06ad EB03     		.2byte	0x3eb
 2968 06af 85000000 		.4byte	0x85
 2969 06b3 02       		.byte	0x2
 2970 06b4 91       		.byte	0x91
 2971 06b5 74       		.sleb128 -12
 2972 06b6 13       		.uleb128 0x13
 2973 06b7 3F020000 		.4byte	.LASF58
 2974 06bb 01       		.byte	0x1
 2975 06bc EB03     		.2byte	0x3eb
 2976 06be 6F000000 		.4byte	0x6f
 2977 06c2 02       		.byte	0x2
 2978 06c3 91       		.byte	0x91
 2979 06c4 73       		.sleb128 -13
 2980 06c5 00       		.byte	0
 2981 06c6 15       		.uleb128 0x15
 2982 06c7 01       		.byte	0x1
 2983 06c8 39030000 		.4byte	.LASF68
 2984 06cc 01       		.byte	0x1
 2985 06cd 0704     		.2byte	0x407
 2986 06cf 01       		.byte	0x1
 2987 06d0 00000000 		.4byte	.LFB53
 2988 06d4 24000000 		.4byte	.LFE53
 2989 06d8 60040000 		.4byte	.LLST20
 2990 06dc 01       		.byte	0x1
 2991 06dd 00070000 		.4byte	0x700
 2992 06e1 13       		.uleb128 0x13
 2993 06e2 32030000 		.4byte	.LASF40
 2994 06e6 01       		.byte	0x1
 2995 06e7 0704     		.2byte	0x407
 2996 06e9 85000000 		.4byte	0x85
ARM GAS  C:\Users\Jakob\AppData\Local\Temp\cc5GwTcI.s 			page 102


 2997 06ed 02       		.byte	0x2
 2998 06ee 91       		.byte	0x91
 2999 06ef 74       		.sleb128 -12
 3000 06f0 13       		.uleb128 0x13
 3001 06f1 3F020000 		.4byte	.LASF58
 3002 06f5 01       		.byte	0x1
 3003 06f6 0704     		.2byte	0x407
 3004 06f8 6F000000 		.4byte	0x6f
 3005 06fc 02       		.byte	0x2
 3006 06fd 91       		.byte	0x91
 3007 06fe 73       		.sleb128 -13
 3008 06ff 00       		.byte	0
 3009 0700 16       		.uleb128 0x16
 3010 0701 01       		.byte	0x1
 3011 0702 57060000 		.4byte	.LASF69
 3012 0706 01       		.byte	0x1
 3013 0707 3504     		.2byte	0x435
 3014 0709 01       		.byte	0x1
 3015 070a 85000000 		.4byte	0x85
 3016 070e 00000000 		.4byte	.LFB54
 3017 0712 38010000 		.4byte	.LFE54
 3018 0716 98040000 		.4byte	.LLST21
 3019 071a 01       		.byte	0x1
 3020 071b 7A070000 		.4byte	0x77a
 3021 071f 13       		.uleb128 0x13
 3022 0720 32030000 		.4byte	.LASF40
 3023 0724 01       		.byte	0x1
 3024 0725 3504     		.2byte	0x435
 3025 0727 85000000 		.4byte	0x85
 3026 072b 02       		.byte	0x2
 3027 072c 91       		.byte	0x91
 3028 072d 6C       		.sleb128 -20
 3029 072e 12       		.uleb128 0x12
 3030 072f F6060000 		.4byte	.LASF42
 3031 0733 01       		.byte	0x1
 3032 0734 3704     		.2byte	0x437
 3033 0736 6F000000 		.4byte	0x6f
 3034 073a 02       		.byte	0x2
 3035 073b 91       		.byte	0x91
 3036 073c 77       		.sleb128 -9
 3037 073d 12       		.uleb128 0x12
 3038 073e 50040000 		.4byte	.LASF70
 3039 0742 01       		.byte	0x1
 3040 0743 3804     		.2byte	0x438
 3041 0745 6F000000 		.4byte	0x6f
 3042 0749 02       		.byte	0x2
 3043 074a 91       		.byte	0x91
 3044 074b 74       		.sleb128 -12
 3045 074c 12       		.uleb128 0x12
 3046 074d D3070000 		.4byte	.LASF71
 3047 0751 01       		.byte	0x1
 3048 0752 3904     		.2byte	0x439
 3049 0754 6F000000 		.4byte	0x6f
 3050 0758 02       		.byte	0x2
 3051 0759 91       		.byte	0x91
 3052 075a 73       		.sleb128 -13
 3053 075b 12       		.uleb128 0x12
ARM GAS  C:\Users\Jakob\AppData\Local\Temp\cc5GwTcI.s 			page 103


 3054 075c 34000000 		.4byte	.LASF72
 3055 0760 01       		.byte	0x1
 3056 0761 3B04     		.2byte	0x43b
 3057 0763 6F000000 		.4byte	0x6f
 3058 0767 02       		.byte	0x2
 3059 0768 91       		.byte	0x91
 3060 0769 76       		.sleb128 -10
 3061 076a 12       		.uleb128 0x12
 3062 076b AC010000 		.4byte	.LASF73
 3063 076f 01       		.byte	0x1
 3064 0770 3C04     		.2byte	0x43c
 3065 0772 6F000000 		.4byte	0x6f
 3066 0776 02       		.byte	0x2
 3067 0777 91       		.byte	0x91
 3068 0778 75       		.sleb128 -11
 3069 0779 00       		.byte	0
 3070 077a 16       		.uleb128 0x16
 3071 077b 01       		.byte	0x1
 3072 077c B3000000 		.4byte	.LASF74
 3073 0780 01       		.byte	0x1
 3074 0781 8604     		.2byte	0x486
 3075 0783 01       		.byte	0x1
 3076 0784 85000000 		.4byte	0x85
 3077 0788 00000000 		.4byte	.LFB55
 3078 078c 58000000 		.4byte	.LFE55
 3079 0790 D0040000 		.4byte	.LLST22
 3080 0794 01       		.byte	0x1
 3081 0795 D6070000 		.4byte	0x7d6
 3082 0799 13       		.uleb128 0x13
 3083 079a F6060000 		.4byte	.LASF42
 3084 079e 01       		.byte	0x1
 3085 079f 8604     		.2byte	0x486
 3086 07a1 85000000 		.4byte	0x85
 3087 07a5 02       		.byte	0x2
 3088 07a6 91       		.byte	0x91
 3089 07a7 64       		.sleb128 -28
 3090 07a8 12       		.uleb128 0x12
 3091 07a9 46010000 		.4byte	.LASF75
 3092 07ad 01       		.byte	0x1
 3093 07ae 8804     		.2byte	0x488
 3094 07b0 85000000 		.4byte	0x85
 3095 07b4 02       		.byte	0x2
 3096 07b5 91       		.byte	0x91
 3097 07b6 74       		.sleb128 -12
 3098 07b7 12       		.uleb128 0x12
 3099 07b8 F1070000 		.4byte	.LASF76
 3100 07bc 01       		.byte	0x1
 3101 07bd 8904     		.2byte	0x489
 3102 07bf 85000000 		.4byte	0x85
 3103 07c3 02       		.byte	0x2
 3104 07c4 91       		.byte	0x91
 3105 07c5 6C       		.sleb128 -20
 3106 07c6 12       		.uleb128 0x12
 3107 07c7 70010000 		.4byte	.LASF77
 3108 07cb 01       		.byte	0x1
 3109 07cc 8A04     		.2byte	0x48a
 3110 07ce 85000000 		.4byte	0x85
ARM GAS  C:\Users\Jakob\AppData\Local\Temp\cc5GwTcI.s 			page 104


 3111 07d2 02       		.byte	0x2
 3112 07d3 91       		.byte	0x91
 3113 07d4 70       		.sleb128 -16
 3114 07d5 00       		.byte	0
 3115 07d6 16       		.uleb128 0x16
 3116 07d7 01       		.byte	0x1
 3117 07d8 76060000 		.4byte	.LASF78
 3118 07dc 01       		.byte	0x1
 3119 07dd B404     		.2byte	0x4b4
 3120 07df 01       		.byte	0x1
 3121 07e0 85000000 		.4byte	0x85
 3122 07e4 00000000 		.4byte	.LFB56
 3123 07e8 38000000 		.4byte	.LFE56
 3124 07ec 08050000 		.4byte	.LLST23
 3125 07f0 01       		.byte	0x1
 3126 07f1 12080000 		.4byte	0x812
 3127 07f5 11       		.uleb128 0x11
 3128 07f6 6900     		.ascii	"i\000"
 3129 07f8 01       		.byte	0x1
 3130 07f9 B704     		.2byte	0x4b7
 3131 07fb 85000000 		.4byte	0x85
 3132 07ff 02       		.byte	0x2
 3133 0800 91       		.byte	0x91
 3134 0801 74       		.sleb128 -12
 3135 0802 12       		.uleb128 0x12
 3136 0803 70010000 		.4byte	.LASF77
 3137 0807 01       		.byte	0x1
 3138 0808 B804     		.2byte	0x4b8
 3139 080a 85000000 		.4byte	0x85
 3140 080e 02       		.byte	0x2
 3141 080f 91       		.byte	0x91
 3142 0810 70       		.sleb128 -16
 3143 0811 00       		.byte	0
 3144 0812 10       		.uleb128 0x10
 3145 0813 01       		.byte	0x1
 3146 0814 9B000000 		.4byte	.LASF79
 3147 0818 01       		.byte	0x1
 3148 0819 E304     		.2byte	0x4e3
 3149 081b 01       		.byte	0x1
 3150 081c 00000000 		.4byte	.LFB57
 3151 0820 70000000 		.4byte	.LFE57
 3152 0824 40050000 		.4byte	.LLST24
 3153 0828 01       		.byte	0x1
 3154 0829 5B080000 		.4byte	0x85b
 3155 082d 13       		.uleb128 0x13
 3156 082e F6060000 		.4byte	.LASF42
 3157 0832 01       		.byte	0x1
 3158 0833 E304     		.2byte	0x4e3
 3159 0835 85000000 		.4byte	0x85
 3160 0839 02       		.byte	0x2
 3161 083a 91       		.byte	0x91
 3162 083b 6C       		.sleb128 -20
 3163 083c 12       		.uleb128 0x12
 3164 083d 46010000 		.4byte	.LASF75
 3165 0841 01       		.byte	0x1
 3166 0842 E604     		.2byte	0x4e6
 3167 0844 6F000000 		.4byte	0x6f
ARM GAS  C:\Users\Jakob\AppData\Local\Temp\cc5GwTcI.s 			page 105


 3168 0848 02       		.byte	0x2
 3169 0849 91       		.byte	0x91
 3170 084a 77       		.sleb128 -9
 3171 084b 12       		.uleb128 0x12
 3172 084c F1070000 		.4byte	.LASF76
 3173 0850 01       		.byte	0x1
 3174 0851 E704     		.2byte	0x4e7
 3175 0853 6F000000 		.4byte	0x6f
 3176 0857 02       		.byte	0x2
 3177 0858 91       		.byte	0x91
 3178 0859 76       		.sleb128 -10
 3179 085a 00       		.byte	0
 3180 085b 10       		.uleb128 0x10
 3181 085c 01       		.byte	0x1
 3182 085d 7F010000 		.4byte	.LASF80
 3183 0861 01       		.byte	0x1
 3184 0862 0E05     		.2byte	0x50e
 3185 0864 01       		.byte	0x1
 3186 0865 00000000 		.4byte	.LFB58
 3187 0869 70000000 		.4byte	.LFE58
 3188 086d 78050000 		.4byte	.LLST25
 3189 0871 01       		.byte	0x1
 3190 0872 A4080000 		.4byte	0x8a4
 3191 0876 13       		.uleb128 0x13
 3192 0877 F6060000 		.4byte	.LASF42
 3193 087b 01       		.byte	0x1
 3194 087c 0E05     		.2byte	0x50e
 3195 087e 85000000 		.4byte	0x85
 3196 0882 02       		.byte	0x2
 3197 0883 91       		.byte	0x91
 3198 0884 6C       		.sleb128 -20
 3199 0885 12       		.uleb128 0x12
 3200 0886 46010000 		.4byte	.LASF75
 3201 088a 01       		.byte	0x1
 3202 088b 1005     		.2byte	0x510
 3203 088d 6F000000 		.4byte	0x6f
 3204 0891 02       		.byte	0x2
 3205 0892 91       		.byte	0x91
 3206 0893 77       		.sleb128 -9
 3207 0894 12       		.uleb128 0x12
 3208 0895 F1070000 		.4byte	.LASF76
 3209 0899 01       		.byte	0x1
 3210 089a 1105     		.2byte	0x511
 3211 089c 6F000000 		.4byte	0x6f
 3212 08a0 02       		.byte	0x2
 3213 08a1 91       		.byte	0x91
 3214 08a2 76       		.sleb128 -10
 3215 08a3 00       		.byte	0
 3216 08a4 14       		.uleb128 0x14
 3217 08a5 01       		.byte	0x1
 3218 08a6 82020000 		.4byte	.LASF81
 3219 08aa 01       		.byte	0x1
 3220 08ab 2609     		.2byte	0x926
 3221 08ad 01       		.byte	0x1
 3222 08ae 7A000000 		.4byte	0x7a
 3223 08b2 00000000 		.4byte	.LFB59
 3224 08b6 6A000000 		.4byte	.LFE59
ARM GAS  C:\Users\Jakob\AppData\Local\Temp\cc5GwTcI.s 			page 106


 3225 08ba B0050000 		.4byte	.LLST26
 3226 08be 01       		.byte	0x1
 3227 08bf FD080000 		.4byte	0x8fd
 3228 08c3 17       		.uleb128 0x17
 3229 08c4 783100   		.ascii	"x1\000"
 3230 08c7 01       		.byte	0x1
 3231 08c8 2609     		.2byte	0x926
 3232 08ca 7A000000 		.4byte	0x7a
 3233 08ce 02       		.byte	0x2
 3234 08cf 91       		.byte	0x91
 3235 08d0 6E       		.sleb128 -18
 3236 08d1 17       		.uleb128 0x17
 3237 08d2 783200   		.ascii	"x2\000"
 3238 08d5 01       		.byte	0x1
 3239 08d6 2609     		.2byte	0x926
 3240 08d8 7A000000 		.4byte	0x7a
 3241 08dc 02       		.byte	0x2
 3242 08dd 91       		.byte	0x91
 3243 08de 6C       		.sleb128 -20
 3244 08df 17       		.uleb128 0x17
 3245 08e0 783300   		.ascii	"x3\000"
 3246 08e3 01       		.byte	0x1
 3247 08e4 2609     		.2byte	0x926
 3248 08e6 7A000000 		.4byte	0x7a
 3249 08ea 02       		.byte	0x2
 3250 08eb 91       		.byte	0x91
 3251 08ec 6A       		.sleb128 -22
 3252 08ed 11       		.uleb128 0x11
 3253 08ee 746D7000 		.ascii	"tmp\000"
 3254 08f2 01       		.byte	0x1
 3255 08f3 2809     		.2byte	0x928
 3256 08f5 7A000000 		.4byte	0x7a
 3257 08f9 02       		.byte	0x2
 3258 08fa 91       		.byte	0x91
 3259 08fb 76       		.sleb128 -10
 3260 08fc 00       		.byte	0
 3261 08fd 14       		.uleb128 0x14
 3262 08fe 01       		.byte	0x1
 3263 08ff 90080000 		.4byte	.LASF82
 3264 0903 01       		.byte	0x1
 3265 0904 9E09     		.2byte	0x99e
 3266 0906 01       		.byte	0x1
 3267 0907 7A000000 		.4byte	0x7a
 3268 090b 00000000 		.4byte	.LFB60
 3269 090f 3C000000 		.4byte	.LFE60
 3270 0913 E8050000 		.4byte	.LLST27
 3271 0917 01       		.byte	0x1
 3272 0918 48090000 		.4byte	0x948
 3273 091c 17       		.uleb128 0x17
 3274 091d 783100   		.ascii	"x1\000"
 3275 0920 01       		.byte	0x1
 3276 0921 9E09     		.2byte	0x99e
 3277 0923 7A000000 		.4byte	0x7a
 3278 0927 02       		.byte	0x2
 3279 0928 91       		.byte	0x91
 3280 0929 6E       		.sleb128 -18
 3281 092a 17       		.uleb128 0x17
ARM GAS  C:\Users\Jakob\AppData\Local\Temp\cc5GwTcI.s 			page 107


 3282 092b 783200   		.ascii	"x2\000"
 3283 092e 01       		.byte	0x1
 3284 092f 9E09     		.2byte	0x99e
 3285 0931 7A000000 		.4byte	0x7a
 3286 0935 02       		.byte	0x2
 3287 0936 91       		.byte	0x91
 3288 0937 6C       		.sleb128 -20
 3289 0938 11       		.uleb128 0x11
 3290 0939 746D7000 		.ascii	"tmp\000"
 3291 093d 01       		.byte	0x1
 3292 093e A009     		.2byte	0x9a0
 3293 0940 85000000 		.4byte	0x85
 3294 0944 02       		.byte	0x2
 3295 0945 91       		.byte	0x91
 3296 0946 74       		.sleb128 -12
 3297 0947 00       		.byte	0
 3298 0948 14       		.uleb128 0x14
 3299 0949 01       		.byte	0x1
 3300 094a 3F070000 		.4byte	.LASF83
 3301 094e 01       		.byte	0x1
 3302 094f 850A     		.2byte	0xa85
 3303 0951 01       		.byte	0x1
 3304 0952 85000000 		.4byte	0x85
 3305 0956 00000000 		.4byte	.LFB61
 3306 095a 1C000000 		.4byte	.LFE61
 3307 095e 20060000 		.4byte	.LLST28
 3308 0962 01       		.byte	0x1
 3309 0963 77090000 		.4byte	0x977
 3310 0967 13       		.uleb128 0x13
 3311 0968 32030000 		.4byte	.LASF40
 3312 096c 01       		.byte	0x1
 3313 096d 850A     		.2byte	0xa85
 3314 096f 85000000 		.4byte	0x85
 3315 0973 02       		.byte	0x2
 3316 0974 91       		.byte	0x91
 3317 0975 74       		.sleb128 -12
 3318 0976 00       		.byte	0
 3319 0977 14       		.uleb128 0x14
 3320 0978 01       		.byte	0x1
 3321 0979 5A070000 		.4byte	.LASF84
 3322 097d 01       		.byte	0x1
 3323 097e 9F0A     		.2byte	0xa9f
 3324 0980 01       		.byte	0x1
 3325 0981 6F000000 		.4byte	0x6f
 3326 0985 00000000 		.4byte	.LFB62
 3327 0989 1C000000 		.4byte	.LFE62
 3328 098d 58060000 		.4byte	.LLST29
 3329 0991 01       		.byte	0x1
 3330 0992 A6090000 		.4byte	0x9a6
 3331 0996 13       		.uleb128 0x13
 3332 0997 32030000 		.4byte	.LASF40
 3333 099b 01       		.byte	0x1
 3334 099c 9F0A     		.2byte	0xa9f
 3335 099e 85000000 		.4byte	0x85
 3336 09a2 02       		.byte	0x2
 3337 09a3 91       		.byte	0x91
 3338 09a4 74       		.sleb128 -12
ARM GAS  C:\Users\Jakob\AppData\Local\Temp\cc5GwTcI.s 			page 108


 3339 09a5 00       		.byte	0
 3340 09a6 14       		.uleb128 0x14
 3341 09a7 01       		.byte	0x1
 3342 09a8 8F040000 		.4byte	.LASF85
 3343 09ac 01       		.byte	0x1
 3344 09ad B90A     		.2byte	0xab9
 3345 09af 01       		.byte	0x1
 3346 09b0 6F000000 		.4byte	0x6f
 3347 09b4 00000000 		.4byte	.LFB63
 3348 09b8 1C000000 		.4byte	.LFE63
 3349 09bc 90060000 		.4byte	.LLST30
 3350 09c0 01       		.byte	0x1
 3351 09c1 D5090000 		.4byte	0x9d5
 3352 09c5 13       		.uleb128 0x13
 3353 09c6 F6060000 		.4byte	.LASF42
 3354 09ca 01       		.byte	0x1
 3355 09cb B90A     		.2byte	0xab9
 3356 09cd 85000000 		.4byte	0x85
 3357 09d1 02       		.byte	0x2
 3358 09d2 91       		.byte	0x91
 3359 09d3 74       		.sleb128 -12
 3360 09d4 00       		.byte	0
 3361 09d5 18       		.uleb128 0x18
 3362 09d6 6F000000 		.4byte	0x6f
 3363 09da E5090000 		.4byte	0x9e5
 3364 09de 19       		.uleb128 0x19
 3365 09df A5000000 		.4byte	0xa5
 3366 09e3 01       		.byte	0x1
 3367 09e4 00       		.byte	0
 3368 09e5 0E       		.uleb128 0xe
 3369 09e6 04050000 		.4byte	.LASF86
 3370 09ea 01       		.byte	0x1
 3371 09eb 79       		.byte	0x79
 3372 09ec D5090000 		.4byte	0x9d5
 3373 09f0 05       		.byte	0x5
 3374 09f1 03       		.byte	0x3
 3375 09f2 10000000 		.4byte	CapSense_1_debounceCounter
 3376 09f6 18       		.uleb128 0x18
 3377 09f7 7A000000 		.4byte	0x7a
 3378 09fb 060A0000 		.4byte	0xa06
 3379 09ff 19       		.uleb128 0x19
 3380 0a00 A5000000 		.4byte	0xa5
 3381 0a04 00       		.byte	0
 3382 0a05 00       		.byte	0
 3383 0a06 1A       		.uleb128 0x1a
 3384 0a07 17010000 		.4byte	.LASF87
 3385 0a0b 01       		.byte	0x1
 3386 0a0c 54       		.byte	0x54
 3387 0a0d F6090000 		.4byte	0x9f6
 3388 0a11 01       		.byte	0x1
 3389 0a12 01       		.byte	0x1
 3390 0a13 18       		.uleb128 0x18
 3391 0a14 6F000000 		.4byte	0x6f
 3392 0a18 230A0000 		.4byte	0xa23
 3393 0a1c 19       		.uleb128 0x19
 3394 0a1d A5000000 		.4byte	0xa5
 3395 0a21 00       		.byte	0
ARM GAS  C:\Users\Jakob\AppData\Local\Temp\cc5GwTcI.s 			page 109


 3396 0a22 00       		.byte	0
 3397 0a23 1A       		.uleb128 0x1a
 3398 0a24 DC050000 		.4byte	.LASF88
 3399 0a28 01       		.byte	0x1
 3400 0a29 56       		.byte	0x56
 3401 0a2a 300A0000 		.4byte	0xa30
 3402 0a2e 01       		.byte	0x1
 3403 0a2f 01       		.byte	0x1
 3404 0a30 08       		.uleb128 0x8
 3405 0a31 130A0000 		.4byte	0xa13
 3406 0a35 1B       		.uleb128 0x1b
 3407 0a36 F4050000 		.4byte	.LASF89
 3408 0a3a 01       		.byte	0x1
 3409 0a3b 4F       		.byte	0x4f
 3410 0a3c F6090000 		.4byte	0x9f6
 3411 0a40 01       		.byte	0x1
 3412 0a41 05       		.byte	0x5
 3413 0a42 03       		.byte	0x3
 3414 0a43 00000000 		.4byte	CapSense_1_rawFilterData1
 3415 0a47 1A       		.uleb128 0x1a
 3416 0a48 2B040000 		.4byte	.LASF90
 3417 0a4c 01       		.byte	0x1
 3418 0a4d 55       		.byte	0x55
 3419 0a4e 130A0000 		.4byte	0xa13
 3420 0a52 01       		.byte	0x1
 3421 0a53 01       		.byte	0x1
 3422 0a54 1B       		.uleb128 0x1b
 3423 0a55 2B080000 		.4byte	.LASF91
 3424 0a59 01       		.byte	0x1
 3425 0a5a 5C       		.byte	0x5c
 3426 0a5b F6090000 		.4byte	0x9f6
 3427 0a5f 01       		.byte	0x1
 3428 0a60 05       		.byte	0x5
 3429 0a61 03       		.byte	0x3
 3430 0a62 00000000 		.4byte	CapSense_1_sensorBaseline
 3431 0a66 1B       		.uleb128 0x1b
 3432 0a67 B6070000 		.4byte	.LASF92
 3433 0a6b 01       		.byte	0x1
 3434 0a6c 5D       		.byte	0x5d
 3435 0a6d 130A0000 		.4byte	0xa13
 3436 0a71 01       		.byte	0x1
 3437 0a72 05       		.byte	0x5
 3438 0a73 03       		.byte	0x3
 3439 0a74 00000000 		.4byte	CapSense_1_sensorBaselineLow
 3440 0a78 1B       		.uleb128 0x1b
 3441 0a79 27070000 		.4byte	.LASF93
 3442 0a7d 01       		.byte	0x1
 3443 0a7e 5E       		.byte	0x5e
 3444 0a7f 130A0000 		.4byte	0xa13
 3445 0a83 01       		.byte	0x1
 3446 0a84 05       		.byte	0x5
 3447 0a85 03       		.byte	0x3
 3448 0a86 00000000 		.4byte	CapSense_1_sensorSignal
 3449 0a8a 1B       		.uleb128 0x1b
 3450 0a8b C4050000 		.4byte	.LASF94
 3451 0a8f 01       		.byte	0x1
 3452 0a90 5F       		.byte	0x5f
ARM GAS  C:\Users\Jakob\AppData\Local\Temp\cc5GwTcI.s 			page 110


 3453 0a91 130A0000 		.4byte	0xa13
 3454 0a95 01       		.byte	0x1
 3455 0a96 05       		.byte	0x5
 3456 0a97 03       		.byte	0x3
 3457 0a98 00000000 		.4byte	CapSense_1_sensorOnMask
 3458 0a9c 1B       		.uleb128 0x1b
 3459 0a9d 70040000 		.4byte	.LASF95
 3460 0aa1 01       		.byte	0x1
 3461 0aa2 61       		.byte	0x61
 3462 0aa3 130A0000 		.4byte	0xa13
 3463 0aa7 01       		.byte	0x1
 3464 0aa8 05       		.byte	0x5
 3465 0aa9 03       		.byte	0x3
 3466 0aaa 00000000 		.4byte	CapSense_1_lowBaselineResetCnt
 3467 0aae 1B       		.uleb128 0x1b
 3468 0aaf 41050000 		.4byte	.LASF96
 3469 0ab3 01       		.byte	0x1
 3470 0ab4 62       		.byte	0x62
 3471 0ab5 130A0000 		.4byte	0xa13
 3472 0ab9 01       		.byte	0x1
 3473 0aba 05       		.byte	0x5
 3474 0abb 03       		.byte	0x3
 3475 0abc 00000000 		.4byte	CapSense_1_lowBaselineReset
 3476 0ac0 1A       		.uleb128 0x1a
 3477 0ac1 FE020000 		.4byte	.LASF97
 3478 0ac5 01       		.byte	0x1
 3479 0ac6 69       		.byte	0x69
 3480 0ac7 62020000 		.4byte	0x262
 3481 0acb 01       		.byte	0x1
 3482 0acc 01       		.byte	0x1
 3483 0acd 1B       		.uleb128 0x1b
 3484 0ace 14020000 		.4byte	.LASF98
 3485 0ad2 01       		.byte	0x1
 3486 0ad3 6D       		.byte	0x6d
 3487 0ad4 130A0000 		.4byte	0xa13
 3488 0ad8 01       		.byte	0x1
 3489 0ad9 05       		.byte	0x5
 3490 0ada 03       		.byte	0x3
 3491 0adb 00000000 		.4byte	CapSense_1_fingerThreshold
 3492 0adf 1B       		.uleb128 0x1b
 3493 0ae0 D2000000 		.4byte	.LASF99
 3494 0ae4 01       		.byte	0x1
 3495 0ae5 6F       		.byte	0x6f
 3496 0ae6 130A0000 		.4byte	0xa13
 3497 0aea 01       		.byte	0x1
 3498 0aeb 05       		.byte	0x5
 3499 0aec 03       		.byte	0x3
 3500 0aed 00000000 		.4byte	CapSense_1_noiseThreshold
 3501 0af1 1B       		.uleb128 0x1b
 3502 0af2 C1030000 		.4byte	.LASF100
 3503 0af6 01       		.byte	0x1
 3504 0af7 71       		.byte	0x71
 3505 0af8 130A0000 		.4byte	0xa13
 3506 0afc 01       		.byte	0x1
 3507 0afd 05       		.byte	0x5
 3508 0afe 03       		.byte	0x3
 3509 0aff 00000000 		.4byte	CapSense_1_negativeNoiseThreshold
ARM GAS  C:\Users\Jakob\AppData\Local\Temp\cc5GwTcI.s 			page 111


 3510 0b03 1B       		.uleb128 0x1b
 3511 0b04 E6010000 		.4byte	.LASF101
 3512 0b08 01       		.byte	0x1
 3513 0b09 73       		.byte	0x73
 3514 0b0a 130A0000 		.4byte	0xa13
 3515 0b0e 01       		.byte	0x1
 3516 0b0f 05       		.byte	0x5
 3517 0b10 03       		.byte	0x3
 3518 0b11 00000000 		.4byte	CapSense_1_hysteresis
 3519 0b15 1B       		.uleb128 0x1b
 3520 0b16 EC000000 		.4byte	.LASF102
 3521 0b1a 01       		.byte	0x1
 3522 0b1b 75       		.byte	0x75
 3523 0b1c 130A0000 		.4byte	0xa13
 3524 0b20 01       		.byte	0x1
 3525 0b21 05       		.byte	0x5
 3526 0b22 03       		.byte	0x3
 3527 0b23 00000000 		.4byte	CapSense_1_debounce
 3528 0b27 1B       		.uleb128 0x1b
 3529 0b28 FC010000 		.4byte	.LASF103
 3530 0b2c 01       		.byte	0x1
 3531 0b2d 7D       		.byte	0x7d
 3532 0b2e 390B0000 		.4byte	0xb39
 3533 0b32 01       		.byte	0x1
 3534 0b33 05       		.byte	0x5
 3535 0b34 03       		.byte	0x3
 3536 0b35 00000000 		.4byte	CapSense_1_rawDataIndex
 3537 0b39 08       		.uleb128 0x8
 3538 0b3a 130A0000 		.4byte	0xa13
 3539 0b3e 1B       		.uleb128 0x1b
 3540 0b3f E3030000 		.4byte	.LASF104
 3541 0b43 01       		.byte	0x1
 3542 0b44 81       		.byte	0x81
 3543 0b45 500B0000 		.4byte	0xb50
 3544 0b49 01       		.byte	0x1
 3545 0b4a 05       		.byte	0x5
 3546 0b4b 03       		.byte	0x3
 3547 0b4c 00000000 		.4byte	CapSense_1_numberOfSensors
 3548 0b50 08       		.uleb128 0x8
 3549 0b51 130A0000 		.4byte	0xa13
 3550 0b55 00       		.byte	0
 3551              		.section	.debug_abbrev,"",%progbits
 3552              	.Ldebug_abbrev0:
 3553 0000 01       		.uleb128 0x1
 3554 0001 11       		.uleb128 0x11
 3555 0002 01       		.byte	0x1
 3556 0003 25       		.uleb128 0x25
 3557 0004 0E       		.uleb128 0xe
 3558 0005 13       		.uleb128 0x13
 3559 0006 0B       		.uleb128 0xb
 3560 0007 03       		.uleb128 0x3
 3561 0008 0E       		.uleb128 0xe
 3562 0009 1B       		.uleb128 0x1b
 3563 000a 0E       		.uleb128 0xe
 3564 000b 55       		.uleb128 0x55
 3565 000c 06       		.uleb128 0x6
 3566 000d 11       		.uleb128 0x11
ARM GAS  C:\Users\Jakob\AppData\Local\Temp\cc5GwTcI.s 			page 112


 3567 000e 01       		.uleb128 0x1
 3568 000f 52       		.uleb128 0x52
 3569 0010 01       		.uleb128 0x1
 3570 0011 10       		.uleb128 0x10
 3571 0012 06       		.uleb128 0x6
 3572 0013 00       		.byte	0
 3573 0014 00       		.byte	0
 3574 0015 02       		.uleb128 0x2
 3575 0016 24       		.uleb128 0x24
 3576 0017 00       		.byte	0
 3577 0018 0B       		.uleb128 0xb
 3578 0019 0B       		.uleb128 0xb
 3579 001a 3E       		.uleb128 0x3e
 3580 001b 0B       		.uleb128 0xb
 3581 001c 03       		.uleb128 0x3
 3582 001d 0E       		.uleb128 0xe
 3583 001e 00       		.byte	0
 3584 001f 00       		.byte	0
 3585 0020 03       		.uleb128 0x3
 3586 0021 24       		.uleb128 0x24
 3587 0022 00       		.byte	0
 3588 0023 0B       		.uleb128 0xb
 3589 0024 0B       		.uleb128 0xb
 3590 0025 3E       		.uleb128 0x3e
 3591 0026 0B       		.uleb128 0xb
 3592 0027 03       		.uleb128 0x3
 3593 0028 08       		.uleb128 0x8
 3594 0029 00       		.byte	0
 3595 002a 00       		.byte	0
 3596 002b 04       		.uleb128 0x4
 3597 002c 16       		.uleb128 0x16
 3598 002d 00       		.byte	0
 3599 002e 03       		.uleb128 0x3
 3600 002f 0E       		.uleb128 0xe
 3601 0030 3A       		.uleb128 0x3a
 3602 0031 0B       		.uleb128 0xb
 3603 0032 3B       		.uleb128 0x3b
 3604 0033 0B       		.uleb128 0xb
 3605 0034 49       		.uleb128 0x49
 3606 0035 13       		.uleb128 0x13
 3607 0036 00       		.byte	0
 3608 0037 00       		.byte	0
 3609 0038 05       		.uleb128 0x5
 3610 0039 13       		.uleb128 0x13
 3611 003a 01       		.byte	0x1
 3612 003b 0B       		.uleb128 0xb
 3613 003c 0B       		.uleb128 0xb
 3614 003d 3A       		.uleb128 0x3a
 3615 003e 0B       		.uleb128 0xb
 3616 003f 3B       		.uleb128 0x3b
 3617 0040 0B       		.uleb128 0xb
 3618 0041 01       		.uleb128 0x1
 3619 0042 13       		.uleb128 0x13
 3620 0043 00       		.byte	0
 3621 0044 00       		.byte	0
 3622 0045 06       		.uleb128 0x6
 3623 0046 0D       		.uleb128 0xd
ARM GAS  C:\Users\Jakob\AppData\Local\Temp\cc5GwTcI.s 			page 113


 3624 0047 00       		.byte	0
 3625 0048 03       		.uleb128 0x3
 3626 0049 0E       		.uleb128 0xe
 3627 004a 3A       		.uleb128 0x3a
 3628 004b 0B       		.uleb128 0xb
 3629 004c 3B       		.uleb128 0x3b
 3630 004d 0B       		.uleb128 0xb
 3631 004e 49       		.uleb128 0x49
 3632 004f 13       		.uleb128 0x13
 3633 0050 38       		.uleb128 0x38
 3634 0051 0A       		.uleb128 0xa
 3635 0052 00       		.byte	0
 3636 0053 00       		.byte	0
 3637 0054 07       		.uleb128 0x7
 3638 0055 0F       		.uleb128 0xf
 3639 0056 00       		.byte	0
 3640 0057 0B       		.uleb128 0xb
 3641 0058 0B       		.uleb128 0xb
 3642 0059 49       		.uleb128 0x49
 3643 005a 13       		.uleb128 0x13
 3644 005b 00       		.byte	0
 3645 005c 00       		.byte	0
 3646 005d 08       		.uleb128 0x8
 3647 005e 26       		.uleb128 0x26
 3648 005f 00       		.byte	0
 3649 0060 49       		.uleb128 0x49
 3650 0061 13       		.uleb128 0x13
 3651 0062 00       		.byte	0
 3652 0063 00       		.byte	0
 3653 0064 09       		.uleb128 0x9
 3654 0065 15       		.uleb128 0x15
 3655 0066 01       		.byte	0x1
 3656 0067 27       		.uleb128 0x27
 3657 0068 0C       		.uleb128 0xc
 3658 0069 49       		.uleb128 0x49
 3659 006a 13       		.uleb128 0x13
 3660 006b 01       		.uleb128 0x1
 3661 006c 13       		.uleb128 0x13
 3662 006d 00       		.byte	0
 3663 006e 00       		.byte	0
 3664 006f 0A       		.uleb128 0xa
 3665 0070 05       		.uleb128 0x5
 3666 0071 00       		.byte	0
 3667 0072 49       		.uleb128 0x49
 3668 0073 13       		.uleb128 0x13
 3669 0074 00       		.byte	0
 3670 0075 00       		.byte	0
 3671 0076 0B       		.uleb128 0xb
 3672 0077 15       		.uleb128 0x15
 3673 0078 01       		.byte	0x1
 3674 0079 27       		.uleb128 0x27
 3675 007a 0C       		.uleb128 0xc
 3676 007b 01       		.uleb128 0x1
 3677 007c 13       		.uleb128 0x13
 3678 007d 00       		.byte	0
 3679 007e 00       		.byte	0
 3680 007f 0C       		.uleb128 0xc
ARM GAS  C:\Users\Jakob\AppData\Local\Temp\cc5GwTcI.s 			page 114


 3681 0080 2E       		.uleb128 0x2e
 3682 0081 01       		.byte	0x1
 3683 0082 3F       		.uleb128 0x3f
 3684 0083 0C       		.uleb128 0xc
 3685 0084 03       		.uleb128 0x3
 3686 0085 0E       		.uleb128 0xe
 3687 0086 3A       		.uleb128 0x3a
 3688 0087 0B       		.uleb128 0xb
 3689 0088 3B       		.uleb128 0x3b
 3690 0089 0B       		.uleb128 0xb
 3691 008a 27       		.uleb128 0x27
 3692 008b 0C       		.uleb128 0xc
 3693 008c 11       		.uleb128 0x11
 3694 008d 01       		.uleb128 0x1
 3695 008e 12       		.uleb128 0x12
 3696 008f 01       		.uleb128 0x1
 3697 0090 40       		.uleb128 0x40
 3698 0091 06       		.uleb128 0x6
 3699 0092 9742     		.uleb128 0x2117
 3700 0094 0C       		.uleb128 0xc
 3701 0095 01       		.uleb128 0x1
 3702 0096 13       		.uleb128 0x13
 3703 0097 00       		.byte	0
 3704 0098 00       		.byte	0
 3705 0099 0D       		.uleb128 0xd
 3706 009a 05       		.uleb128 0x5
 3707 009b 00       		.byte	0
 3708 009c 03       		.uleb128 0x3
 3709 009d 0E       		.uleb128 0xe
 3710 009e 3A       		.uleb128 0x3a
 3711 009f 0B       		.uleb128 0xb
 3712 00a0 3B       		.uleb128 0x3b
 3713 00a1 0B       		.uleb128 0xb
 3714 00a2 49       		.uleb128 0x49
 3715 00a3 13       		.uleb128 0x13
 3716 00a4 02       		.uleb128 0x2
 3717 00a5 0A       		.uleb128 0xa
 3718 00a6 00       		.byte	0
 3719 00a7 00       		.byte	0
 3720 00a8 0E       		.uleb128 0xe
 3721 00a9 34       		.uleb128 0x34
 3722 00aa 00       		.byte	0
 3723 00ab 03       		.uleb128 0x3
 3724 00ac 0E       		.uleb128 0xe
 3725 00ad 3A       		.uleb128 0x3a
 3726 00ae 0B       		.uleb128 0xb
 3727 00af 3B       		.uleb128 0x3b
 3728 00b0 0B       		.uleb128 0xb
 3729 00b1 49       		.uleb128 0x49
 3730 00b2 13       		.uleb128 0x13
 3731 00b3 02       		.uleb128 0x2
 3732 00b4 0A       		.uleb128 0xa
 3733 00b5 00       		.byte	0
 3734 00b6 00       		.byte	0
 3735 00b7 0F       		.uleb128 0xf
 3736 00b8 2E       		.uleb128 0x2e
 3737 00b9 01       		.byte	0x1
ARM GAS  C:\Users\Jakob\AppData\Local\Temp\cc5GwTcI.s 			page 115


 3738 00ba 3F       		.uleb128 0x3f
 3739 00bb 0C       		.uleb128 0xc
 3740 00bc 03       		.uleb128 0x3
 3741 00bd 0E       		.uleb128 0xe
 3742 00be 3A       		.uleb128 0x3a
 3743 00bf 0B       		.uleb128 0xb
 3744 00c0 3B       		.uleb128 0x3b
 3745 00c1 0B       		.uleb128 0xb
 3746 00c2 27       		.uleb128 0x27
 3747 00c3 0C       		.uleb128 0xc
 3748 00c4 11       		.uleb128 0x11
 3749 00c5 01       		.uleb128 0x1
 3750 00c6 12       		.uleb128 0x12
 3751 00c7 01       		.uleb128 0x1
 3752 00c8 40       		.uleb128 0x40
 3753 00c9 06       		.uleb128 0x6
 3754 00ca 9642     		.uleb128 0x2116
 3755 00cc 0C       		.uleb128 0xc
 3756 00cd 01       		.uleb128 0x1
 3757 00ce 13       		.uleb128 0x13
 3758 00cf 00       		.byte	0
 3759 00d0 00       		.byte	0
 3760 00d1 10       		.uleb128 0x10
 3761 00d2 2E       		.uleb128 0x2e
 3762 00d3 01       		.byte	0x1
 3763 00d4 3F       		.uleb128 0x3f
 3764 00d5 0C       		.uleb128 0xc
 3765 00d6 03       		.uleb128 0x3
 3766 00d7 0E       		.uleb128 0xe
 3767 00d8 3A       		.uleb128 0x3a
 3768 00d9 0B       		.uleb128 0xb
 3769 00da 3B       		.uleb128 0x3b
 3770 00db 05       		.uleb128 0x5
 3771 00dc 27       		.uleb128 0x27
 3772 00dd 0C       		.uleb128 0xc
 3773 00de 11       		.uleb128 0x11
 3774 00df 01       		.uleb128 0x1
 3775 00e0 12       		.uleb128 0x12
 3776 00e1 01       		.uleb128 0x1
 3777 00e2 40       		.uleb128 0x40
 3778 00e3 06       		.uleb128 0x6
 3779 00e4 9642     		.uleb128 0x2116
 3780 00e6 0C       		.uleb128 0xc
 3781 00e7 01       		.uleb128 0x1
 3782 00e8 13       		.uleb128 0x13
 3783 00e9 00       		.byte	0
 3784 00ea 00       		.byte	0
 3785 00eb 11       		.uleb128 0x11
 3786 00ec 34       		.uleb128 0x34
 3787 00ed 00       		.byte	0
 3788 00ee 03       		.uleb128 0x3
 3789 00ef 08       		.uleb128 0x8
 3790 00f0 3A       		.uleb128 0x3a
 3791 00f1 0B       		.uleb128 0xb
 3792 00f2 3B       		.uleb128 0x3b
 3793 00f3 05       		.uleb128 0x5
 3794 00f4 49       		.uleb128 0x49
ARM GAS  C:\Users\Jakob\AppData\Local\Temp\cc5GwTcI.s 			page 116


 3795 00f5 13       		.uleb128 0x13
 3796 00f6 02       		.uleb128 0x2
 3797 00f7 0A       		.uleb128 0xa
 3798 00f8 00       		.byte	0
 3799 00f9 00       		.byte	0
 3800 00fa 12       		.uleb128 0x12
 3801 00fb 34       		.uleb128 0x34
 3802 00fc 00       		.byte	0
 3803 00fd 03       		.uleb128 0x3
 3804 00fe 0E       		.uleb128 0xe
 3805 00ff 3A       		.uleb128 0x3a
 3806 0100 0B       		.uleb128 0xb
 3807 0101 3B       		.uleb128 0x3b
 3808 0102 05       		.uleb128 0x5
 3809 0103 49       		.uleb128 0x49
 3810 0104 13       		.uleb128 0x13
 3811 0105 02       		.uleb128 0x2
 3812 0106 0A       		.uleb128 0xa
 3813 0107 00       		.byte	0
 3814 0108 00       		.byte	0
 3815 0109 13       		.uleb128 0x13
 3816 010a 05       		.uleb128 0x5
 3817 010b 00       		.byte	0
 3818 010c 03       		.uleb128 0x3
 3819 010d 0E       		.uleb128 0xe
 3820 010e 3A       		.uleb128 0x3a
 3821 010f 0B       		.uleb128 0xb
 3822 0110 3B       		.uleb128 0x3b
 3823 0111 05       		.uleb128 0x5
 3824 0112 49       		.uleb128 0x49
 3825 0113 13       		.uleb128 0x13
 3826 0114 02       		.uleb128 0x2
 3827 0115 0A       		.uleb128 0xa
 3828 0116 00       		.byte	0
 3829 0117 00       		.byte	0
 3830 0118 14       		.uleb128 0x14
 3831 0119 2E       		.uleb128 0x2e
 3832 011a 01       		.byte	0x1
 3833 011b 3F       		.uleb128 0x3f
 3834 011c 0C       		.uleb128 0xc
 3835 011d 03       		.uleb128 0x3
 3836 011e 0E       		.uleb128 0xe
 3837 011f 3A       		.uleb128 0x3a
 3838 0120 0B       		.uleb128 0xb
 3839 0121 3B       		.uleb128 0x3b
 3840 0122 05       		.uleb128 0x5
 3841 0123 27       		.uleb128 0x27
 3842 0124 0C       		.uleb128 0xc
 3843 0125 49       		.uleb128 0x49
 3844 0126 13       		.uleb128 0x13
 3845 0127 11       		.uleb128 0x11
 3846 0128 01       		.uleb128 0x1
 3847 0129 12       		.uleb128 0x12
 3848 012a 01       		.uleb128 0x1
 3849 012b 40       		.uleb128 0x40
 3850 012c 06       		.uleb128 0x6
 3851 012d 9742     		.uleb128 0x2117
ARM GAS  C:\Users\Jakob\AppData\Local\Temp\cc5GwTcI.s 			page 117


 3852 012f 0C       		.uleb128 0xc
 3853 0130 01       		.uleb128 0x1
 3854 0131 13       		.uleb128 0x13
 3855 0132 00       		.byte	0
 3856 0133 00       		.byte	0
 3857 0134 15       		.uleb128 0x15
 3858 0135 2E       		.uleb128 0x2e
 3859 0136 01       		.byte	0x1
 3860 0137 3F       		.uleb128 0x3f
 3861 0138 0C       		.uleb128 0xc
 3862 0139 03       		.uleb128 0x3
 3863 013a 0E       		.uleb128 0xe
 3864 013b 3A       		.uleb128 0x3a
 3865 013c 0B       		.uleb128 0xb
 3866 013d 3B       		.uleb128 0x3b
 3867 013e 05       		.uleb128 0x5
 3868 013f 27       		.uleb128 0x27
 3869 0140 0C       		.uleb128 0xc
 3870 0141 11       		.uleb128 0x11
 3871 0142 01       		.uleb128 0x1
 3872 0143 12       		.uleb128 0x12
 3873 0144 01       		.uleb128 0x1
 3874 0145 40       		.uleb128 0x40
 3875 0146 06       		.uleb128 0x6
 3876 0147 9742     		.uleb128 0x2117
 3877 0149 0C       		.uleb128 0xc
 3878 014a 01       		.uleb128 0x1
 3879 014b 13       		.uleb128 0x13
 3880 014c 00       		.byte	0
 3881 014d 00       		.byte	0
 3882 014e 16       		.uleb128 0x16
 3883 014f 2E       		.uleb128 0x2e
 3884 0150 01       		.byte	0x1
 3885 0151 3F       		.uleb128 0x3f
 3886 0152 0C       		.uleb128 0xc
 3887 0153 03       		.uleb128 0x3
 3888 0154 0E       		.uleb128 0xe
 3889 0155 3A       		.uleb128 0x3a
 3890 0156 0B       		.uleb128 0xb
 3891 0157 3B       		.uleb128 0x3b
 3892 0158 05       		.uleb128 0x5
 3893 0159 27       		.uleb128 0x27
 3894 015a 0C       		.uleb128 0xc
 3895 015b 49       		.uleb128 0x49
 3896 015c 13       		.uleb128 0x13
 3897 015d 11       		.uleb128 0x11
 3898 015e 01       		.uleb128 0x1
 3899 015f 12       		.uleb128 0x12
 3900 0160 01       		.uleb128 0x1
 3901 0161 40       		.uleb128 0x40
 3902 0162 06       		.uleb128 0x6
 3903 0163 9642     		.uleb128 0x2116
 3904 0165 0C       		.uleb128 0xc
 3905 0166 01       		.uleb128 0x1
 3906 0167 13       		.uleb128 0x13
 3907 0168 00       		.byte	0
 3908 0169 00       		.byte	0
ARM GAS  C:\Users\Jakob\AppData\Local\Temp\cc5GwTcI.s 			page 118


 3909 016a 17       		.uleb128 0x17
 3910 016b 05       		.uleb128 0x5
 3911 016c 00       		.byte	0
 3912 016d 03       		.uleb128 0x3
 3913 016e 08       		.uleb128 0x8
 3914 016f 3A       		.uleb128 0x3a
 3915 0170 0B       		.uleb128 0xb
 3916 0171 3B       		.uleb128 0x3b
 3917 0172 05       		.uleb128 0x5
 3918 0173 49       		.uleb128 0x49
 3919 0174 13       		.uleb128 0x13
 3920 0175 02       		.uleb128 0x2
 3921 0176 0A       		.uleb128 0xa
 3922 0177 00       		.byte	0
 3923 0178 00       		.byte	0
 3924 0179 18       		.uleb128 0x18
 3925 017a 01       		.uleb128 0x1
 3926 017b 01       		.byte	0x1
 3927 017c 49       		.uleb128 0x49
 3928 017d 13       		.uleb128 0x13
 3929 017e 01       		.uleb128 0x1
 3930 017f 13       		.uleb128 0x13
 3931 0180 00       		.byte	0
 3932 0181 00       		.byte	0
 3933 0182 19       		.uleb128 0x19
 3934 0183 21       		.uleb128 0x21
 3935 0184 00       		.byte	0
 3936 0185 49       		.uleb128 0x49
 3937 0186 13       		.uleb128 0x13
 3938 0187 2F       		.uleb128 0x2f
 3939 0188 0B       		.uleb128 0xb
 3940 0189 00       		.byte	0
 3941 018a 00       		.byte	0
 3942 018b 1A       		.uleb128 0x1a
 3943 018c 34       		.uleb128 0x34
 3944 018d 00       		.byte	0
 3945 018e 03       		.uleb128 0x3
 3946 018f 0E       		.uleb128 0xe
 3947 0190 3A       		.uleb128 0x3a
 3948 0191 0B       		.uleb128 0xb
 3949 0192 3B       		.uleb128 0x3b
 3950 0193 0B       		.uleb128 0xb
 3951 0194 49       		.uleb128 0x49
 3952 0195 13       		.uleb128 0x13
 3953 0196 3F       		.uleb128 0x3f
 3954 0197 0C       		.uleb128 0xc
 3955 0198 3C       		.uleb128 0x3c
 3956 0199 0C       		.uleb128 0xc
 3957 019a 00       		.byte	0
 3958 019b 00       		.byte	0
 3959 019c 1B       		.uleb128 0x1b
 3960 019d 34       		.uleb128 0x34
 3961 019e 00       		.byte	0
 3962 019f 03       		.uleb128 0x3
 3963 01a0 0E       		.uleb128 0xe
 3964 01a1 3A       		.uleb128 0x3a
 3965 01a2 0B       		.uleb128 0xb
ARM GAS  C:\Users\Jakob\AppData\Local\Temp\cc5GwTcI.s 			page 119


 3966 01a3 3B       		.uleb128 0x3b
 3967 01a4 0B       		.uleb128 0xb
 3968 01a5 49       		.uleb128 0x49
 3969 01a6 13       		.uleb128 0x13
 3970 01a7 3F       		.uleb128 0x3f
 3971 01a8 0C       		.uleb128 0xc
 3972 01a9 02       		.uleb128 0x2
 3973 01aa 0A       		.uleb128 0xa
 3974 01ab 00       		.byte	0
 3975 01ac 00       		.byte	0
 3976 01ad 00       		.byte	0
 3977              		.section	.debug_loc,"",%progbits
 3978              	.Ldebug_loc0:
 3979              	.LLST0:
 3980 0000 00000000 		.4byte	.LFB33
 3981 0004 02000000 		.4byte	.LCFI0
 3982 0008 0200     		.2byte	0x2
 3983 000a 7D       		.byte	0x7d
 3984 000b 00       		.sleb128 0
 3985 000c 02000000 		.4byte	.LCFI0
 3986 0010 04000000 		.4byte	.LCFI1
 3987 0014 0200     		.2byte	0x2
 3988 0016 7D       		.byte	0x7d
 3989 0017 08       		.sleb128 8
 3990 0018 04000000 		.4byte	.LCFI1
 3991 001c 06000000 		.4byte	.LCFI2
 3992 0020 0200     		.2byte	0x2
 3993 0022 7D       		.byte	0x7d
 3994 0023 18       		.sleb128 24
 3995 0024 06000000 		.4byte	.LCFI2
 3996 0028 84000000 		.4byte	.LFE33
 3997 002c 0200     		.2byte	0x2
 3998 002e 77       		.byte	0x77
 3999 002f 18       		.sleb128 24
 4000 0030 00000000 		.4byte	0
 4001 0034 00000000 		.4byte	0
 4002              	.LLST1:
 4003 0038 00000000 		.4byte	.LFB34
 4004 003c 02000000 		.4byte	.LCFI3
 4005 0040 0200     		.2byte	0x2
 4006 0042 7D       		.byte	0x7d
 4007 0043 00       		.sleb128 0
 4008 0044 02000000 		.4byte	.LCFI3
 4009 0048 04000000 		.4byte	.LCFI4
 4010 004c 0200     		.2byte	0x2
 4011 004e 7D       		.byte	0x7d
 4012 004f 08       		.sleb128 8
 4013 0050 04000000 		.4byte	.LCFI4
 4014 0054 06000000 		.4byte	.LCFI5
 4015 0058 0200     		.2byte	0x2
 4016 005a 7D       		.byte	0x7d
 4017 005b 10       		.sleb128 16
 4018 005c 06000000 		.4byte	.LCFI5
 4019 0060 2A000000 		.4byte	.LFE34
 4020 0064 0200     		.2byte	0x2
 4021 0066 77       		.byte	0x77
 4022 0067 10       		.sleb128 16
ARM GAS  C:\Users\Jakob\AppData\Local\Temp\cc5GwTcI.s 			page 120


 4023 0068 00000000 		.4byte	0
 4024 006c 00000000 		.4byte	0
 4025              	.LLST2:
 4026 0070 00000000 		.4byte	.LFB35
 4027 0074 02000000 		.4byte	.LCFI6
 4028 0078 0200     		.2byte	0x2
 4029 007a 7D       		.byte	0x7d
 4030 007b 00       		.sleb128 0
 4031 007c 02000000 		.4byte	.LCFI6
 4032 0080 04000000 		.4byte	.LCFI7
 4033 0084 0200     		.2byte	0x2
 4034 0086 7D       		.byte	0x7d
 4035 0087 08       		.sleb128 8
 4036 0088 04000000 		.4byte	.LCFI7
 4037 008c 06000000 		.4byte	.LCFI8
 4038 0090 0200     		.2byte	0x2
 4039 0092 7D       		.byte	0x7d
 4040 0093 10       		.sleb128 16
 4041 0094 06000000 		.4byte	.LCFI8
 4042 0098 26000000 		.4byte	.LFE35
 4043 009c 0200     		.2byte	0x2
 4044 009e 77       		.byte	0x77
 4045 009f 10       		.sleb128 16
 4046 00a0 00000000 		.4byte	0
 4047 00a4 00000000 		.4byte	0
 4048              	.LLST3:
 4049 00a8 00000000 		.4byte	.LFB36
 4050 00ac 02000000 		.4byte	.LCFI9
 4051 00b0 0200     		.2byte	0x2
 4052 00b2 7D       		.byte	0x7d
 4053 00b3 00       		.sleb128 0
 4054 00b4 02000000 		.4byte	.LCFI9
 4055 00b8 04000000 		.4byte	.LCFI10
 4056 00bc 0200     		.2byte	0x2
 4057 00be 7D       		.byte	0x7d
 4058 00bf 08       		.sleb128 8
 4059 00c0 04000000 		.4byte	.LCFI10
 4060 00c4 06000000 		.4byte	.LCFI11
 4061 00c8 0200     		.2byte	0x2
 4062 00ca 7D       		.byte	0x7d
 4063 00cb 10       		.sleb128 16
 4064 00cc 06000000 		.4byte	.LCFI11
 4065 00d0 50000000 		.4byte	.LFE36
 4066 00d4 0200     		.2byte	0x2
 4067 00d6 77       		.byte	0x77
 4068 00d7 10       		.sleb128 16
 4069 00d8 00000000 		.4byte	0
 4070 00dc 00000000 		.4byte	0
 4071              	.LLST4:
 4072 00e0 00000000 		.4byte	.LFB37
 4073 00e4 02000000 		.4byte	.LCFI12
 4074 00e8 0200     		.2byte	0x2
 4075 00ea 7D       		.byte	0x7d
 4076 00eb 00       		.sleb128 0
 4077 00ec 02000000 		.4byte	.LCFI12
 4078 00f0 04000000 		.4byte	.LCFI13
 4079 00f4 0200     		.2byte	0x2
ARM GAS  C:\Users\Jakob\AppData\Local\Temp\cc5GwTcI.s 			page 121


 4080 00f6 7D       		.byte	0x7d
 4081 00f7 0C       		.sleb128 12
 4082 00f8 04000000 		.4byte	.LCFI13
 4083 00fc 06000000 		.4byte	.LCFI14
 4084 0100 0200     		.2byte	0x2
 4085 0102 7D       		.byte	0x7d
 4086 0103 28       		.sleb128 40
 4087 0104 06000000 		.4byte	.LCFI14
 4088 0108 10020000 		.4byte	.LFE37
 4089 010c 0200     		.2byte	0x2
 4090 010e 77       		.byte	0x77
 4091 010f 28       		.sleb128 40
 4092 0110 00000000 		.4byte	0
 4093 0114 00000000 		.4byte	0
 4094              	.LLST5:
 4095 0118 00000000 		.4byte	.LFB38
 4096 011c 02000000 		.4byte	.LCFI15
 4097 0120 0200     		.2byte	0x2
 4098 0122 7D       		.byte	0x7d
 4099 0123 00       		.sleb128 0
 4100 0124 02000000 		.4byte	.LCFI15
 4101 0128 04000000 		.4byte	.LCFI16
 4102 012c 0200     		.2byte	0x2
 4103 012e 7D       		.byte	0x7d
 4104 012f 08       		.sleb128 8
 4105 0130 04000000 		.4byte	.LCFI16
 4106 0134 06000000 		.4byte	.LCFI17
 4107 0138 0200     		.2byte	0x2
 4108 013a 7D       		.byte	0x7d
 4109 013b 10       		.sleb128 16
 4110 013c 06000000 		.4byte	.LCFI17
 4111 0140 1E000000 		.4byte	.LFE38
 4112 0144 0200     		.2byte	0x2
 4113 0146 77       		.byte	0x77
 4114 0147 10       		.sleb128 16
 4115 0148 00000000 		.4byte	0
 4116 014c 00000000 		.4byte	0
 4117              	.LLST6:
 4118 0150 00000000 		.4byte	.LFB39
 4119 0154 02000000 		.4byte	.LCFI18
 4120 0158 0200     		.2byte	0x2
 4121 015a 7D       		.byte	0x7d
 4122 015b 00       		.sleb128 0
 4123 015c 02000000 		.4byte	.LCFI18
 4124 0160 04000000 		.4byte	.LCFI19
 4125 0164 0200     		.2byte	0x2
 4126 0166 7D       		.byte	0x7d
 4127 0167 08       		.sleb128 8
 4128 0168 04000000 		.4byte	.LCFI19
 4129 016c 06000000 		.4byte	.LCFI20
 4130 0170 0200     		.2byte	0x2
 4131 0172 7D       		.byte	0x7d
 4132 0173 10       		.sleb128 16
 4133 0174 06000000 		.4byte	.LCFI20
 4134 0178 40000000 		.4byte	.LFE39
 4135 017c 0200     		.2byte	0x2
 4136 017e 77       		.byte	0x77
ARM GAS  C:\Users\Jakob\AppData\Local\Temp\cc5GwTcI.s 			page 122


 4137 017f 10       		.sleb128 16
 4138 0180 00000000 		.4byte	0
 4139 0184 00000000 		.4byte	0
 4140              	.LLST7:
 4141 0188 00000000 		.4byte	.LFB40
 4142 018c 02000000 		.4byte	.LCFI21
 4143 0190 0200     		.2byte	0x2
 4144 0192 7D       		.byte	0x7d
 4145 0193 00       		.sleb128 0
 4146 0194 02000000 		.4byte	.LCFI21
 4147 0198 04000000 		.4byte	.LCFI22
 4148 019c 0200     		.2byte	0x2
 4149 019e 7D       		.byte	0x7d
 4150 019f 08       		.sleb128 8
 4151 01a0 04000000 		.4byte	.LCFI22
 4152 01a4 06000000 		.4byte	.LCFI23
 4153 01a8 0200     		.2byte	0x2
 4154 01aa 7D       		.byte	0x7d
 4155 01ab 10       		.sleb128 16
 4156 01ac 06000000 		.4byte	.LCFI23
 4157 01b0 1C000000 		.4byte	.LFE40
 4158 01b4 0200     		.2byte	0x2
 4159 01b6 77       		.byte	0x77
 4160 01b7 10       		.sleb128 16
 4161 01b8 00000000 		.4byte	0
 4162 01bc 00000000 		.4byte	0
 4163              	.LLST8:
 4164 01c0 00000000 		.4byte	.LFB41
 4165 01c4 02000000 		.4byte	.LCFI24
 4166 01c8 0200     		.2byte	0x2
 4167 01ca 7D       		.byte	0x7d
 4168 01cb 00       		.sleb128 0
 4169 01cc 02000000 		.4byte	.LCFI24
 4170 01d0 04000000 		.4byte	.LCFI25
 4171 01d4 0200     		.2byte	0x2
 4172 01d6 7D       		.byte	0x7d
 4173 01d7 08       		.sleb128 8
 4174 01d8 04000000 		.4byte	.LCFI25
 4175 01dc 06000000 		.4byte	.LCFI26
 4176 01e0 0200     		.2byte	0x2
 4177 01e2 7D       		.byte	0x7d
 4178 01e3 10       		.sleb128 16
 4179 01e4 06000000 		.4byte	.LCFI26
 4180 01e8 24000000 		.4byte	.LFE41
 4181 01ec 0200     		.2byte	0x2
 4182 01ee 77       		.byte	0x77
 4183 01ef 10       		.sleb128 16
 4184 01f0 00000000 		.4byte	0
 4185 01f4 00000000 		.4byte	0
 4186              	.LLST9:
 4187 01f8 00000000 		.4byte	.LFB42
 4188 01fc 02000000 		.4byte	.LCFI27
 4189 0200 0200     		.2byte	0x2
 4190 0202 7D       		.byte	0x7d
 4191 0203 00       		.sleb128 0
 4192 0204 02000000 		.4byte	.LCFI27
 4193 0208 04000000 		.4byte	.LCFI28
ARM GAS  C:\Users\Jakob\AppData\Local\Temp\cc5GwTcI.s 			page 123


 4194 020c 0200     		.2byte	0x2
 4195 020e 7D       		.byte	0x7d
 4196 020f 08       		.sleb128 8
 4197 0210 04000000 		.4byte	.LCFI28
 4198 0214 06000000 		.4byte	.LCFI29
 4199 0218 0200     		.2byte	0x2
 4200 021a 7D       		.byte	0x7d
 4201 021b 10       		.sleb128 16
 4202 021c 06000000 		.4byte	.LCFI29
 4203 0220 1C000000 		.4byte	.LFE42
 4204 0224 0200     		.2byte	0x2
 4205 0226 77       		.byte	0x77
 4206 0227 10       		.sleb128 16
 4207 0228 00000000 		.4byte	0
 4208 022c 00000000 		.4byte	0
 4209              	.LLST10:
 4210 0230 00000000 		.4byte	.LFB43
 4211 0234 02000000 		.4byte	.LCFI30
 4212 0238 0200     		.2byte	0x2
 4213 023a 7D       		.byte	0x7d
 4214 023b 00       		.sleb128 0
 4215 023c 02000000 		.4byte	.LCFI30
 4216 0240 04000000 		.4byte	.LCFI31
 4217 0244 0200     		.2byte	0x2
 4218 0246 7D       		.byte	0x7d
 4219 0247 08       		.sleb128 8
 4220 0248 04000000 		.4byte	.LCFI31
 4221 024c 06000000 		.4byte	.LCFI32
 4222 0250 0200     		.2byte	0x2
 4223 0252 7D       		.byte	0x7d
 4224 0253 10       		.sleb128 16
 4225 0254 06000000 		.4byte	.LCFI32
 4226 0258 24000000 		.4byte	.LFE43
 4227 025c 0200     		.2byte	0x2
 4228 025e 77       		.byte	0x77
 4229 025f 10       		.sleb128 16
 4230 0260 00000000 		.4byte	0
 4231 0264 00000000 		.4byte	0
 4232              	.LLST11:
 4233 0268 00000000 		.4byte	.LFB44
 4234 026c 02000000 		.4byte	.LCFI33
 4235 0270 0200     		.2byte	0x2
 4236 0272 7D       		.byte	0x7d
 4237 0273 00       		.sleb128 0
 4238 0274 02000000 		.4byte	.LCFI33
 4239 0278 04000000 		.4byte	.LCFI34
 4240 027c 0200     		.2byte	0x2
 4241 027e 7D       		.byte	0x7d
 4242 027f 08       		.sleb128 8
 4243 0280 04000000 		.4byte	.LCFI34
 4244 0284 06000000 		.4byte	.LCFI35
 4245 0288 0200     		.2byte	0x2
 4246 028a 7D       		.byte	0x7d
 4247 028b 10       		.sleb128 16
 4248 028c 06000000 		.4byte	.LCFI35
 4249 0290 1C000000 		.4byte	.LFE44
 4250 0294 0200     		.2byte	0x2
ARM GAS  C:\Users\Jakob\AppData\Local\Temp\cc5GwTcI.s 			page 124


 4251 0296 77       		.byte	0x77
 4252 0297 10       		.sleb128 16
 4253 0298 00000000 		.4byte	0
 4254 029c 00000000 		.4byte	0
 4255              	.LLST12:
 4256 02a0 00000000 		.4byte	.LFB45
 4257 02a4 02000000 		.4byte	.LCFI36
 4258 02a8 0200     		.2byte	0x2
 4259 02aa 7D       		.byte	0x7d
 4260 02ab 00       		.sleb128 0
 4261 02ac 02000000 		.4byte	.LCFI36
 4262 02b0 04000000 		.4byte	.LCFI37
 4263 02b4 0200     		.2byte	0x2
 4264 02b6 7D       		.byte	0x7d
 4265 02b7 08       		.sleb128 8
 4266 02b8 04000000 		.4byte	.LCFI37
 4267 02bc 06000000 		.4byte	.LCFI38
 4268 02c0 0200     		.2byte	0x2
 4269 02c2 7D       		.byte	0x7d
 4270 02c3 10       		.sleb128 16
 4271 02c4 06000000 		.4byte	.LCFI38
 4272 02c8 1C000000 		.4byte	.LFE45
 4273 02cc 0200     		.2byte	0x2
 4274 02ce 77       		.byte	0x77
 4275 02cf 10       		.sleb128 16
 4276 02d0 00000000 		.4byte	0
 4277 02d4 00000000 		.4byte	0
 4278              	.LLST13:
 4279 02d8 00000000 		.4byte	.LFB46
 4280 02dc 02000000 		.4byte	.LCFI39
 4281 02e0 0200     		.2byte	0x2
 4282 02e2 7D       		.byte	0x7d
 4283 02e3 00       		.sleb128 0
 4284 02e4 02000000 		.4byte	.LCFI39
 4285 02e8 04000000 		.4byte	.LCFI40
 4286 02ec 0200     		.2byte	0x2
 4287 02ee 7D       		.byte	0x7d
 4288 02ef 08       		.sleb128 8
 4289 02f0 04000000 		.4byte	.LCFI40
 4290 02f4 06000000 		.4byte	.LCFI41
 4291 02f8 0200     		.2byte	0x2
 4292 02fa 7D       		.byte	0x7d
 4293 02fb 10       		.sleb128 16
 4294 02fc 06000000 		.4byte	.LCFI41
 4295 0300 1C000000 		.4byte	.LFE46
 4296 0304 0200     		.2byte	0x2
 4297 0306 77       		.byte	0x77
 4298 0307 10       		.sleb128 16
 4299 0308 00000000 		.4byte	0
 4300 030c 00000000 		.4byte	0
 4301              	.LLST14:
 4302 0310 00000000 		.4byte	.LFB47
 4303 0314 02000000 		.4byte	.LCFI42
 4304 0318 0200     		.2byte	0x2
 4305 031a 7D       		.byte	0x7d
 4306 031b 00       		.sleb128 0
 4307 031c 02000000 		.4byte	.LCFI42
ARM GAS  C:\Users\Jakob\AppData\Local\Temp\cc5GwTcI.s 			page 125


 4308 0320 04000000 		.4byte	.LCFI43
 4309 0324 0200     		.2byte	0x2
 4310 0326 7D       		.byte	0x7d
 4311 0327 08       		.sleb128 8
 4312 0328 04000000 		.4byte	.LCFI43
 4313 032c 06000000 		.4byte	.LCFI44
 4314 0330 0200     		.2byte	0x2
 4315 0332 7D       		.byte	0x7d
 4316 0333 10       		.sleb128 16
 4317 0334 06000000 		.4byte	.LCFI44
 4318 0338 1C000000 		.4byte	.LFE47
 4319 033c 0200     		.2byte	0x2
 4320 033e 77       		.byte	0x77
 4321 033f 10       		.sleb128 16
 4322 0340 00000000 		.4byte	0
 4323 0344 00000000 		.4byte	0
 4324              	.LLST15:
 4325 0348 00000000 		.4byte	.LFB48
 4326 034c 02000000 		.4byte	.LCFI45
 4327 0350 0200     		.2byte	0x2
 4328 0352 7D       		.byte	0x7d
 4329 0353 00       		.sleb128 0
 4330 0354 02000000 		.4byte	.LCFI45
 4331 0358 04000000 		.4byte	.LCFI46
 4332 035c 0200     		.2byte	0x2
 4333 035e 7D       		.byte	0x7d
 4334 035f 08       		.sleb128 8
 4335 0360 04000000 		.4byte	.LCFI46
 4336 0364 06000000 		.4byte	.LCFI47
 4337 0368 0200     		.2byte	0x2
 4338 036a 7D       		.byte	0x7d
 4339 036b 10       		.sleb128 16
 4340 036c 06000000 		.4byte	.LCFI47
 4341 0370 24000000 		.4byte	.LFE48
 4342 0374 0200     		.2byte	0x2
 4343 0376 77       		.byte	0x77
 4344 0377 10       		.sleb128 16
 4345 0378 00000000 		.4byte	0
 4346 037c 00000000 		.4byte	0
 4347              	.LLST16:
 4348 0380 00000000 		.4byte	.LFB49
 4349 0384 02000000 		.4byte	.LCFI48
 4350 0388 0200     		.2byte	0x2
 4351 038a 7D       		.byte	0x7d
 4352 038b 00       		.sleb128 0
 4353 038c 02000000 		.4byte	.LCFI48
 4354 0390 04000000 		.4byte	.LCFI49
 4355 0394 0200     		.2byte	0x2
 4356 0396 7D       		.byte	0x7d
 4357 0397 08       		.sleb128 8
 4358 0398 04000000 		.4byte	.LCFI49
 4359 039c 06000000 		.4byte	.LCFI50
 4360 03a0 0200     		.2byte	0x2
 4361 03a2 7D       		.byte	0x7d
 4362 03a3 10       		.sleb128 16
 4363 03a4 06000000 		.4byte	.LCFI50
 4364 03a8 24000000 		.4byte	.LFE49
ARM GAS  C:\Users\Jakob\AppData\Local\Temp\cc5GwTcI.s 			page 126


 4365 03ac 0200     		.2byte	0x2
 4366 03ae 77       		.byte	0x77
 4367 03af 10       		.sleb128 16
 4368 03b0 00000000 		.4byte	0
 4369 03b4 00000000 		.4byte	0
 4370              	.LLST17:
 4371 03b8 00000000 		.4byte	.LFB50
 4372 03bc 02000000 		.4byte	.LCFI51
 4373 03c0 0200     		.2byte	0x2
 4374 03c2 7D       		.byte	0x7d
 4375 03c3 00       		.sleb128 0
 4376 03c4 02000000 		.4byte	.LCFI51
 4377 03c8 04000000 		.4byte	.LCFI52
 4378 03cc 0200     		.2byte	0x2
 4379 03ce 7D       		.byte	0x7d
 4380 03cf 08       		.sleb128 8
 4381 03d0 04000000 		.4byte	.LCFI52
 4382 03d4 06000000 		.4byte	.LCFI53
 4383 03d8 0200     		.2byte	0x2
 4384 03da 7D       		.byte	0x7d
 4385 03db 10       		.sleb128 16
 4386 03dc 06000000 		.4byte	.LCFI53
 4387 03e0 24000000 		.4byte	.LFE50
 4388 03e4 0200     		.2byte	0x2
 4389 03e6 77       		.byte	0x77
 4390 03e7 10       		.sleb128 16
 4391 03e8 00000000 		.4byte	0
 4392 03ec 00000000 		.4byte	0
 4393              	.LLST18:
 4394 03f0 00000000 		.4byte	.LFB51
 4395 03f4 02000000 		.4byte	.LCFI54
 4396 03f8 0200     		.2byte	0x2
 4397 03fa 7D       		.byte	0x7d
 4398 03fb 00       		.sleb128 0
 4399 03fc 02000000 		.4byte	.LCFI54
 4400 0400 04000000 		.4byte	.LCFI55
 4401 0404 0200     		.2byte	0x2
 4402 0406 7D       		.byte	0x7d
 4403 0407 08       		.sleb128 8
 4404 0408 04000000 		.4byte	.LCFI55
 4405 040c 06000000 		.4byte	.LCFI56
 4406 0410 0200     		.2byte	0x2
 4407 0412 7D       		.byte	0x7d
 4408 0413 10       		.sleb128 16
 4409 0414 06000000 		.4byte	.LCFI56
 4410 0418 24000000 		.4byte	.LFE51
 4411 041c 0200     		.2byte	0x2
 4412 041e 77       		.byte	0x77
 4413 041f 10       		.sleb128 16
 4414 0420 00000000 		.4byte	0
 4415 0424 00000000 		.4byte	0
 4416              	.LLST19:
 4417 0428 00000000 		.4byte	.LFB52
 4418 042c 02000000 		.4byte	.LCFI57
 4419 0430 0200     		.2byte	0x2
 4420 0432 7D       		.byte	0x7d
 4421 0433 00       		.sleb128 0
ARM GAS  C:\Users\Jakob\AppData\Local\Temp\cc5GwTcI.s 			page 127


 4422 0434 02000000 		.4byte	.LCFI57
 4423 0438 04000000 		.4byte	.LCFI58
 4424 043c 0200     		.2byte	0x2
 4425 043e 7D       		.byte	0x7d
 4426 043f 08       		.sleb128 8
 4427 0440 04000000 		.4byte	.LCFI58
 4428 0444 06000000 		.4byte	.LCFI59
 4429 0448 0200     		.2byte	0x2
 4430 044a 7D       		.byte	0x7d
 4431 044b 10       		.sleb128 16
 4432 044c 06000000 		.4byte	.LCFI59
 4433 0450 24000000 		.4byte	.LFE52
 4434 0454 0200     		.2byte	0x2
 4435 0456 77       		.byte	0x77
 4436 0457 10       		.sleb128 16
 4437 0458 00000000 		.4byte	0
 4438 045c 00000000 		.4byte	0
 4439              	.LLST20:
 4440 0460 00000000 		.4byte	.LFB53
 4441 0464 02000000 		.4byte	.LCFI60
 4442 0468 0200     		.2byte	0x2
 4443 046a 7D       		.byte	0x7d
 4444 046b 00       		.sleb128 0
 4445 046c 02000000 		.4byte	.LCFI60
 4446 0470 04000000 		.4byte	.LCFI61
 4447 0474 0200     		.2byte	0x2
 4448 0476 7D       		.byte	0x7d
 4449 0477 08       		.sleb128 8
 4450 0478 04000000 		.4byte	.LCFI61
 4451 047c 06000000 		.4byte	.LCFI62
 4452 0480 0200     		.2byte	0x2
 4453 0482 7D       		.byte	0x7d
 4454 0483 10       		.sleb128 16
 4455 0484 06000000 		.4byte	.LCFI62
 4456 0488 24000000 		.4byte	.LFE53
 4457 048c 0200     		.2byte	0x2
 4458 048e 77       		.byte	0x77
 4459 048f 10       		.sleb128 16
 4460 0490 00000000 		.4byte	0
 4461 0494 00000000 		.4byte	0
 4462              	.LLST21:
 4463 0498 00000000 		.4byte	.LFB54
 4464 049c 02000000 		.4byte	.LCFI63
 4465 04a0 0200     		.2byte	0x2
 4466 04a2 7D       		.byte	0x7d
 4467 04a3 00       		.sleb128 0
 4468 04a4 02000000 		.4byte	.LCFI63
 4469 04a8 04000000 		.4byte	.LCFI64
 4470 04ac 0200     		.2byte	0x2
 4471 04ae 7D       		.byte	0x7d
 4472 04af 08       		.sleb128 8
 4473 04b0 04000000 		.4byte	.LCFI64
 4474 04b4 06000000 		.4byte	.LCFI65
 4475 04b8 0200     		.2byte	0x2
 4476 04ba 7D       		.byte	0x7d
 4477 04bb 18       		.sleb128 24
 4478 04bc 06000000 		.4byte	.LCFI65
ARM GAS  C:\Users\Jakob\AppData\Local\Temp\cc5GwTcI.s 			page 128


 4479 04c0 38010000 		.4byte	.LFE54
 4480 04c4 0200     		.2byte	0x2
 4481 04c6 77       		.byte	0x77
 4482 04c7 18       		.sleb128 24
 4483 04c8 00000000 		.4byte	0
 4484 04cc 00000000 		.4byte	0
 4485              	.LLST22:
 4486 04d0 00000000 		.4byte	.LFB55
 4487 04d4 02000000 		.4byte	.LCFI66
 4488 04d8 0200     		.2byte	0x2
 4489 04da 7D       		.byte	0x7d
 4490 04db 00       		.sleb128 0
 4491 04dc 02000000 		.4byte	.LCFI66
 4492 04e0 04000000 		.4byte	.LCFI67
 4493 04e4 0200     		.2byte	0x2
 4494 04e6 7D       		.byte	0x7d
 4495 04e7 08       		.sleb128 8
 4496 04e8 04000000 		.4byte	.LCFI67
 4497 04ec 06000000 		.4byte	.LCFI68
 4498 04f0 0200     		.2byte	0x2
 4499 04f2 7D       		.byte	0x7d
 4500 04f3 20       		.sleb128 32
 4501 04f4 06000000 		.4byte	.LCFI68
 4502 04f8 58000000 		.4byte	.LFE55
 4503 04fc 0200     		.2byte	0x2
 4504 04fe 77       		.byte	0x77
 4505 04ff 20       		.sleb128 32
 4506 0500 00000000 		.4byte	0
 4507 0504 00000000 		.4byte	0
 4508              	.LLST23:
 4509 0508 00000000 		.4byte	.LFB56
 4510 050c 02000000 		.4byte	.LCFI69
 4511 0510 0200     		.2byte	0x2
 4512 0512 7D       		.byte	0x7d
 4513 0513 00       		.sleb128 0
 4514 0514 02000000 		.4byte	.LCFI69
 4515 0518 04000000 		.4byte	.LCFI70
 4516 051c 0200     		.2byte	0x2
 4517 051e 7D       		.byte	0x7d
 4518 051f 08       		.sleb128 8
 4519 0520 04000000 		.4byte	.LCFI70
 4520 0524 06000000 		.4byte	.LCFI71
 4521 0528 0200     		.2byte	0x2
 4522 052a 7D       		.byte	0x7d
 4523 052b 10       		.sleb128 16
 4524 052c 06000000 		.4byte	.LCFI71
 4525 0530 38000000 		.4byte	.LFE56
 4526 0534 0200     		.2byte	0x2
 4527 0536 77       		.byte	0x77
 4528 0537 10       		.sleb128 16
 4529 0538 00000000 		.4byte	0
 4530 053c 00000000 		.4byte	0
 4531              	.LLST24:
 4532 0540 00000000 		.4byte	.LFB57
 4533 0544 02000000 		.4byte	.LCFI72
 4534 0548 0200     		.2byte	0x2
 4535 054a 7D       		.byte	0x7d
ARM GAS  C:\Users\Jakob\AppData\Local\Temp\cc5GwTcI.s 			page 129


 4536 054b 00       		.sleb128 0
 4537 054c 02000000 		.4byte	.LCFI72
 4538 0550 04000000 		.4byte	.LCFI73
 4539 0554 0200     		.2byte	0x2
 4540 0556 7D       		.byte	0x7d
 4541 0557 08       		.sleb128 8
 4542 0558 04000000 		.4byte	.LCFI73
 4543 055c 06000000 		.4byte	.LCFI74
 4544 0560 0200     		.2byte	0x2
 4545 0562 7D       		.byte	0x7d
 4546 0563 18       		.sleb128 24
 4547 0564 06000000 		.4byte	.LCFI74
 4548 0568 70000000 		.4byte	.LFE57
 4549 056c 0200     		.2byte	0x2
 4550 056e 77       		.byte	0x77
 4551 056f 18       		.sleb128 24
 4552 0570 00000000 		.4byte	0
 4553 0574 00000000 		.4byte	0
 4554              	.LLST25:
 4555 0578 00000000 		.4byte	.LFB58
 4556 057c 02000000 		.4byte	.LCFI75
 4557 0580 0200     		.2byte	0x2
 4558 0582 7D       		.byte	0x7d
 4559 0583 00       		.sleb128 0
 4560 0584 02000000 		.4byte	.LCFI75
 4561 0588 04000000 		.4byte	.LCFI76
 4562 058c 0200     		.2byte	0x2
 4563 058e 7D       		.byte	0x7d
 4564 058f 08       		.sleb128 8
 4565 0590 04000000 		.4byte	.LCFI76
 4566 0594 06000000 		.4byte	.LCFI77
 4567 0598 0200     		.2byte	0x2
 4568 059a 7D       		.byte	0x7d
 4569 059b 18       		.sleb128 24
 4570 059c 06000000 		.4byte	.LCFI77
 4571 05a0 70000000 		.4byte	.LFE58
 4572 05a4 0200     		.2byte	0x2
 4573 05a6 77       		.byte	0x77
 4574 05a7 18       		.sleb128 24
 4575 05a8 00000000 		.4byte	0
 4576 05ac 00000000 		.4byte	0
 4577              	.LLST26:
 4578 05b0 00000000 		.4byte	.LFB59
 4579 05b4 02000000 		.4byte	.LCFI78
 4580 05b8 0200     		.2byte	0x2
 4581 05ba 7D       		.byte	0x7d
 4582 05bb 00       		.sleb128 0
 4583 05bc 02000000 		.4byte	.LCFI78
 4584 05c0 04000000 		.4byte	.LCFI79
 4585 05c4 0200     		.2byte	0x2
 4586 05c6 7D       		.byte	0x7d
 4587 05c7 08       		.sleb128 8
 4588 05c8 04000000 		.4byte	.LCFI79
 4589 05cc 06000000 		.4byte	.LCFI80
 4590 05d0 0200     		.2byte	0x2
 4591 05d2 7D       		.byte	0x7d
 4592 05d3 18       		.sleb128 24
ARM GAS  C:\Users\Jakob\AppData\Local\Temp\cc5GwTcI.s 			page 130


 4593 05d4 06000000 		.4byte	.LCFI80
 4594 05d8 6A000000 		.4byte	.LFE59
 4595 05dc 0200     		.2byte	0x2
 4596 05de 77       		.byte	0x77
 4597 05df 18       		.sleb128 24
 4598 05e0 00000000 		.4byte	0
 4599 05e4 00000000 		.4byte	0
 4600              	.LLST27:
 4601 05e8 00000000 		.4byte	.LFB60
 4602 05ec 02000000 		.4byte	.LCFI81
 4603 05f0 0200     		.2byte	0x2
 4604 05f2 7D       		.byte	0x7d
 4605 05f3 00       		.sleb128 0
 4606 05f4 02000000 		.4byte	.LCFI81
 4607 05f8 04000000 		.4byte	.LCFI82
 4608 05fc 0200     		.2byte	0x2
 4609 05fe 7D       		.byte	0x7d
 4610 05ff 08       		.sleb128 8
 4611 0600 04000000 		.4byte	.LCFI82
 4612 0604 06000000 		.4byte	.LCFI83
 4613 0608 0200     		.2byte	0x2
 4614 060a 7D       		.byte	0x7d
 4615 060b 18       		.sleb128 24
 4616 060c 06000000 		.4byte	.LCFI83
 4617 0610 3C000000 		.4byte	.LFE60
 4618 0614 0200     		.2byte	0x2
 4619 0616 77       		.byte	0x77
 4620 0617 18       		.sleb128 24
 4621 0618 00000000 		.4byte	0
 4622 061c 00000000 		.4byte	0
 4623              	.LLST28:
 4624 0620 00000000 		.4byte	.LFB61
 4625 0624 02000000 		.4byte	.LCFI84
 4626 0628 0200     		.2byte	0x2
 4627 062a 7D       		.byte	0x7d
 4628 062b 00       		.sleb128 0
 4629 062c 02000000 		.4byte	.LCFI84
 4630 0630 04000000 		.4byte	.LCFI85
 4631 0634 0200     		.2byte	0x2
 4632 0636 7D       		.byte	0x7d
 4633 0637 08       		.sleb128 8
 4634 0638 04000000 		.4byte	.LCFI85
 4635 063c 06000000 		.4byte	.LCFI86
 4636 0640 0200     		.2byte	0x2
 4637 0642 7D       		.byte	0x7d
 4638 0643 10       		.sleb128 16
 4639 0644 06000000 		.4byte	.LCFI86
 4640 0648 1C000000 		.4byte	.LFE61
 4641 064c 0200     		.2byte	0x2
 4642 064e 77       		.byte	0x77
 4643 064f 10       		.sleb128 16
 4644 0650 00000000 		.4byte	0
 4645 0654 00000000 		.4byte	0
 4646              	.LLST29:
 4647 0658 00000000 		.4byte	.LFB62
 4648 065c 02000000 		.4byte	.LCFI87
 4649 0660 0200     		.2byte	0x2
ARM GAS  C:\Users\Jakob\AppData\Local\Temp\cc5GwTcI.s 			page 131


 4650 0662 7D       		.byte	0x7d
 4651 0663 00       		.sleb128 0
 4652 0664 02000000 		.4byte	.LCFI87
 4653 0668 04000000 		.4byte	.LCFI88
 4654 066c 0200     		.2byte	0x2
 4655 066e 7D       		.byte	0x7d
 4656 066f 08       		.sleb128 8
 4657 0670 04000000 		.4byte	.LCFI88
 4658 0674 06000000 		.4byte	.LCFI89
 4659 0678 0200     		.2byte	0x2
 4660 067a 7D       		.byte	0x7d
 4661 067b 10       		.sleb128 16
 4662 067c 06000000 		.4byte	.LCFI89
 4663 0680 1C000000 		.4byte	.LFE62
 4664 0684 0200     		.2byte	0x2
 4665 0686 77       		.byte	0x77
 4666 0687 10       		.sleb128 16
 4667 0688 00000000 		.4byte	0
 4668 068c 00000000 		.4byte	0
 4669              	.LLST30:
 4670 0690 00000000 		.4byte	.LFB63
 4671 0694 02000000 		.4byte	.LCFI90
 4672 0698 0200     		.2byte	0x2
 4673 069a 7D       		.byte	0x7d
 4674 069b 00       		.sleb128 0
 4675 069c 02000000 		.4byte	.LCFI90
 4676 06a0 04000000 		.4byte	.LCFI91
 4677 06a4 0200     		.2byte	0x2
 4678 06a6 7D       		.byte	0x7d
 4679 06a7 08       		.sleb128 8
 4680 06a8 04000000 		.4byte	.LCFI91
 4681 06ac 06000000 		.4byte	.LCFI92
 4682 06b0 0200     		.2byte	0x2
 4683 06b2 7D       		.byte	0x7d
 4684 06b3 10       		.sleb128 16
 4685 06b4 06000000 		.4byte	.LCFI92
 4686 06b8 1C000000 		.4byte	.LFE63
 4687 06bc 0200     		.2byte	0x2
 4688 06be 77       		.byte	0x77
 4689 06bf 10       		.sleb128 16
 4690 06c0 00000000 		.4byte	0
 4691 06c4 00000000 		.4byte	0
 4692              		.section	.debug_aranges,"",%progbits
 4693 0000 0C010000 		.4byte	0x10c
 4694 0004 0200     		.2byte	0x2
 4695 0006 00000000 		.4byte	.Ldebug_info0
 4696 000a 04       		.byte	0x4
 4697 000b 00       		.byte	0
 4698 000c 0000     		.2byte	0
 4699 000e 0000     		.2byte	0
 4700 0010 00000000 		.4byte	.LFB33
 4701 0014 84000000 		.4byte	.LFE33-.LFB33
 4702 0018 00000000 		.4byte	.LFB34
 4703 001c 2A000000 		.4byte	.LFE34-.LFB34
 4704 0020 00000000 		.4byte	.LFB35
 4705 0024 26000000 		.4byte	.LFE35-.LFB35
 4706 0028 00000000 		.4byte	.LFB36
ARM GAS  C:\Users\Jakob\AppData\Local\Temp\cc5GwTcI.s 			page 132


 4707 002c 50000000 		.4byte	.LFE36-.LFB36
 4708 0030 00000000 		.4byte	.LFB37
 4709 0034 10020000 		.4byte	.LFE37-.LFB37
 4710 0038 00000000 		.4byte	.LFB38
 4711 003c 1E000000 		.4byte	.LFE38-.LFB38
 4712 0040 00000000 		.4byte	.LFB39
 4713 0044 40000000 		.4byte	.LFE39-.LFB39
 4714 0048 00000000 		.4byte	.LFB40
 4715 004c 1C000000 		.4byte	.LFE40-.LFB40
 4716 0050 00000000 		.4byte	.LFB41
 4717 0054 24000000 		.4byte	.LFE41-.LFB41
 4718 0058 00000000 		.4byte	.LFB42
 4719 005c 1C000000 		.4byte	.LFE42-.LFB42
 4720 0060 00000000 		.4byte	.LFB43
 4721 0064 24000000 		.4byte	.LFE43-.LFB43
 4722 0068 00000000 		.4byte	.LFB44
 4723 006c 1C000000 		.4byte	.LFE44-.LFB44
 4724 0070 00000000 		.4byte	.LFB45
 4725 0074 1C000000 		.4byte	.LFE45-.LFB45
 4726 0078 00000000 		.4byte	.LFB46
 4727 007c 1C000000 		.4byte	.LFE46-.LFB46
 4728 0080 00000000 		.4byte	.LFB47
 4729 0084 1C000000 		.4byte	.LFE47-.LFB47
 4730 0088 00000000 		.4byte	.LFB48
 4731 008c 24000000 		.4byte	.LFE48-.LFB48
 4732 0090 00000000 		.4byte	.LFB49
 4733 0094 24000000 		.4byte	.LFE49-.LFB49
 4734 0098 00000000 		.4byte	.LFB50
 4735 009c 24000000 		.4byte	.LFE50-.LFB50
 4736 00a0 00000000 		.4byte	.LFB51
 4737 00a4 24000000 		.4byte	.LFE51-.LFB51
 4738 00a8 00000000 		.4byte	.LFB52
 4739 00ac 24000000 		.4byte	.LFE52-.LFB52
 4740 00b0 00000000 		.4byte	.LFB53
 4741 00b4 24000000 		.4byte	.LFE53-.LFB53
 4742 00b8 00000000 		.4byte	.LFB54
 4743 00bc 38010000 		.4byte	.LFE54-.LFB54
 4744 00c0 00000000 		.4byte	.LFB55
 4745 00c4 58000000 		.4byte	.LFE55-.LFB55
 4746 00c8 00000000 		.4byte	.LFB56
 4747 00cc 38000000 		.4byte	.LFE56-.LFB56
 4748 00d0 00000000 		.4byte	.LFB57
 4749 00d4 70000000 		.4byte	.LFE57-.LFB57
 4750 00d8 00000000 		.4byte	.LFB58
 4751 00dc 70000000 		.4byte	.LFE58-.LFB58
 4752 00e0 00000000 		.4byte	.LFB59
 4753 00e4 6A000000 		.4byte	.LFE59-.LFB59
 4754 00e8 00000000 		.4byte	.LFB60
 4755 00ec 3C000000 		.4byte	.LFE60-.LFB60
 4756 00f0 00000000 		.4byte	.LFB61
 4757 00f4 1C000000 		.4byte	.LFE61-.LFB61
 4758 00f8 00000000 		.4byte	.LFB62
 4759 00fc 1C000000 		.4byte	.LFE62-.LFB62
 4760 0100 00000000 		.4byte	.LFB63
 4761 0104 1C000000 		.4byte	.LFE63-.LFB63
 4762 0108 00000000 		.4byte	0
 4763 010c 00000000 		.4byte	0
ARM GAS  C:\Users\Jakob\AppData\Local\Temp\cc5GwTcI.s 			page 133


 4764              		.section	.debug_ranges,"",%progbits
 4765              	.Ldebug_ranges0:
 4766 0000 00000000 		.4byte	.LFB33
 4767 0004 84000000 		.4byte	.LFE33
 4768 0008 00000000 		.4byte	.LFB34
 4769 000c 2A000000 		.4byte	.LFE34
 4770 0010 00000000 		.4byte	.LFB35
 4771 0014 26000000 		.4byte	.LFE35
 4772 0018 00000000 		.4byte	.LFB36
 4773 001c 50000000 		.4byte	.LFE36
 4774 0020 00000000 		.4byte	.LFB37
 4775 0024 10020000 		.4byte	.LFE37
 4776 0028 00000000 		.4byte	.LFB38
 4777 002c 1E000000 		.4byte	.LFE38
 4778 0030 00000000 		.4byte	.LFB39
 4779 0034 40000000 		.4byte	.LFE39
 4780 0038 00000000 		.4byte	.LFB40
 4781 003c 1C000000 		.4byte	.LFE40
 4782 0040 00000000 		.4byte	.LFB41
 4783 0044 24000000 		.4byte	.LFE41
 4784 0048 00000000 		.4byte	.LFB42
 4785 004c 1C000000 		.4byte	.LFE42
 4786 0050 00000000 		.4byte	.LFB43
 4787 0054 24000000 		.4byte	.LFE43
 4788 0058 00000000 		.4byte	.LFB44
 4789 005c 1C000000 		.4byte	.LFE44
 4790 0060 00000000 		.4byte	.LFB45
 4791 0064 1C000000 		.4byte	.LFE45
 4792 0068 00000000 		.4byte	.LFB46
 4793 006c 1C000000 		.4byte	.LFE46
 4794 0070 00000000 		.4byte	.LFB47
 4795 0074 1C000000 		.4byte	.LFE47
 4796 0078 00000000 		.4byte	.LFB48
 4797 007c 24000000 		.4byte	.LFE48
 4798 0080 00000000 		.4byte	.LFB49
 4799 0084 24000000 		.4byte	.LFE49
 4800 0088 00000000 		.4byte	.LFB50
 4801 008c 24000000 		.4byte	.LFE50
 4802 0090 00000000 		.4byte	.LFB51
 4803 0094 24000000 		.4byte	.LFE51
 4804 0098 00000000 		.4byte	.LFB52
 4805 009c 24000000 		.4byte	.LFE52
 4806 00a0 00000000 		.4byte	.LFB53
 4807 00a4 24000000 		.4byte	.LFE53
 4808 00a8 00000000 		.4byte	.LFB54
 4809 00ac 38010000 		.4byte	.LFE54
 4810 00b0 00000000 		.4byte	.LFB55
 4811 00b4 58000000 		.4byte	.LFE55
 4812 00b8 00000000 		.4byte	.LFB56
 4813 00bc 38000000 		.4byte	.LFE56
 4814 00c0 00000000 		.4byte	.LFB57
 4815 00c4 70000000 		.4byte	.LFE57
 4816 00c8 00000000 		.4byte	.LFB58
 4817 00cc 70000000 		.4byte	.LFE58
 4818 00d0 00000000 		.4byte	.LFB59
 4819 00d4 6A000000 		.4byte	.LFE59
 4820 00d8 00000000 		.4byte	.LFB60
ARM GAS  C:\Users\Jakob\AppData\Local\Temp\cc5GwTcI.s 			page 134


 4821 00dc 3C000000 		.4byte	.LFE60
 4822 00e0 00000000 		.4byte	.LFB61
 4823 00e4 1C000000 		.4byte	.LFE61
 4824 00e8 00000000 		.4byte	.LFB62
 4825 00ec 1C000000 		.4byte	.LFE62
 4826 00f0 00000000 		.4byte	.LFB63
 4827 00f4 1C000000 		.4byte	.LFE63
 4828 00f8 00000000 		.4byte	0
 4829 00fc 00000000 		.4byte	0
 4830              		.section	.debug_line,"",%progbits
 4831              	.Ldebug_line0:
 4832 0000 8B030000 		.section	.debug_str,"MS",%progbits,1
 4832      02006200 
 4832      00000201 
 4832      FB0E0D00 
 4832      01010101 
 4833              	.LASF10:
 4834 0000 75696E74 		.ascii	"uint16\000"
 4834      313600
 4835              	.LASF49:
 4836 0007 66696C74 		.ascii	"filteredRawData\000"
 4836      65726564 
 4836      52617744 
 4836      61746100 
 4837              	.LASF64:
 4838 0017 43617053 		.ascii	"CapSense_1_SetNoiseThreshold\000"
 4838      656E7365 
 4838      5F315F53 
 4838      65744E6F 
 4838      69736554 
 4839              	.LASF72:
 4840 0034 66696E67 		.ascii	"fingerThreshold\000"
 4840      65725468 
 4840      72657368 
 4840      6F6C6400 
 4841              	.LASF25:
 4842 0044 70747247 		.ascii	"ptrGetRaw\000"
 4842      65745261 
 4842      7700
 4843              	.LASF41:
 4844 004e 43617053 		.ascii	"CapSense_1_InitializeAllBaselines\000"
 4844      656E7365 
 4844      5F315F49 
 4844      6E697469 
 4844      616C697A 
 4845              	.LASF38:
 4846 0070 43617053 		.ascii	"CapSense_1_BaseInit\000"
 4846      656E7365 
 4846      5F315F42 
 4846      61736549 
 4846      6E697400 
 4847              	.LASF7:
 4848 0084 6C6F6E67 		.ascii	"long long unsigned int\000"
 4848      206C6F6E 
 4848      6720756E 
 4848      7369676E 
 4848      65642069 
ARM GAS  C:\Users\Jakob\AppData\Local\Temp\cc5GwTcI.s 			page 135


 4849              	.LASF79:
 4850 009b 43617053 		.ascii	"CapSense_1_EnableWidget\000"
 4850      656E7365 
 4850      5F315F45 
 4850      6E61626C 
 4850      65576964 
 4851              	.LASF74:
 4852 00b3 43617053 		.ascii	"CapSense_1_CheckIsWidgetActive\000"
 4852      656E7365 
 4852      5F315F43 
 4852      6865636B 
 4852      49735769 
 4853              	.LASF99:
 4854 00d2 43617053 		.ascii	"CapSense_1_noiseThreshold\000"
 4854      656E7365 
 4854      5F315F6E 
 4854      6F697365 
 4854      54687265 
 4855              	.LASF102:
 4856 00ec 43617053 		.ascii	"CapSense_1_debounce\000"
 4856      656E7365 
 4856      5F315F64 
 4856      65626F75 
 4856      6E636500 
 4857              	.LASF67:
 4858 0100 43617053 		.ascii	"CapSense_1_SetDebounce\000"
 4858      656E7365 
 4858      5F315F53 
 4858      65744465 
 4858      626F756E 
 4859              	.LASF87:
 4860 0117 43617053 		.ascii	"CapSense_1_sensorRaw\000"
 4860      656E7365 
 4860      5F315F73 
 4860      656E736F 
 4860      72526177 
 4861              	.LASF6:
 4862 012c 6C6F6E67 		.ascii	"long long int\000"
 4862      206C6F6E 
 4862      6720696E 
 4862      7400
 4863              	.LASF0:
 4864 013a 7369676E 		.ascii	"signed char\000"
 4864      65642063 
 4864      68617200 
 4865              	.LASF75:
 4866 0146 72617749 		.ascii	"rawIndex\000"
 4866      6E646578 
 4866      00
 4867              	.LASF24:
 4868 014f 6E756D62 		.ascii	"numberOfSensors\000"
 4868      65724F66 
 4868      53656E73 
 4868      6F727300 
 4869              	.LASF21:
 4870 015f 77696467 		.ascii	"widgetNubmersTbl\000"
 4870      65744E75 
ARM GAS  C:\Users\Jakob\AppData\Local\Temp\cc5GwTcI.s 			page 136


 4870      626D6572 
 4870      7354626C 
 4870      00
 4871              	.LASF77:
 4872 0170 73746174 		.ascii	"state\000"
 4872      6500
 4873              	.LASF4:
 4874 0176 6C6F6E67 		.ascii	"long int\000"
 4874      20696E74 
 4874      00
 4875              	.LASF80:
 4876 017f 43617053 		.ascii	"CapSense_1_DisableWidget\000"
 4876      656E7365 
 4876      5F315F44 
 4876      69736162 
 4876      6C655769 
 4877              	.LASF9:
 4878 0198 75696E74 		.ascii	"uint8\000"
 4878      3800
 4879              	.LASF13:
 4880 019e 646F7562 		.ascii	"double\000"
 4880      6C6500
 4881              	.LASF11:
 4882 01a5 75696E74 		.ascii	"uint32\000"
 4882      333200
 4883              	.LASF73:
 4884 01ac 68797374 		.ascii	"hysteresis\000"
 4884      65726573 
 4884      697300
 4885              	.LASF61:
 4886 01b7 43617053 		.ascii	"CapSense_1_GetFingerHysteresis\000"
 4886      656E7365 
 4886      5F315F47 
 4886      65744669 
 4886      6E676572 
 4887              	.LASF34:
 4888 01d6 73656E73 		.ascii	"sensetivitySeed\000"
 4888      65746976 
 4888      69747953 
 4888      65656400 
 4889              	.LASF101:
 4890 01e6 43617053 		.ascii	"CapSense_1_hysteresis\000"
 4890      656E7365 
 4890      5F315F68 
 4890      79737465 
 4890      72657369 
 4891              	.LASF103:
 4892 01fc 43617053 		.ascii	"CapSense_1_rawDataIndex\000"
 4892      656E7365 
 4892      5F315F72 
 4892      61774461 
 4892      7461496E 
 4893              	.LASF98:
 4894 0214 43617053 		.ascii	"CapSense_1_fingerThreshold\000"
 4894      656E7365 
 4894      5F315F66 
 4894      696E6765 
ARM GAS  C:\Users\Jakob\AppData\Local\Temp\cc5GwTcI.s 			page 137


 4894      72546872 
 4895              	.LASF33:
 4896 022f 746F7461 		.ascii	"totalSensorsNum\000"
 4896      6C53656E 
 4896      736F7273 
 4896      4E756D00 
 4897              	.LASF58:
 4898 023f 76616C75 		.ascii	"value\000"
 4898      6500
 4899              	.LASF8:
 4900 0245 756E7369 		.ascii	"unsigned int\000"
 4900      676E6564 
 4900      20696E74 
 4900      00
 4901              	.LASF5:
 4902 0252 6C6F6E67 		.ascii	"long unsigned int\000"
 4902      20756E73 
 4902      69676E65 
 4902      6420696E 
 4902      7400
 4903              	.LASF22:
 4904 0264 7265736F 		.ascii	"resolutionsTbl\000"
 4904      6C757469 
 4904      6F6E7354 
 4904      626C00
 4905              	.LASF28:
 4906 0273 70747247 		.ascii	"ptrGetBitValue\000"
 4906      65744269 
 4906      7456616C 
 4906      756500
 4907              	.LASF81:
 4908 0282 43617053 		.ascii	"CapSense_1_MedianFilter\000"
 4908      656E7365 
 4908      5F315F4D 
 4908      65646961 
 4908      6E46696C 
 4909              	.LASF107:
 4910 029a 433A5C55 		.ascii	"C:\\Users\\Jakob\\Dropbox\\3.Semester\\PRJ3\\psoc_a"
 4910      73657273 
 4910      5C4A616B 
 4910      6F625C44 
 4910      726F7062 
 4911 02c7 70695F32 		.ascii	"pi_2\\psoc_api_2.cydsn\000"
 4911      5C70736F 
 4911      635F6170 
 4911      695F322E 
 4911      63796473 
 4912              	.LASF57:
 4913 02dd 43617053 		.ascii	"CapSense_1_SetDiffCountData\000"
 4913      656E7365 
 4913      5F315F53 
 4913      65744469 
 4913      6666436F 
 4914              	.LASF54:
 4915 02f9 64617461 		.ascii	"data\000"
 4915      00
 4916              	.LASF97:
ARM GAS  C:\Users\Jakob\AppData\Local\Temp\cc5GwTcI.s 			page 138


 4917 02fe 43617053 		.ascii	"CapSense_1_config\000"
 4917      656E7365 
 4917      5F315F63 
 4917      6F6E6669 
 4917      6700
 4918              	.LASF3:
 4919 0310 73686F72 		.ascii	"short unsigned int\000"
 4919      7420756E 
 4919      7369676E 
 4919      65642069 
 4919      6E7400
 4920              	.LASF18:
 4921 0323 73656E73 		.ascii	"sensetivityTbl\000"
 4921      65746976 
 4921      69747954 
 4921      626C00
 4922              	.LASF40:
 4923 0332 73656E73 		.ascii	"sensor\000"
 4923      6F7200
 4924              	.LASF68:
 4925 0339 43617053 		.ascii	"CapSense_1_SetLowBaselineReset\000"
 4925      656E7365 
 4925      5F315F53 
 4925      65744C6F 
 4925      77426173 
 4926              	.LASF62:
 4927 0358 43617053 		.ascii	"CapSense_1_GetNegativeNoiseThreshold\000"
 4927      656E7365 
 4927      5F315F47 
 4927      65744E65 
 4927      67617469 
 4928              	.LASF66:
 4929 037d 43617053 		.ascii	"CapSense_1_SetNegativeNoiseThreshold\000"
 4929      656E7365 
 4929      5F315F53 
 4929      65744E65 
 4929      67617469 
 4930              	.LASF37:
 4931 03a2 43617053 		.ascii	"CapSense_1_CONFIG_TYPE_P4_v2_0\000"
 4931      656E7365 
 4931      5F315F43 
 4931      4F4E4649 
 4931      475F5459 
 4932              	.LASF100:
 4933 03c1 43617053 		.ascii	"CapSense_1_negativeNoiseThreshold\000"
 4933      656E7365 
 4933      5F315F6E 
 4933      65676174 
 4933      6976654E 
 4934              	.LASF104:
 4935 03e3 43617053 		.ascii	"CapSense_1_numberOfSensors\000"
 4935      656E7365 
 4935      5F315F6E 
 4935      756D6265 
 4935      724F6653 
 4936              	.LASF46:
 4937 03fe 63616C63 		.ascii	"calc\000"
ARM GAS  C:\Users\Jakob\AppData\Local\Temp\cc5GwTcI.s 			page 139


 4937      00
 4938              	.LASF19:
 4939 0403 63686172 		.ascii	"chargeDivTbl\000"
 4939      67654469 
 4939      7654626C 
 4939      00
 4940              	.LASF53:
 4941 0410 43617053 		.ascii	"CapSense_1_SetBaselineData\000"
 4941      656E7365 
 4941      5F315F53 
 4941      65744261 
 4941      73656C69 
 4942              	.LASF90:
 4943 042b 43617053 		.ascii	"CapSense_1_sensorEnableMask\000"
 4943      656E7365 
 4943      5F315F73 
 4943      656E736F 
 4943      72456E61 
 4944              	.LASF36:
 4945 0447 706F696E 		.ascii	"pointers\000"
 4945      74657273 
 4945      00
 4946              	.LASF70:
 4947 0450 6465626F 		.ascii	"debounce\000"
 4947      756E6365 
 4947      00
 4948              	.LASF35:
 4949 0459 6866636C 		.ascii	"hfclkFreq_MHz\000"
 4949      6B467265 
 4949      715F4D48 
 4949      7A00
 4950              	.LASF15:
 4951 0467 73697A65 		.ascii	"sizetype\000"
 4951      74797065 
 4951      00
 4952              	.LASF95:
 4953 0470 43617053 		.ascii	"CapSense_1_lowBaselineResetCnt\000"
 4953      656E7365 
 4953      5F315F6C 
 4953      6F774261 
 4953      73656C69 
 4954              	.LASF85:
 4955 048f 43617053 		.ascii	"CapSense_1_GetDebounce\000"
 4955      656E7365 
 4955      5F315F47 
 4955      65744465 
 4955      626F756E 
 4956              	.LASF56:
 4957 04a6 43617053 		.ascii	"CapSense_1_GetDiffCountData\000"
 4957      656E7365 
 4957      5F315F47 
 4957      65744469 
 4957      6666436F 
 4958              	.LASF16:
 4959 04c2 69646163 		.ascii	"idac1LevelsTbl\000"
 4959      314C6576 
 4959      656C7354 
ARM GAS  C:\Users\Jakob\AppData\Local\Temp\cc5GwTcI.s 			page 140


 4959      626C00
 4960              	.LASF17:
 4961 04d1 69646163 		.ascii	"idac2LevelsTbl\000"
 4961      324C6576 
 4961      656C7354 
 4961      626C00
 4962              	.LASF39:
 4963 04e0 43617053 		.ascii	"CapSense_1_InitializeSensorBaseline\000"
 4963      656E7365 
 4963      5F315F49 
 4963      6E697469 
 4963      616C697A 
 4964              	.LASF86:
 4965 0504 43617053 		.ascii	"CapSense_1_debounceCounter\000"
 4965      656E7365 
 4965      5F315F64 
 4965      65626F75 
 4965      6E636543 
 4966              	.LASF52:
 4967 051f 43617053 		.ascii	"CapSense_1_UpdateEnabledBaselines\000"
 4967      656E7365 
 4967      5F315F55 
 4967      70646174 
 4967      65456E61 
 4968              	.LASF96:
 4969 0541 43617053 		.ascii	"CapSense_1_lowBaselineReset\000"
 4969      656E7365 
 4969      5F315F6C 
 4969      6F774261 
 4969      73656C69 
 4970              	.LASF12:
 4971 055d 666C6F61 		.ascii	"float\000"
 4971      7400
 4972              	.LASF60:
 4973 0563 43617053 		.ascii	"CapSense_1_GetNoiseThreshold\000"
 4973      656E7365 
 4973      5F315F47 
 4973      65744E6F 
 4973      69736554 
 4974              	.LASF45:
 4975 0580 43617053 		.ascii	"CapSense_1_UpdateBaselineNoThreshold\000"
 4975      656E7365 
 4975      5F315F55 
 4975      70646174 
 4975      65426173 
 4976              	.LASF65:
 4977 05a5 43617053 		.ascii	"CapSense_1_SetFingerHysteresis\000"
 4977      656E7365 
 4977      5F315F53 
 4977      65744669 
 4977      6E676572 
 4978              	.LASF94:
 4979 05c4 43617053 		.ascii	"CapSense_1_sensorOnMask\000"
 4979      656E7365 
 4979      5F315F73 
 4979      656E736F 
 4979      724F6E4D 
ARM GAS  C:\Users\Jakob\AppData\Local\Temp\cc5GwTcI.s 			page 141


 4980              	.LASF88:
 4981 05dc 43617053 		.ascii	"CapSense_1_widgetNumber\000"
 4981      656E7365 
 4981      5F315F77 
 4981      69646765 
 4981      744E756D 
 4982              	.LASF89:
 4983 05f4 43617053 		.ascii	"CapSense_1_rawFilterData1\000"
 4983      656E7365 
 4983      5F315F72 
 4983      61774669 
 4983      6C746572 
 4984              	.LASF105:
 4985 060e 474E5520 		.ascii	"GNU C 4.7.3 20130312 (release) [ARM/embedded-4_7-br"
 4985      4320342E 
 4985      372E3320 
 4985      32303133 
 4985      30333132 
 4986 0641 616E6368 		.ascii	"anch revision 196615]\000"
 4986      20726576 
 4986      6973696F 
 4986      6E203139 
 4986      36363135 
 4987              	.LASF69:
 4988 0657 43617053 		.ascii	"CapSense_1_CheckIsSensorActive\000"
 4988      656E7365 
 4988      5F315F43 
 4988      6865636B 
 4988      49735365 
 4989              	.LASF78:
 4990 0676 43617053 		.ascii	"CapSense_1_CheckIsAnyWidgetActive\000"
 4990      656E7365 
 4990      5F315F43 
 4990      6865636B 
 4990      4973416E 
 4991              	.LASF1:
 4992 0698 756E7369 		.ascii	"unsigned char\000"
 4992      676E6564 
 4992      20636861 
 4992      7200
 4993              	.LASF27:
 4994 06a6 70747252 		.ascii	"ptrReadSensorRaw\000"
 4994      65616453 
 4994      656E736F 
 4994      72526177 
 4994      00
 4995              	.LASF43:
 4996 06b7 43617053 		.ascii	"CapSense_1_InitializeEnabledBaselines\000"
 4996      656E7365 
 4996      5F315F49 
 4996      6E697469 
 4996      616C697A 
 4997              	.LASF50:
 4998 06dd 6E6F6973 		.ascii	"noiseThreshold\000"
 4998      65546872 
 4998      6573686F 
 4998      6C6400
ARM GAS  C:\Users\Jakob\AppData\Local\Temp\cc5GwTcI.s 			page 142


 4999              	.LASF2:
 5000 06ec 73686F72 		.ascii	"short int\000"
 5000      7420696E 
 5000      7400
 5001              	.LASF42:
 5002 06f6 77696467 		.ascii	"widget\000"
 5002      657400
 5003              	.LASF20:
 5004 06fd 6D6F6444 		.ascii	"modDivTbl\000"
 5004      69765462 
 5004      6C00
 5005              	.LASF51:
 5006 0707 43617053 		.ascii	"CapSense_1_UpdateSensorBaseline\000"
 5006      656E7365 
 5006      5F315F55 
 5006      70646174 
 5006      6553656E 
 5007              	.LASF93:
 5008 0727 43617053 		.ascii	"CapSense_1_sensorSignal\000"
 5008      656E7365 
 5008      5F315F73 
 5008      656E736F 
 5008      72536967 
 5009              	.LASF83:
 5010 073f 43617053 		.ascii	"CapSense_1_GetWidgetNumber\000"
 5010      656E7365 
 5010      5F315F47 
 5010      65745769 
 5010      64676574 
 5011              	.LASF84:
 5012 075a 43617053 		.ascii	"CapSense_1_GetLowBaselineReset\000"
 5012      656E7365 
 5012      5F315F47 
 5012      65744C6F 
 5012      77426173 
 5013              	.LASF44:
 5014 0779 69735365 		.ascii	"isSensorEnabled\000"
 5014      6E736F72 
 5014      456E6162 
 5014      6C656400 
 5015              	.LASF14:
 5016 0789 63686172 		.ascii	"char\000"
 5016      00
 5017              	.LASF30:
 5018 078e 43617053 		.ascii	"CapSense_1_CONFIG_TYPE_POINTERS_P4_v2_0\000"
 5018      656E7365 
 5018      5F315F43 
 5018      4F4E4649 
 5018      475F5459 
 5019              	.LASF92:
 5020 07b6 43617053 		.ascii	"CapSense_1_sensorBaselineLow\000"
 5020      656E7365 
 5020      5F315F73 
 5020      656E736F 
 5020      72426173 
 5021              	.LASF71:
 5022 07d3 6465626F 		.ascii	"debounceIndex\000"
ARM GAS  C:\Users\Jakob\AppData\Local\Temp\cc5GwTcI.s 			page 143


 5022      756E6365 
 5022      496E6465 
 5022      7800
 5023              	.LASF26:
 5024 07e1 70747250 		.ascii	"ptrPreScan\000"
 5024      72655363 
 5024      616E00
 5025              	.LASF47:
 5026 07ec 7369676E 		.ascii	"sign\000"
 5026      00
 5027              	.LASF76:
 5028 07f1 6E756D4F 		.ascii	"numOfSensors\000"
 5028      6653656E 
 5028      736F7273 
 5028      00
 5029              	.LASF55:
 5030 07fe 43617053 		.ascii	"CapSense_1_GetBaselineData\000"
 5030      656E7365 
 5030      5F315F47 
 5030      65744261 
 5030      73656C69 
 5031              	.LASF31:
 5032 0819 746F7461 		.ascii	"totalScanslotsNum\000"
 5032      6C536361 
 5032      6E736C6F 
 5032      74734E75 
 5032      6D00
 5033              	.LASF91:
 5034 082b 43617053 		.ascii	"CapSense_1_sensorBaseline\000"
 5034      656E7365 
 5034      5F315F73 
 5034      656E736F 
 5034      72426173 
 5035              	.LASF59:
 5036 0845 43617053 		.ascii	"CapSense_1_GetFingerThreshold\000"
 5036      656E7365 
 5036      5F315F47 
 5036      65744669 
 5036      6E676572 
 5037              	.LASF29:
 5038 0863 70747253 		.ascii	"ptrSetBitValue\000"
 5038      65744269 
 5038      7456616C 
 5038      756500
 5039              	.LASF63:
 5040 0872 43617053 		.ascii	"CapSense_1_SetFingerThreshold\000"
 5040      656E7365 
 5040      5F315F53 
 5040      65744669 
 5040      6E676572 
 5041              	.LASF82:
 5042 0890 43617053 		.ascii	"CapSense_1_IIR4Filter\000"
 5042      656E7365 
 5042      5F315F49 
 5042      49523446 
 5042      696C7465 
 5043              	.LASF23:
ARM GAS  C:\Users\Jakob\AppData\Local\Temp\cc5GwTcI.s 			page 144


 5044 08a6 72617744 		.ascii	"rawDataIndex\000"
 5044      61746149 
 5044      6E646578 
 5044      00
 5045              	.LASF48:
 5046 08b3 74656D70 		.ascii	"tempRaw\000"
 5046      52617700 
 5047              	.LASF32:
 5048 08bb 746F7461 		.ascii	"totalWidgetsNum\000"
 5048      6C576964 
 5048      67657473 
 5048      4E756D00 
 5049              	.LASF106:
 5050 08cb 2E5C4765 		.ascii	".\\Generated_Source\\PSoC4\\CapSense_1_CSHL.c\000"
 5050      6E657261 
 5050      7465645F 
 5050      536F7572 
 5050      63655C50 
 5051              		.ident	"GCC: (GNU Tools for ARM Embedded Processors) 4.7.3 20130312 (release) [ARM/embedded-4_7-br
