ARM GAS  C:\Users\Jakob\AppData\Local\Temp\ccdTPtya.s 			page 1


   1              		.cpu cortex-m0
   2              		.fpu softvfp
   3              		.eabi_attribute 20, 1
   4              		.eabi_attribute 21, 1
   5              		.eabi_attribute 23, 3
   6              		.eabi_attribute 24, 1
   7              		.eabi_attribute 25, 1
   8              		.eabi_attribute 26, 1
   9              		.eabi_attribute 30, 6
  10              		.eabi_attribute 34, 0
  11              		.eabi_attribute 18, 4
  12              		.code	16
  13              		.file	"CapSense_1_SMS.c"
  14              		.text
  15              	.Ltext0:
  16              		.cfi_sections	.debug_frame
  17              		.global	prescalerTable
  18              		.section	.rodata
  19              		.align	2
  20              		.type	prescalerTable, %object
  21              		.size	prescalerTable, 16
  22              	prescalerTable:
  23 0000 01       		.byte	1
  24 0001 01       		.byte	1
  25 0002 01       		.byte	1
  26 0003 02       		.byte	2
  27 0004 02       		.byte	2
  28 0005 02       		.byte	2
  29 0006 02       		.byte	2
  30 0007 04       		.byte	4
  31 0008 04       		.byte	4
  32 0009 04       		.byte	4
  33 000a 04       		.byte	4
  34 000b 04       		.byte	4
  35 000c 04       		.byte	4
  36 000d 04       		.byte	4
  37 000e 04       		.byte	4
  38 000f 04       		.byte	4
  39              		.comm	noiseEnvelopeTbl,1,4
  40              		.comm	runningDifferenceTbl,1,4
  41              		.comm	signRegisterTbl,1,4
  42              		.comm	sampleMinTbl,2,4
  43              		.comm	sampleMaxTbl,2,4
  44              		.comm	previousSampleTbl,2,4
  45              		.comm	kValueTbl,1,4
  46              		.comm	scanSpeedTbl,1,4
  47              		.global	SMS_LIB_SensorSensitivity
  48              		.data
  49              		.align	2
  50              		.type	SMS_LIB_SensorSensitivity, %object
  51              		.size	SMS_LIB_SensorSensitivity, 1
  52              	SMS_LIB_SensorSensitivity:
  53 0000 02       		.byte	2
  54              		.comm	CapSense_1_config,12,4
  55              		.global	CapSense_1_configPointers
  56 0001 000000   		.section	.rodata
  57              		.align	2
ARM GAS  C:\Users\Jakob\AppData\Local\Temp\ccdTPtya.s 			page 2


  58              		.type	CapSense_1_configPointers, %object
  59              		.size	CapSense_1_configPointers, 56
  60              	CapSense_1_configPointers:
  61 0010 00000000 		.word	CapSense_1_modulationIDAC
  62 0014 00000000 		.word	CapSense_1_compensationIDAC
  63 0018 00000000 		.word	SMS_LIB_SensorSensitivity
  64 001c 00000000 		.word	CapSense_1_senseClkDividerVal
  65 0020 00000000 		.word	CapSense_1_sampleClkDividerVal
  66 0024 00000000 		.word	CapSense_1_widgetNumber
  67 0028 00000000 		.word	CapSense_1_widgetResolution
  68 002c 00000000 		.word	CapSense_1_rawDataIndex
  69 0030 00000000 		.word	CapSense_1_numberOfSensors
  70 0034 00000000 		.word	CapSense_1_GetSensorRaw
  71 0038 00000000 		.word	CapSense_1_PreScan
  72 003c 00000000 		.word	CapSense_1_ReadSensorRaw
  73 0040 00000000 		.word	CapSense_1_GetBitValue
  74 0044 00000000 		.word	CapSense_1_SetBitValue
  75              		.section	.text.CapSense_1_AutoTune,"ax",%progbits
  76              		.align	2
  77              		.global	CapSense_1_AutoTune
  78              		.code	16
  79              		.thumb_func
  80              		.type	CapSense_1_AutoTune, %function
  81              	CapSense_1_AutoTune:
  82              	.LFB33:
  83              		.file 1 ".\\Generated_Source\\PSoC4\\CapSense_1_SMS.c"
   1:.\Generated_Source\PSoC4/CapSense_1_SMS.c **** /*******************************************************************************
   2:.\Generated_Source\PSoC4/CapSense_1_SMS.c **** * File Name: CapSense_1_SMS.c
   3:.\Generated_Source\PSoC4/CapSense_1_SMS.c **** * Version 2.0
   4:.\Generated_Source\PSoC4/CapSense_1_SMS.c **** *
   5:.\Generated_Source\PSoC4/CapSense_1_SMS.c **** * Description:
   6:.\Generated_Source\PSoC4/CapSense_1_SMS.c **** *  This file provides the source code of wrapper between CapSense CSD component 
   7:.\Generated_Source\PSoC4/CapSense_1_SMS.c **** *  and Auto Tuning library.
   8:.\Generated_Source\PSoC4/CapSense_1_SMS.c **** *
   9:.\Generated_Source\PSoC4/CapSense_1_SMS.c **** * Note:
  10:.\Generated_Source\PSoC4/CapSense_1_SMS.c **** *
  11:.\Generated_Source\PSoC4/CapSense_1_SMS.c **** ********************************************************************************
  12:.\Generated_Source\PSoC4/CapSense_1_SMS.c **** * Copyright 2014, Cypress Semiconductor Corporation.  All rights reserved.
  13:.\Generated_Source\PSoC4/CapSense_1_SMS.c **** * You may use this file only in accordance with the license, terms, conditions,
  14:.\Generated_Source\PSoC4/CapSense_1_SMS.c **** * disclaimers, and limitations in the end user license agreement accompanying
  15:.\Generated_Source\PSoC4/CapSense_1_SMS.c **** * the software package with which this file was provided.
  16:.\Generated_Source\PSoC4/CapSense_1_SMS.c **** *******************************************************************************/
  17:.\Generated_Source\PSoC4/CapSense_1_SMS.c **** 
  18:.\Generated_Source\PSoC4/CapSense_1_SMS.c **** #include "CapSense_1_SMS.h"
  19:.\Generated_Source\PSoC4/CapSense_1_SMS.c **** #include "CapSense_1_PVT.h"
  20:.\Generated_Source\PSoC4/CapSense_1_SMS.c **** 
  21:.\Generated_Source\PSoC4/CapSense_1_SMS.c **** #include "cytypes.h"
  22:.\Generated_Source\PSoC4/CapSense_1_SMS.c **** 
  23:.\Generated_Source\PSoC4/CapSense_1_SMS.c **** #define CapSense_1_PRS_CORRECTION_DIVIDER (4u)
  24:.\Generated_Source\PSoC4/CapSense_1_SMS.c **** #define CapSense_1_MAX_RESOLUTION         (65535u)
  25:.\Generated_Source\PSoC4/CapSense_1_SMS.c **** #define CapSense_1_SENSITIVITY_DIVIDER    (10u)
  26:.\Generated_Source\PSoC4/CapSense_1_SMS.c **** 
  27:.\Generated_Source\PSoC4/CapSense_1_SMS.c **** #if (CapSense_1_TUNING_METHOD == CapSense_1__TUNING_AUTO)
  28:.\Generated_Source\PSoC4/CapSense_1_SMS.c **** 
  29:.\Generated_Source\PSoC4/CapSense_1_SMS.c **** #if (0u != CapSense_1_IS_M0S8PERI_BLOCK)
  30:.\Generated_Source\PSoC4/CapSense_1_SMS.c ****     /*  Dividers are not chained */ 
  31:.\Generated_Source\PSoC4/CapSense_1_SMS.c **** 	#if(CapSense_1_PRS_OPTIONS != CapSense_1__PRS_NONE)
ARM GAS  C:\Users\Jakob\AppData\Local\Temp\ccdTPtya.s 			page 3


  32:.\Generated_Source\PSoC4/CapSense_1_SMS.c **** 		#define CapSense_1_SENSETIVITY_FACTOR (1228u)
  33:.\Generated_Source\PSoC4/CapSense_1_SMS.c **** 	#else
  34:.\Generated_Source\PSoC4/CapSense_1_SMS.c **** 		#define CapSense_1_SENSETIVITY_FACTOR (2456u)
  35:.\Generated_Source\PSoC4/CapSense_1_SMS.c **** 	#endif /* (CapSense_1_PRS_OPTIONS == CapSense_1__PRS_NONE) */
  36:.\Generated_Source\PSoC4/CapSense_1_SMS.c **** #else
  37:.\Generated_Source\PSoC4/CapSense_1_SMS.c ****     /*  Dividers are chained */
  38:.\Generated_Source\PSoC4/CapSense_1_SMS.c **** 	#if(CapSense_1_PRS_OPTIONS != CapSense_1__PRS_NONE)
  39:.\Generated_Source\PSoC4/CapSense_1_SMS.c **** 		#define CapSense_1_SENSETIVITY_FACTOR (1228u/CapSense_1_CALIBRATION_MD)
  40:.\Generated_Source\PSoC4/CapSense_1_SMS.c **** 	#else
  41:.\Generated_Source\PSoC4/CapSense_1_SMS.c **** 		#define CapSense_1_SENSETIVITY_FACTOR (2456u/CapSense_1_CALIBRATION_MD)
  42:.\Generated_Source\PSoC4/CapSense_1_SMS.c **** 	#endif /* (CapSense_1_PRS_OPTIONS == CapSense_1__PRS_NONE) */
  43:.\Generated_Source\PSoC4/CapSense_1_SMS.c **** #endif /* (0u != CapSense_1_IS_M0S8PERI_BLOCK) */
  44:.\Generated_Source\PSoC4/CapSense_1_SMS.c **** 
  45:.\Generated_Source\PSoC4/CapSense_1_SMS.c **** 
  46:.\Generated_Source\PSoC4/CapSense_1_SMS.c **** #if(CapSense_1_PRS_OPTIONS != CapSense_1__PRS_NONE)
  47:.\Generated_Source\PSoC4/CapSense_1_SMS.c **** 	extern uint8 CapSense_1_prescalersTuningDone;
  48:.\Generated_Source\PSoC4/CapSense_1_SMS.c **** #endif /* (CapSense_1_PRS_OPTIONS == CapSense_1__PRS_NONE) */
  49:.\Generated_Source\PSoC4/CapSense_1_SMS.c **** 
  50:.\Generated_Source\PSoC4/CapSense_1_SMS.c **** 
  51:.\Generated_Source\PSoC4/CapSense_1_SMS.c **** /*  Real Charge Divider values */
  52:.\Generated_Source\PSoC4/CapSense_1_SMS.c **** #if (0u != CapSense_1_IS_M0S8PERI_BLOCK)
  53:.\Generated_Source\PSoC4/CapSense_1_SMS.c ****     /*  Dividers are not chained */
  54:.\Generated_Source\PSoC4/CapSense_1_SMS.c **** 	#if (CYDEV_BCLK__HFCLK__MHZ >= 12u)
  55:.\Generated_Source\PSoC4/CapSense_1_SMS.c **** 		const uint8 prescalerTable[] = {
  56:.\Generated_Source\PSoC4/CapSense_1_SMS.c **** 			1u,     1u,     1u,    2u,    2u,    2u,    2u,    4u,    4u,    4u,    4u,    4u,    4u,    4u,
  57:.\Generated_Source\PSoC4/CapSense_1_SMS.c **** 		};
  58:.\Generated_Source\PSoC4/CapSense_1_SMS.c **** 
  59:.\Generated_Source\PSoC4/CapSense_1_SMS.c **** 	#elif (CYDEV_BCLK__HFCLK__MHZ >= 6u)
  60:.\Generated_Source\PSoC4/CapSense_1_SMS.c **** 		const uint8 prescalerTable[] = {
  61:.\Generated_Source\PSoC4/CapSense_1_SMS.c **** 			1u,     1u,     1u,    1u,    1u,    1u,    1u,    2u,    2u,    2u,    2u,    2u,    2u,    2u,
  62:.\Generated_Source\PSoC4/CapSense_1_SMS.c **** 		};
  63:.\Generated_Source\PSoC4/CapSense_1_SMS.c **** 	#else
  64:.\Generated_Source\PSoC4/CapSense_1_SMS.c **** 		const uint8 prescalerTable[] = {
  65:.\Generated_Source\PSoC4/CapSense_1_SMS.c **** 			1u,     1u,     1u,    1u,    1u,    1u,    1u,    1u,    1u,    1u,    1u,    1u,    1u,    1u,
  66:.\Generated_Source\PSoC4/CapSense_1_SMS.c **** 		};
  67:.\Generated_Source\PSoC4/CapSense_1_SMS.c **** 	#endif /* (CYDEV_BCLK__HFCLK__MHZ > 12u) */
  68:.\Generated_Source\PSoC4/CapSense_1_SMS.c **** #else
  69:.\Generated_Source\PSoC4/CapSense_1_SMS.c ****     /*  Dividers are chained */ 
  70:.\Generated_Source\PSoC4/CapSense_1_SMS.c **** 	#if (CYDEV_BCLK__HFCLK__MHZ > 24u)
  71:.\Generated_Source\PSoC4/CapSense_1_SMS.c **** 		const uint8 prescalerTable[] = {
  72:.\Generated_Source\PSoC4/CapSense_1_SMS.c **** 			2u,     2u,     2u,    4u,    4u,    4u,    4u,    8u,    8u,    8u,    8u,    8u,    8u,    8u,
  73:.\Generated_Source\PSoC4/CapSense_1_SMS.c **** 		};
  74:.\Generated_Source\PSoC4/CapSense_1_SMS.c **** 
  75:.\Generated_Source\PSoC4/CapSense_1_SMS.c **** 	#elif (CYDEV_BCLK__HFCLK__MHZ >12u)
  76:.\Generated_Source\PSoC4/CapSense_1_SMS.c **** 		const uint8 prescalerTable[] = {
  77:.\Generated_Source\PSoC4/CapSense_1_SMS.c **** 			1u,     1u,     1u,    2u,    2u,    2u,    2u,    4u,    4u,    4u,    4u,    4u,    4u,    4u,
  78:.\Generated_Source\PSoC4/CapSense_1_SMS.c **** 		};
  79:.\Generated_Source\PSoC4/CapSense_1_SMS.c **** 	#else   /* (CYDEV_BCLK__HFCLK__MHZ > 12u) */
  80:.\Generated_Source\PSoC4/CapSense_1_SMS.c **** 		const uint8 prescalerTable[] = {
  81:.\Generated_Source\PSoC4/CapSense_1_SMS.c **** 			1u,     1u,     1u,    1u,    1u,    1u,    1u,    2u,    2u,    2u,    2u,    2u,    2u,    2u,
  82:.\Generated_Source\PSoC4/CapSense_1_SMS.c **** 		};
  83:.\Generated_Source\PSoC4/CapSense_1_SMS.c **** 	#endif /* (CYDEV_BCLK__HFCLK__MHZ > 24u) */
  84:.\Generated_Source\PSoC4/CapSense_1_SMS.c **** #endif /* (0u != CapSense_1_IS_M0S8PERI_BLOCK) */
  85:.\Generated_Source\PSoC4/CapSense_1_SMS.c **** 
  86:.\Generated_Source\PSoC4/CapSense_1_SMS.c **** 
  87:.\Generated_Source\PSoC4/CapSense_1_SMS.c **** extern uint16 CapSense_1_sensorRaw[CapSense_1_TOTAL_SENSOR_COUNT];
  88:.\Generated_Source\PSoC4/CapSense_1_SMS.c **** extern uint8 CapSense_1_sensorSignal[CapSense_1_TOTAL_SENSOR_COUNT];
ARM GAS  C:\Users\Jakob\AppData\Local\Temp\ccdTPtya.s 			page 4


  89:.\Generated_Source\PSoC4/CapSense_1_SMS.c **** 
  90:.\Generated_Source\PSoC4/CapSense_1_SMS.c **** extern uint32 CapSense_1_widgetResolution[CapSense_1_RESOLUTIONS_TBL_SIZE];
  91:.\Generated_Source\PSoC4/CapSense_1_SMS.c **** extern const uint8 CapSense_1_widgetNumber[CapSense_1_TOTAL_SENSOR_COUNT];
  92:.\Generated_Source\PSoC4/CapSense_1_SMS.c **** 
  93:.\Generated_Source\PSoC4/CapSense_1_SMS.c **** extern const uint8 CapSense_1_rawDataIndex[CapSense_1_WIDGETS_TBL_SIZE];
  94:.\Generated_Source\PSoC4/CapSense_1_SMS.c **** extern const uint8 CapSense_1_numberOfSensors[CapSense_1_WIDGETS_TBL_SIZE];
  95:.\Generated_Source\PSoC4/CapSense_1_SMS.c **** 
  96:.\Generated_Source\PSoC4/CapSense_1_SMS.c **** extern uint8 CapSense_1_modulationIDAC[CapSense_1_TOTAL_SENSOR_COUNT];
  97:.\Generated_Source\PSoC4/CapSense_1_SMS.c **** extern uint8 CapSense_1_compensationIDAC[CapSense_1_TOTAL_SENSOR_COUNT];
  98:.\Generated_Source\PSoC4/CapSense_1_SMS.c **** 
  99:.\Generated_Source\PSoC4/CapSense_1_SMS.c **** extern uint8 CapSense_1_senseClkDividerVal[CapSense_1_TOTAL_SCANSLOT_COUNT];
 100:.\Generated_Source\PSoC4/CapSense_1_SMS.c **** extern uint8 CapSense_1_sampleClkDividerVal[CapSense_1_TOTAL_SCANSLOT_COUNT];
 101:.\Generated_Source\PSoC4/CapSense_1_SMS.c **** 
 102:.\Generated_Source\PSoC4/CapSense_1_SMS.c **** extern uint8 CapSense_1_fingerThreshold[CapSense_1_THRESHOLD_TBL_SIZE];
 103:.\Generated_Source\PSoC4/CapSense_1_SMS.c **** extern uint8 CapSense_1_noiseThreshold[CapSense_1_THRESHOLD_TBL_SIZE];
 104:.\Generated_Source\PSoC4/CapSense_1_SMS.c **** extern uint8 CapSense_1_hysteresis[CapSense_1_WIDGET_PARAM_TBL_SIZE];
 105:.\Generated_Source\PSoC4/CapSense_1_SMS.c **** extern uint8 CapSense_1_negativeNoiseThreshold[CapSense_1_THRESHOLD_TBL_SIZE];
 106:.\Generated_Source\PSoC4/CapSense_1_SMS.c **** 
 107:.\Generated_Source\PSoC4/CapSense_1_SMS.c **** uint8 noiseEnvelopeTbl[CapSense_1_TOTAL_SENSOR_COUNT];
 108:.\Generated_Source\PSoC4/CapSense_1_SMS.c **** uint8 runningDifferenceTbl[CapSense_1_TOTAL_SENSOR_COUNT];
 109:.\Generated_Source\PSoC4/CapSense_1_SMS.c **** uint8 signRegisterTbl[CapSense_1_TOTAL_SENSOR_COUNT];
 110:.\Generated_Source\PSoC4/CapSense_1_SMS.c **** uint16 sampleMinTbl[CapSense_1_TOTAL_SENSOR_COUNT];
 111:.\Generated_Source\PSoC4/CapSense_1_SMS.c **** uint16 sampleMaxTbl[CapSense_1_TOTAL_SENSOR_COUNT];
 112:.\Generated_Source\PSoC4/CapSense_1_SMS.c **** uint16 previousSampleTbl[CapSense_1_TOTAL_SENSOR_COUNT];
 113:.\Generated_Source\PSoC4/CapSense_1_SMS.c **** uint8 kValueTbl[CapSense_1_TOTAL_SENSOR_COUNT];   
 114:.\Generated_Source\PSoC4/CapSense_1_SMS.c **** uint8 scanSpeedTbl[((CapSense_1_TOTAL_SENSOR_COUNT - 1u) / 8u) + 1u];
 115:.\Generated_Source\PSoC4/CapSense_1_SMS.c **** 
 116:.\Generated_Source\PSoC4/CapSense_1_SMS.c **** uint8 SMS_LIB_SensorSensitivity[] = {
 117:.\Generated_Source\PSoC4/CapSense_1_SMS.c ****     2u, 
 118:.\Generated_Source\PSoC4/CapSense_1_SMS.c **** };
 119:.\Generated_Source\PSoC4/CapSense_1_SMS.c **** 
 120:.\Generated_Source\PSoC4/CapSense_1_SMS.c **** CapSense_1_CONFIG_TYPE_P4_v2_0 CapSense_1_config;
 121:.\Generated_Source\PSoC4/CapSense_1_SMS.c **** CapSense_1_CONFIG_TYPE_POINTERS_P4_v2_0 const CapSense_1_configPointers = {
 122:.\Generated_Source\PSoC4/CapSense_1_SMS.c ****     CapSense_1_modulationIDAC,
 123:.\Generated_Source\PSoC4/CapSense_1_SMS.c ****     CapSense_1_compensationIDAC,
 124:.\Generated_Source\PSoC4/CapSense_1_SMS.c ****      SMS_LIB_SensorSensitivity,
 125:.\Generated_Source\PSoC4/CapSense_1_SMS.c ****     CapSense_1_senseClkDividerVal,
 126:.\Generated_Source\PSoC4/CapSense_1_SMS.c ****     CapSense_1_sampleClkDividerVal,
 127:.\Generated_Source\PSoC4/CapSense_1_SMS.c ****     CapSense_1_widgetNumber,
 128:.\Generated_Source\PSoC4/CapSense_1_SMS.c ****     CapSense_1_widgetResolution,
 129:.\Generated_Source\PSoC4/CapSense_1_SMS.c **** 	(const uint8  *)CapSense_1_rawDataIndex,
 130:.\Generated_Source\PSoC4/CapSense_1_SMS.c **** 	(const uint8  *)CapSense_1_numberOfSensors,
 131:.\Generated_Source\PSoC4/CapSense_1_SMS.c ****     &CapSense_1_GetSensorRaw,
 132:.\Generated_Source\PSoC4/CapSense_1_SMS.c ****     &CapSense_1_PreScan,
 133:.\Generated_Source\PSoC4/CapSense_1_SMS.c ****     &CapSense_1_ReadSensorRaw,
 134:.\Generated_Source\PSoC4/CapSense_1_SMS.c ****     &CapSense_1_GetBitValue,
 135:.\Generated_Source\PSoC4/CapSense_1_SMS.c **** 	&CapSense_1_SetBitValue
 136:.\Generated_Source\PSoC4/CapSense_1_SMS.c **** };
 137:.\Generated_Source\PSoC4/CapSense_1_SMS.c **** 
 138:.\Generated_Source\PSoC4/CapSense_1_SMS.c **** 
 139:.\Generated_Source\PSoC4/CapSense_1_SMS.c **** /*******************************************************************************
 140:.\Generated_Source\PSoC4/CapSense_1_SMS.c **** * Function Name: CapSense_1_AutoTune
 141:.\Generated_Source\PSoC4/CapSense_1_SMS.c **** ********************************************************************************
 142:.\Generated_Source\PSoC4/CapSense_1_SMS.c **** *
 143:.\Generated_Source\PSoC4/CapSense_1_SMS.c **** * Summary:
 144:.\Generated_Source\PSoC4/CapSense_1_SMS.c **** *  Provides the tuning procedure for all sensors.
 145:.\Generated_Source\PSoC4/CapSense_1_SMS.c **** *
ARM GAS  C:\Users\Jakob\AppData\Local\Temp\ccdTPtya.s 			page 5


 146:.\Generated_Source\PSoC4/CapSense_1_SMS.c **** * Parameters:
 147:.\Generated_Source\PSoC4/CapSense_1_SMS.c **** *  None
 148:.\Generated_Source\PSoC4/CapSense_1_SMS.c **** *
 149:.\Generated_Source\PSoC4/CapSense_1_SMS.c **** * Return:
 150:.\Generated_Source\PSoC4/CapSense_1_SMS.c **** *  None
 151:.\Generated_Source\PSoC4/CapSense_1_SMS.c **** *
 152:.\Generated_Source\PSoC4/CapSense_1_SMS.c **** * Global Variables:
 153:.\Generated_Source\PSoC4/CapSense_1_SMS.c **** *   CapSense_1_config: the structure which contains configuration parameters
 154:.\Generated_Source\PSoC4/CapSense_1_SMS.c **** *   CapSense_1_senseClkDividerVal[]: used to store the Analog Switch 
 155:.\Generated_Source\PSoC4/CapSense_1_SMS.c **** *   dividers for each sensor.
 156:.\Generated_Source\PSoC4/CapSense_1_SMS.c **** *   CapSense_1_senseClkDividerVal[]: used to store the 
 157:.\Generated_Source\PSoC4/CapSense_1_SMS.c **** *    Analog Switch divider for all sensors.
 158:.\Generated_Source\PSoC4/CapSense_1_SMS.c **** *   CapSense_1_prescalersTuningDone - used to notify the Tuner GUI that 
 159:.\Generated_Source\PSoC4/CapSense_1_SMS.c **** *   the pre-scalers tuning  is done.
 160:.\Generated_Source\PSoC4/CapSense_1_SMS.c **** *
 161:.\Generated_Source\PSoC4/CapSense_1_SMS.c **** * Side Effects:
 162:.\Generated_Source\PSoC4/CapSense_1_SMS.c **** *  None
 163:.\Generated_Source\PSoC4/CapSense_1_SMS.c **** *
 164:.\Generated_Source\PSoC4/CapSense_1_SMS.c **** *******************************************************************************/
 165:.\Generated_Source\PSoC4/CapSense_1_SMS.c **** void CapSense_1_AutoTune(void)
 166:.\Generated_Source\PSoC4/CapSense_1_SMS.c **** {
  84              		.loc 1 166 0
  85              		.cfi_startproc
  86 0000 80B5     		push	{r7, lr}
  87              	.LCFI0:
  88              		.cfi_def_cfa_offset 8
  89              		.cfi_offset 7, -8
  90              		.cfi_offset 14, -4
  91 0002 82B0     		sub	sp, sp, #8
  92              	.LCFI1:
  93              		.cfi_def_cfa_offset 16
  94 0004 00AF     		add	r7, sp, #0
  95              	.LCFI2:
  96              		.cfi_def_cfa_register 7
 167:.\Generated_Source\PSoC4/CapSense_1_SMS.c **** 	uint32 curSensor;
 168:.\Generated_Source\PSoC4/CapSense_1_SMS.c ****     uint32 widget;
 169:.\Generated_Source\PSoC4/CapSense_1_SMS.c **** 
 170:.\Generated_Source\PSoC4/CapSense_1_SMS.c **** 	CapSense_1_config.totalScanslotsNum = CapSense_1_TOTAL_SCANSLOT_COUNT;
  97              		.loc 1 170 0
  98 0006 364B     		ldr	r3, .L8
  99 0008 0122     		mov	r2, #1
 100 000a 1A70     		strb	r2, [r3]
 171:.\Generated_Source\PSoC4/CapSense_1_SMS.c **** 	CapSense_1_config.totalWidgetsNum = CapSense_1_END_OF_WIDGETS_INDEX;
 101              		.loc 1 171 0
 102 000c 344B     		ldr	r3, .L8
 103 000e 0122     		mov	r2, #1
 104 0010 5A70     		strb	r2, [r3, #1]
 172:.\Generated_Source\PSoC4/CapSense_1_SMS.c **** 	CapSense_1_config.totalSensorsNum = CapSense_1_TOTAL_SENSOR_COUNT;
 105              		.loc 1 172 0
 106 0012 334B     		ldr	r3, .L8
 107 0014 0122     		mov	r2, #1
 108 0016 9A70     		strb	r2, [r3, #2]
 173:.\Generated_Source\PSoC4/CapSense_1_SMS.c **** 	
 174:.\Generated_Source\PSoC4/CapSense_1_SMS.c **** 	CapSense_1_config.hfclkFreq_MHz = CYDEV_BCLK__HFCLK__MHZ;
 109              		.loc 1 174 0
 110 0018 314B     		ldr	r3, .L8
 111 001a 1822     		mov	r2, #24
ARM GAS  C:\Users\Jakob\AppData\Local\Temp\ccdTPtya.s 			page 6


 112 001c DA80     		strh	r2, [r3, #6]
 175:.\Generated_Source\PSoC4/CapSense_1_SMS.c **** 	CapSense_1_config.sensetivitySeed = CapSense_1_SENSETIVITY_FACTOR;
 113              		.loc 1 175 0
 114 001e 304B     		ldr	r3, .L8
 115 0020 304A     		ldr	r2, .L8+4
 116 0022 9A80     		strh	r2, [r3, #4]
 176:.\Generated_Source\PSoC4/CapSense_1_SMS.c **** 	
 177:.\Generated_Source\PSoC4/CapSense_1_SMS.c ****     CapSense_1_config.pointers = &CapSense_1_configPointers;       
 117              		.loc 1 177 0
 118 0024 2E4B     		ldr	r3, .L8
 119 0026 304A     		ldr	r2, .L8+8
 120 0028 9A60     		str	r2, [r3, #8]
 178:.\Generated_Source\PSoC4/CapSense_1_SMS.c ****     
 179:.\Generated_Source\PSoC4/CapSense_1_SMS.c **** 	CapSense_1_SetAnalogSwitchesSrcDirect();
 121              		.loc 1 179 0
 122 002a FFF7FEFF 		bl	CapSense_1_SetAnalogSwitchesSrcDirect
 180:.\Generated_Source\PSoC4/CapSense_1_SMS.c ****     
 181:.\Generated_Source\PSoC4/CapSense_1_SMS.c ****     for(widget = 0u; widget < CapSense_1_config.totalWidgetsNum; widget++)
 123              		.loc 1 181 0
 124 002e 0023     		mov	r3, #0
 125 0030 3B60     		str	r3, [r7]
 126 0032 07E0     		b	.L2
 127              	.L3:
 182:.\Generated_Source\PSoC4/CapSense_1_SMS.c ****     {
 183:.\Generated_Source\PSoC4/CapSense_1_SMS.c ****         CapSense_1_widgetResolution[widget] = CapSense_1_CALIBRATION_RESOLUTION;
 128              		.loc 1 183 0 discriminator 2
 129 0034 2D4B     		ldr	r3, .L8+12
 130 0036 3A68     		ldr	r2, [r7]
 131 0038 9200     		lsl	r2, r2, #2
 132 003a 2D49     		ldr	r1, .L8+16
 133 003c D150     		str	r1, [r2, r3]
 181:.\Generated_Source\PSoC4/CapSense_1_SMS.c ****     for(widget = 0u; widget < CapSense_1_config.totalWidgetsNum; widget++)
 134              		.loc 1 181 0 discriminator 2
 135 003e 3B68     		ldr	r3, [r7]
 136 0040 0133     		add	r3, r3, #1
 137 0042 3B60     		str	r3, [r7]
 138              	.L2:
 181:.\Generated_Source\PSoC4/CapSense_1_SMS.c ****     for(widget = 0u; widget < CapSense_1_config.totalWidgetsNum; widget++)
 139              		.loc 1 181 0 is_stmt 0 discriminator 1
 140 0044 264B     		ldr	r3, .L8
 141 0046 5B78     		ldrb	r3, [r3, #1]
 142 0048 1A1C     		mov	r2, r3
 143 004a 3B68     		ldr	r3, [r7]
 144 004c 9A42     		cmp	r2, r3
 145 004e F1D8     		bhi	.L3
 184:.\Generated_Source\PSoC4/CapSense_1_SMS.c ****     }
 185:.\Generated_Source\PSoC4/CapSense_1_SMS.c **** 	
 186:.\Generated_Source\PSoC4/CapSense_1_SMS.c **** 
 187:.\Generated_Source\PSoC4/CapSense_1_SMS.c **** 	for(curSensor = 0u; curSensor < CapSense_1_TOTAL_SCANSLOT_COUNT; curSensor++)
 146              		.loc 1 187 0 is_stmt 1
 147 0050 0023     		mov	r3, #0
 148 0052 7B60     		str	r3, [r7, #4]
 149 0054 0CE0     		b	.L4
 150              	.L5:
 188:.\Generated_Source\PSoC4/CapSense_1_SMS.c ****     {
 189:.\Generated_Source\PSoC4/CapSense_1_SMS.c **** 		CapSense_1_senseClkDividerVal[curSensor] = CapSense_1_CALIBRATION_ASD;
 151              		.loc 1 189 0 discriminator 2
ARM GAS  C:\Users\Jakob\AppData\Local\Temp\ccdTPtya.s 			page 7


 152 0056 274A     		ldr	r2, .L8+20
 153 0058 7B68     		ldr	r3, [r7, #4]
 154 005a D318     		add	r3, r2, r3
 155 005c 0422     		mov	r2, #4
 156 005e 1A70     		strb	r2, [r3]
 190:.\Generated_Source\PSoC4/CapSense_1_SMS.c **** 		CapSense_1_sampleClkDividerVal[curSensor] = CapSense_1_CALIBRATION_MD;
 157              		.loc 1 190 0 discriminator 2
 158 0060 254A     		ldr	r2, .L8+24
 159 0062 7B68     		ldr	r3, [r7, #4]
 160 0064 D318     		add	r3, r2, r3
 161 0066 0222     		mov	r2, #2
 162 0068 1A70     		strb	r2, [r3]
 187:.\Generated_Source\PSoC4/CapSense_1_SMS.c **** 	for(curSensor = 0u; curSensor < CapSense_1_TOTAL_SCANSLOT_COUNT; curSensor++)
 163              		.loc 1 187 0 discriminator 2
 164 006a 7B68     		ldr	r3, [r7, #4]
 165 006c 0133     		add	r3, r3, #1
 166 006e 7B60     		str	r3, [r7, #4]
 167              	.L4:
 187:.\Generated_Source\PSoC4/CapSense_1_SMS.c **** 	for(curSensor = 0u; curSensor < CapSense_1_TOTAL_SCANSLOT_COUNT; curSensor++)
 168              		.loc 1 187 0 is_stmt 0 discriminator 1
 169 0070 7B68     		ldr	r3, [r7, #4]
 170 0072 002B     		cmp	r3, #0
 171 0074 EFD0     		beq	.L5
 191:.\Generated_Source\PSoC4/CapSense_1_SMS.c **** 	}
 192:.\Generated_Source\PSoC4/CapSense_1_SMS.c ****     
 193:.\Generated_Source\PSoC4/CapSense_1_SMS.c ****     CapSense_1_DisableBaselineIDAC();
 172              		.loc 1 193 0 is_stmt 1
 173 0076 FFF7FEFF 		bl	CapSense_1_DisableBaselineIDAC
 194:.\Generated_Source\PSoC4/CapSense_1_SMS.c **** 
 195:.\Generated_Source\PSoC4/CapSense_1_SMS.c ****     CalibrateSensors_P4_v2_0(&CapSense_1_config, CapSense_1_CAL_RAW_COUNT);
 174              		.loc 1 195 0
 175 007a 194A     		ldr	r2, .L8
 176 007c 1F4B     		ldr	r3, .L8+28
 177 007e 101C     		mov	r0, r2
 178 0080 191C     		mov	r1, r3
 179 0082 FFF7FEFF 		bl	CalibrateSensors_P4_v2_0
 196:.\Generated_Source\PSoC4/CapSense_1_SMS.c **** 	CapSense_1_NormalizeWidgets(CapSense_1_END_OF_WIDGETS_INDEX, CapSense_1_modulationIDAC);
 180              		.loc 1 196 0
 181 0086 1E4B     		ldr	r3, .L8+32
 182 0088 0120     		mov	r0, #1
 183 008a 191C     		mov	r1, r3
 184 008c FFF7FEFF 		bl	CapSense_1_NormalizeWidgets
 197:.\Generated_Source\PSoC4/CapSense_1_SMS.c **** 	
 198:.\Generated_Source\PSoC4/CapSense_1_SMS.c ****     TunePrescalers_P4_v2_0(&CapSense_1_config);
 185              		.loc 1 198 0
 186 0090 134B     		ldr	r3, .L8
 187 0092 181C     		mov	r0, r3
 188 0094 FFF7FEFF 		bl	TunePrescalers_P4_v2_0
 199:.\Generated_Source\PSoC4/CapSense_1_SMS.c **** 	
 200:.\Generated_Source\PSoC4/CapSense_1_SMS.c **** 	#if(CapSense_1_PRS_OPTIONS != CapSense_1__PRS_NONE)
 201:.\Generated_Source\PSoC4/CapSense_1_SMS.c **** 		CapSense_1_prescalersTuningDone = 1u;
 202:.\Generated_Source\PSoC4/CapSense_1_SMS.c **** 	#endif /* (CapSense_1_PRS_OPTIONS == CapSense_1__PRS_NONE) */
 203:.\Generated_Source\PSoC4/CapSense_1_SMS.c ****        
 204:.\Generated_Source\PSoC4/CapSense_1_SMS.c ****     CalibrateSensors_P4_v2_0(&CapSense_1_config, CapSense_1_CAL_RAW_COUNT);
 189              		.loc 1 204 0
 190 0098 114A     		ldr	r2, .L8
 191 009a 184B     		ldr	r3, .L8+28
ARM GAS  C:\Users\Jakob\AppData\Local\Temp\ccdTPtya.s 			page 8


 192 009c 101C     		mov	r0, r2
 193 009e 191C     		mov	r1, r3
 194 00a0 FFF7FEFF 		bl	CalibrateSensors_P4_v2_0
 205:.\Generated_Source\PSoC4/CapSense_1_SMS.c **** 	CapSense_1_NormalizeWidgets(CapSense_1_END_OF_WIDGETS_INDEX, CapSense_1_modulationIDAC);
 195              		.loc 1 205 0
 196 00a4 164B     		ldr	r3, .L8+32
 197 00a6 0120     		mov	r0, #1
 198 00a8 191C     		mov	r1, r3
 199 00aa FFF7FEFF 		bl	CapSense_1_NormalizeWidgets
 206:.\Generated_Source\PSoC4/CapSense_1_SMS.c ****     TuneSensitivity_P4_v2_0(&CapSense_1_config);
 200              		.loc 1 206 0
 201 00ae 0C4B     		ldr	r3, .L8
 202 00b0 181C     		mov	r0, r3
 203 00b2 FFF7FEFF 		bl	TuneSensitivity_P4_v2_0
 207:.\Generated_Source\PSoC4/CapSense_1_SMS.c **** 	
 208:.\Generated_Source\PSoC4/CapSense_1_SMS.c **** 	CapSense_1_EnableBaselineIDAC(&CapSense_1_config);
 204              		.loc 1 208 0
 205 00b6 0A4B     		ldr	r3, .L8
 206 00b8 181C     		mov	r0, r3
 207 00ba FFF7FEFF 		bl	CapSense_1_EnableBaselineIDAC
 209:.\Generated_Source\PSoC4/CapSense_1_SMS.c ****     
 210:.\Generated_Source\PSoC4/CapSense_1_SMS.c ****     for(curSensor = 0u; curSensor < CapSense_1_TOTAL_SCANSLOT_COUNT; curSensor++)
 208              		.loc 1 210 0
 209 00be 0023     		mov	r3, #0
 210 00c0 7B60     		str	r3, [r7, #4]
 211 00c2 06E0     		b	.L6
 212              	.L7:
 211:.\Generated_Source\PSoC4/CapSense_1_SMS.c ****     {
 212:.\Generated_Source\PSoC4/CapSense_1_SMS.c ****         CapSense_1_UpdateThresholds(curSensor);
 213              		.loc 1 212 0 discriminator 2
 214 00c4 7B68     		ldr	r3, [r7, #4]
 215 00c6 181C     		mov	r0, r3
 216 00c8 FFF7FEFF 		bl	CapSense_1_UpdateThresholds
 210:.\Generated_Source\PSoC4/CapSense_1_SMS.c ****     for(curSensor = 0u; curSensor < CapSense_1_TOTAL_SCANSLOT_COUNT; curSensor++)
 217              		.loc 1 210 0 discriminator 2
 218 00cc 7B68     		ldr	r3, [r7, #4]
 219 00ce 0133     		add	r3, r3, #1
 220 00d0 7B60     		str	r3, [r7, #4]
 221              	.L6:
 210:.\Generated_Source\PSoC4/CapSense_1_SMS.c ****     for(curSensor = 0u; curSensor < CapSense_1_TOTAL_SCANSLOT_COUNT; curSensor++)
 222              		.loc 1 210 0 is_stmt 0 discriminator 1
 223 00d2 7B68     		ldr	r3, [r7, #4]
 224 00d4 002B     		cmp	r3, #0
 225 00d6 F5D0     		beq	.L7
 213:.\Generated_Source\PSoC4/CapSense_1_SMS.c ****     }
 214:.\Generated_Source\PSoC4/CapSense_1_SMS.c **** }
 226              		.loc 1 214 0 is_stmt 1
 227 00d8 BD46     		mov	sp, r7
 228 00da 02B0     		add	sp, sp, #8
 229              		@ sp needed for prologue
 230 00dc 80BD     		pop	{r7, pc}
 231              	.L9:
 232 00de C046     		.align	2
 233              	.L8:
 234 00e0 00000000 		.word	CapSense_1_config
 235 00e4 CC040000 		.word	1228
 236 00e8 00000000 		.word	CapSense_1_configPointers
ARM GAS  C:\Users\Jakob\AppData\Local\Temp\ccdTPtya.s 			page 9


 237 00ec 00000000 		.word	CapSense_1_widgetResolution
 238 00f0 0000FF0F 		.word	268369920
 239 00f4 00000000 		.word	CapSense_1_senseClkDividerVal
 240 00f8 00000000 		.word	CapSense_1_sampleClkDividerVal
 241 00fc 9A0D0000 		.word	3482
 242 0100 00000000 		.word	CapSense_1_modulationIDAC
 243              		.cfi_endproc
 244              	.LFE33:
 245              		.size	CapSense_1_AutoTune, .-CapSense_1_AutoTune
 246              		.section	.text.CapSense_1_UpdateThresholds,"ax",%progbits
 247              		.align	2
 248              		.global	CapSense_1_UpdateThresholds
 249              		.code	16
 250              		.thumb_func
 251              		.type	CapSense_1_UpdateThresholds, %function
 252              	CapSense_1_UpdateThresholds:
 253              	.LFB34:
 215:.\Generated_Source\PSoC4/CapSense_1_SMS.c **** 
 216:.\Generated_Source\PSoC4/CapSense_1_SMS.c **** 
 217:.\Generated_Source\PSoC4/CapSense_1_SMS.c **** /*******************************************************************************
 218:.\Generated_Source\PSoC4/CapSense_1_SMS.c **** * Function Name: CapSense_1_UpdateThresholds
 219:.\Generated_Source\PSoC4/CapSense_1_SMS.c **** ********************************************************************************
 220:.\Generated_Source\PSoC4/CapSense_1_SMS.c **** *
 221:.\Generated_Source\PSoC4/CapSense_1_SMS.c **** * Summary:
 222:.\Generated_Source\PSoC4/CapSense_1_SMS.c **** *  The API updates the Finger Threshold, Hysteresis, Noise Threshold, and 
 223:.\Generated_Source\PSoC4/CapSense_1_SMS.c **** *  Negative Noise Threshold in the AutoTuning (Smartsense) Mode.
 224:.\Generated_Source\PSoC4/CapSense_1_SMS.c **** *
 225:.\Generated_Source\PSoC4/CapSense_1_SMS.c **** * Parameters:
 226:.\Generated_Source\PSoC4/CapSense_1_SMS.c **** *  sensor: sensor number.
 227:.\Generated_Source\PSoC4/CapSense_1_SMS.c **** *
 228:.\Generated_Source\PSoC4/CapSense_1_SMS.c **** * Return:
 229:.\Generated_Source\PSoC4/CapSense_1_SMS.c **** *  None
 230:.\Generated_Source\PSoC4/CapSense_1_SMS.c **** *
 231:.\Generated_Source\PSoC4/CapSense_1_SMS.c **** * Global Variables:
 232:.\Generated_Source\PSoC4/CapSense_1_SMS.c **** *  CapSense_1_widgetNumber[] - contains widget Number for given sensor.
 233:.\Generated_Source\PSoC4/CapSense_1_SMS.c **** *  0 through 7 (sensor 0 is bit 0, sensor 1 is bit 1).
 234:.\Generated_Source\PSoC4/CapSense_1_SMS.c **** *  For other sensors the array element equals to 255. 
 235:.\Generated_Source\PSoC4/CapSense_1_SMS.c **** *  CapSense_1_numberOfSensors[widget] - Number of sensors in the widget.
 236:.\Generated_Source\PSoC4/CapSense_1_SMS.c **** *   CapSense_1_fingerThreshold[] - contains the level of signal for each sensor
 237:.\Generated_Source\PSoC4/CapSense_1_SMS.c **** *   that determines if a finger present on the sensor.
 238:.\Generated_Source\PSoC4/CapSense_1_SMS.c **** *   CapSense_1_negativeNoiseThreshold[] - negative Noise Threshold
 239:.\Generated_Source\PSoC4/CapSense_1_SMS.c **** *   CapSense_1_hysteresis[] - the array with hysteresis values.
 240:.\Generated_Source\PSoC4/CapSense_1_SMS.c **** *
 241:.\Generated_Source\PSoC4/CapSense_1_SMS.c **** * Side Effects:
 242:.\Generated_Source\PSoC4/CapSense_1_SMS.c **** *  None
 243:.\Generated_Source\PSoC4/CapSense_1_SMS.c **** *
 244:.\Generated_Source\PSoC4/CapSense_1_SMS.c **** *******************************************************************************/
 245:.\Generated_Source\PSoC4/CapSense_1_SMS.c **** void CapSense_1_UpdateThresholds(uint32 sensor)
 246:.\Generated_Source\PSoC4/CapSense_1_SMS.c **** {
 254              		.loc 1 246 0
 255              		.cfi_startproc
 256 0000 90B5     		push	{r4, r7, lr}
 257              	.LCFI3:
 258              		.cfi_def_cfa_offset 12
 259              		.cfi_offset 4, -12
 260              		.cfi_offset 7, -8
 261              		.cfi_offset 14, -4
ARM GAS  C:\Users\Jakob\AppData\Local\Temp\ccdTPtya.s 			page 10


 262 0002 87B0     		sub	sp, sp, #28
 263              	.LCFI4:
 264              		.cfi_def_cfa_offset 40
 265 0004 02AF     		add	r7, sp, #8
 266              	.LCFI5:
 267              		.cfi_def_cfa 7, 32
 268 0006 7860     		str	r0, [r7, #4]
 247:.\Generated_Source\PSoC4/CapSense_1_SMS.c **** 	uint8 fingerThreshold;
 248:.\Generated_Source\PSoC4/CapSense_1_SMS.c **** 	uint32 widget;
 249:.\Generated_Source\PSoC4/CapSense_1_SMS.c **** 	
 250:.\Generated_Source\PSoC4/CapSense_1_SMS.c **** 	widget = CapSense_1_widgetNumber[sensor];
 269              		.loc 1 250 0
 270 0008 314A     		ldr	r2, .L16
 271 000a 7B68     		ldr	r3, [r7, #4]
 272 000c D318     		add	r3, r2, r3
 273 000e 1B78     		ldrb	r3, [r3]
 274 0010 FB60     		str	r3, [r7, #12]
 251:.\Generated_Source\PSoC4/CapSense_1_SMS.c **** 
 252:.\Generated_Source\PSoC4/CapSense_1_SMS.c **** 	if(0u != CapSense_1_FLEXIBLE_THRESHOLDS_EN)
 253:.\Generated_Source\PSoC4/CapSense_1_SMS.c **** 	{
 254:.\Generated_Source\PSoC4/CapSense_1_SMS.c **** 	    fingerThreshold = CapSense_1_fingerThreshold[widget];
 255:.\Generated_Source\PSoC4/CapSense_1_SMS.c ****         /* Update Threshold manually (flexible) */   
 256:.\Generated_Source\PSoC4/CapSense_1_SMS.c **** 		CapSense_1_noiseThreshold[widget] = (uint8)(fingerThreshold >> 1u);
 257:.\Generated_Source\PSoC4/CapSense_1_SMS.c **** 		CapSense_1_negativeNoiseThreshold[widget] = (uint8)(fingerThreshold >> 1u);
 258:.\Generated_Source\PSoC4/CapSense_1_SMS.c **** 		CapSense_1_hysteresis[widget] = (uint8)(fingerThreshold >> 3u);
 259:.\Generated_Source\PSoC4/CapSense_1_SMS.c **** 	}
 260:.\Generated_Source\PSoC4/CapSense_1_SMS.c **** 	else
 261:.\Generated_Source\PSoC4/CapSense_1_SMS.c **** 	{
 262:.\Generated_Source\PSoC4/CapSense_1_SMS.c **** 		/* Calculate Finger Threshold and Noise Threshold with Smartsense (automatic) */ 	
 263:.\Generated_Source\PSoC4/CapSense_1_SMS.c **** 		CalculateThresholds_P4_v2_0(&CapSense_1_config, (uint8)sensor, CapSense_1_sensorRaw, (uint8)widge
 275              		.loc 1 263 0
 276 0012 7B68     		ldr	r3, [r7, #4]
 277 0014 D9B2     		uxtb	r1, r3
 278 0016 FB68     		ldr	r3, [r7, #12]
 279 0018 DBB2     		uxtb	r3, r3
 280 001a 2E48     		ldr	r0, .L16+4
 281 001c 2E4A     		ldr	r2, .L16+8
 282 001e 2F4C     		ldr	r4, .L16+12
 283 0020 0094     		str	r4, [sp]
 284 0022 2F4C     		ldr	r4, .L16+16
 285 0024 0194     		str	r4, [sp, #4]
 286 0026 FFF7FEFF 		bl	CalculateThresholds_P4_v2_0
 264:.\Generated_Source\PSoC4/CapSense_1_SMS.c **** 		
 265:.\Generated_Source\PSoC4/CapSense_1_SMS.c **** 	    fingerThreshold = CapSense_1_fingerThreshold[widget];
 287              		.loc 1 265 0
 288 002a 3B1C     		mov	r3, r7
 289 002c 0B33     		add	r3, r3, #11
 290 002e 2B49     		ldr	r1, .L16+12
 291 0030 FA68     		ldr	r2, [r7, #12]
 292 0032 8A18     		add	r2, r1, r2
 293 0034 1278     		ldrb	r2, [r2]
 294 0036 1A70     		strb	r2, [r3]
 266:.\Generated_Source\PSoC4/CapSense_1_SMS.c **** 		
 267:.\Generated_Source\PSoC4/CapSense_1_SMS.c **** 	    /* Update Threshold based on calculated with Smartsense (automatic) */
 268:.\Generated_Source\PSoC4/CapSense_1_SMS.c **** 		CapSense_1_negativeNoiseThreshold[widget] = CapSense_1_noiseThreshold[widget];
 295              		.loc 1 268 0
 296 0038 294A     		ldr	r2, .L16+16
ARM GAS  C:\Users\Jakob\AppData\Local\Temp\ccdTPtya.s 			page 11


 297 003a FB68     		ldr	r3, [r7, #12]
 298 003c D318     		add	r3, r2, r3
 299 003e 1A78     		ldrb	r2, [r3]
 300 0040 2849     		ldr	r1, .L16+20
 301 0042 FB68     		ldr	r3, [r7, #12]
 302 0044 CB18     		add	r3, r1, r3
 303 0046 1A70     		strb	r2, [r3]
 269:.\Generated_Source\PSoC4/CapSense_1_SMS.c ****         
 270:.\Generated_Source\PSoC4/CapSense_1_SMS.c **** 		if(fingerThreshold < CapSense_1_THRESHOLD_1)
 304              		.loc 1 270 0
 305 0048 3B1C     		mov	r3, r7
 306 004a 0B33     		add	r3, r3, #11
 307 004c 1B78     		ldrb	r3, [r3]
 308 004e DB2B     		cmp	r3, #219
 309 0050 09D8     		bhi	.L11
 271:.\Generated_Source\PSoC4/CapSense_1_SMS.c **** 		{
 272:.\Generated_Source\PSoC4/CapSense_1_SMS.c **** 			CapSense_1_hysteresis[widget] = (uint8)(fingerThreshold >> 3u);
 310              		.loc 1 272 0
 311 0052 3B1C     		mov	r3, r7
 312 0054 0B33     		add	r3, r3, #11
 313 0056 1B78     		ldrb	r3, [r3]
 314 0058 DB08     		lsr	r3, r3, #3
 315 005a DAB2     		uxtb	r2, r3
 316 005c 2249     		ldr	r1, .L16+24
 317 005e FB68     		ldr	r3, [r7, #12]
 318 0060 CB18     		add	r3, r1, r3
 319 0062 1A70     		strb	r2, [r3]
 320 0064 31E0     		b	.L10
 321              	.L11:
 273:.\Generated_Source\PSoC4/CapSense_1_SMS.c **** 		}
 274:.\Generated_Source\PSoC4/CapSense_1_SMS.c **** 		else if(fingerThreshold <  CapSense_1_THRESHOLD_2)
 322              		.loc 1 274 0
 323 0066 3B1C     		mov	r3, r7
 324 0068 0B33     		add	r3, r3, #11
 325 006a 1B78     		ldrb	r3, [r3]
 326 006c EC2B     		cmp	r3, #236
 327 006e 09D8     		bhi	.L13
 275:.\Generated_Source\PSoC4/CapSense_1_SMS.c **** 		{
 276:.\Generated_Source\PSoC4/CapSense_1_SMS.c **** 			CapSense_1_hysteresis[widget] = (uint8)(fingerThreshold >> 4u);
 328              		.loc 1 276 0
 329 0070 3B1C     		mov	r3, r7
 330 0072 0B33     		add	r3, r3, #11
 331 0074 1B78     		ldrb	r3, [r3]
 332 0076 1B09     		lsr	r3, r3, #4
 333 0078 DAB2     		uxtb	r2, r3
 334 007a 1B49     		ldr	r1, .L16+24
 335 007c FB68     		ldr	r3, [r7, #12]
 336 007e CB18     		add	r3, r1, r3
 337 0080 1A70     		strb	r2, [r3]
 338 0082 22E0     		b	.L10
 339              	.L13:
 277:.\Generated_Source\PSoC4/CapSense_1_SMS.c **** 		}
 278:.\Generated_Source\PSoC4/CapSense_1_SMS.c **** 		else if(fingerThreshold <  CapSense_1_THRESHOLD_3)
 340              		.loc 1 278 0
 341 0084 3B1C     		mov	r3, r7
 342 0086 0B33     		add	r3, r3, #11
 343 0088 1B78     		ldrb	r3, [r3]
ARM GAS  C:\Users\Jakob\AppData\Local\Temp\ccdTPtya.s 			page 12


 344 008a F42B     		cmp	r3, #244
 345 008c 09D8     		bhi	.L14
 279:.\Generated_Source\PSoC4/CapSense_1_SMS.c **** 		{
 280:.\Generated_Source\PSoC4/CapSense_1_SMS.c **** 			CapSense_1_hysteresis[widget] = (uint8)(fingerThreshold >> 5u);
 346              		.loc 1 280 0
 347 008e 3B1C     		mov	r3, r7
 348 0090 0B33     		add	r3, r3, #11
 349 0092 1B78     		ldrb	r3, [r3]
 350 0094 5B09     		lsr	r3, r3, #5
 351 0096 DAB2     		uxtb	r2, r3
 352 0098 1349     		ldr	r1, .L16+24
 353 009a FB68     		ldr	r3, [r7, #12]
 354 009c CB18     		add	r3, r1, r3
 355 009e 1A70     		strb	r2, [r3]
 356 00a0 13E0     		b	.L10
 357              	.L14:
 281:.\Generated_Source\PSoC4/CapSense_1_SMS.c **** 		}
 282:.\Generated_Source\PSoC4/CapSense_1_SMS.c **** 		else if(fingerThreshold <  CapSense_1_THRESHOLD_4)
 358              		.loc 1 282 0
 359 00a2 3B1C     		mov	r3, r7
 360 00a4 0B33     		add	r3, r3, #11
 361 00a6 1B78     		ldrb	r3, [r3]
 362 00a8 F92B     		cmp	r3, #249
 363 00aa 09D8     		bhi	.L15
 283:.\Generated_Source\PSoC4/CapSense_1_SMS.c **** 		{
 284:.\Generated_Source\PSoC4/CapSense_1_SMS.c **** 			CapSense_1_hysteresis[widget] = (uint8)(fingerThreshold >> 6u);
 364              		.loc 1 284 0
 365 00ac 3B1C     		mov	r3, r7
 366 00ae 0B33     		add	r3, r3, #11
 367 00b0 1B78     		ldrb	r3, [r3]
 368 00b2 9B09     		lsr	r3, r3, #6
 369 00b4 DAB2     		uxtb	r2, r3
 370 00b6 0C49     		ldr	r1, .L16+24
 371 00b8 FB68     		ldr	r3, [r7, #12]
 372 00ba CB18     		add	r3, r1, r3
 373 00bc 1A70     		strb	r2, [r3]
 374 00be 04E0     		b	.L10
 375              	.L15:
 285:.\Generated_Source\PSoC4/CapSense_1_SMS.c **** 		}
 286:.\Generated_Source\PSoC4/CapSense_1_SMS.c **** 		else
 287:.\Generated_Source\PSoC4/CapSense_1_SMS.c **** 		{
 288:.\Generated_Source\PSoC4/CapSense_1_SMS.c **** 			CapSense_1_hysteresis[widget] = 0u;
 376              		.loc 1 288 0
 377 00c0 094A     		ldr	r2, .L16+24
 378 00c2 FB68     		ldr	r3, [r7, #12]
 379 00c4 D318     		add	r3, r2, r3
 380 00c6 0022     		mov	r2, #0
 381 00c8 1A70     		strb	r2, [r3]
 382              	.L10:
 289:.\Generated_Source\PSoC4/CapSense_1_SMS.c **** 		}
 290:.\Generated_Source\PSoC4/CapSense_1_SMS.c **** 	}
 291:.\Generated_Source\PSoC4/CapSense_1_SMS.c **** }
 383              		.loc 1 291 0
 384 00ca BD46     		mov	sp, r7
 385 00cc 05B0     		add	sp, sp, #20
 386              		@ sp needed for prologue
 387 00ce 90BD     		pop	{r4, r7, pc}
ARM GAS  C:\Users\Jakob\AppData\Local\Temp\ccdTPtya.s 			page 13


 388              	.L17:
 389              		.align	2
 390              	.L16:
 391 00d0 00000000 		.word	CapSense_1_widgetNumber
 392 00d4 00000000 		.word	CapSense_1_config
 393 00d8 00000000 		.word	CapSense_1_sensorRaw
 394 00dc 00000000 		.word	CapSense_1_fingerThreshold
 395 00e0 00000000 		.word	CapSense_1_noiseThreshold
 396 00e4 00000000 		.word	CapSense_1_negativeNoiseThreshold
 397 00e8 00000000 		.word	CapSense_1_hysteresis
 398              		.cfi_endproc
 399              	.LFE34:
 400              		.size	CapSense_1_UpdateThresholds, .-CapSense_1_UpdateThresholds
 401              		.section	.text.CapSense_1_NormalizeWidgets,"ax",%progbits
 402              		.align	2
 403              		.global	CapSense_1_NormalizeWidgets
 404              		.code	16
 405              		.thumb_func
 406              		.type	CapSense_1_NormalizeWidgets, %function
 407              	CapSense_1_NormalizeWidgets:
 408              	.LFB35:
 292:.\Generated_Source\PSoC4/CapSense_1_SMS.c **** 
 293:.\Generated_Source\PSoC4/CapSense_1_SMS.c **** 
 294:.\Generated_Source\PSoC4/CapSense_1_SMS.c **** /*******************************************************************************
 295:.\Generated_Source\PSoC4/CapSense_1_SMS.c **** * Function Name: CapSense_1_NormalizeWidgets
 296:.\Generated_Source\PSoC4/CapSense_1_SMS.c **** ********************************************************************************
 297:.\Generated_Source\PSoC4/CapSense_1_SMS.c **** *
 298:.\Generated_Source\PSoC4/CapSense_1_SMS.c **** * Summary:
 299:.\Generated_Source\PSoC4/CapSense_1_SMS.c **** *  This API aligns all the parameters of the widget to the maximum parameter.
 300:.\Generated_Source\PSoC4/CapSense_1_SMS.c **** *
 301:.\Generated_Source\PSoC4/CapSense_1_SMS.c **** * Parameters:
 302:.\Generated_Source\PSoC4/CapSense_1_SMS.c **** *  uint32 widgetsNum: Number of widgets.
 303:.\Generated_Source\PSoC4/CapSense_1_SMS.c **** *  uint8 *datsPrt: pointer ro array with widget parameters.	
 304:.\Generated_Source\PSoC4/CapSense_1_SMS.c **** *
 305:.\Generated_Source\PSoC4/CapSense_1_SMS.c **** * Return:
 306:.\Generated_Source\PSoC4/CapSense_1_SMS.c **** *  None
 307:.\Generated_Source\PSoC4/CapSense_1_SMS.c **** *
 308:.\Generated_Source\PSoC4/CapSense_1_SMS.c **** * Global Variables:
 309:.\Generated_Source\PSoC4/CapSense_1_SMS.c **** *  CapSense_1_numberOfSensors[] - Number of sensors in the widget.
 310:.\Generated_Source\PSoC4/CapSense_1_SMS.c **** *  CapSense_1_rawDataIndex[currentWidget] - Contains the  1st sensor
 311:.\Generated_Source\PSoC4/CapSense_1_SMS.c **** *  position in the widget.
 312:.\Generated_Source\PSoC4/CapSense_1_SMS.c **** *
 313:.\Generated_Source\PSoC4/CapSense_1_SMS.c **** * Side Effects:
 314:.\Generated_Source\PSoC4/CapSense_1_SMS.c **** *  None
 315:.\Generated_Source\PSoC4/CapSense_1_SMS.c **** *
 316:.\Generated_Source\PSoC4/CapSense_1_SMS.c **** *******************************************************************************/
 317:.\Generated_Source\PSoC4/CapSense_1_SMS.c **** void CapSense_1_NormalizeWidgets(uint32 widgetsNum, uint8 *dataPtr)
 318:.\Generated_Source\PSoC4/CapSense_1_SMS.c **** {
 409              		.loc 1 318 0
 410              		.cfi_startproc
 411 0000 80B5     		push	{r7, lr}
 412              	.LCFI6:
 413              		.cfi_def_cfa_offset 8
 414              		.cfi_offset 7, -8
 415              		.cfi_offset 14, -4
 416 0002 88B0     		sub	sp, sp, #32
 417              	.LCFI7:
ARM GAS  C:\Users\Jakob\AppData\Local\Temp\ccdTPtya.s 			page 14


 418              		.cfi_def_cfa_offset 40
 419 0004 00AF     		add	r7, sp, #0
 420              	.LCFI8:
 421              		.cfi_def_cfa_register 7
 422 0006 7860     		str	r0, [r7, #4]
 423 0008 3960     		str	r1, [r7]
 319:.\Generated_Source\PSoC4/CapSense_1_SMS.c **** 	uint32 currentWidget;
 320:.\Generated_Source\PSoC4/CapSense_1_SMS.c **** 	uint32 currentSensor;
 321:.\Generated_Source\PSoC4/CapSense_1_SMS.c **** 	uint32 lastSensor;
 322:.\Generated_Source\PSoC4/CapSense_1_SMS.c **** 	uint32 sensorsPerWidget;
 323:.\Generated_Source\PSoC4/CapSense_1_SMS.c **** 	uint32 maxPerWidget;
 324:.\Generated_Source\PSoC4/CapSense_1_SMS.c **** 
 325:.\Generated_Source\PSoC4/CapSense_1_SMS.c **** 	for(currentWidget = 0u; currentWidget < widgetsNum; currentWidget++)
 424              		.loc 1 325 0
 425 000a 0023     		mov	r3, #0
 426 000c FB61     		str	r3, [r7, #28]
 427 000e 3AE0     		b	.L19
 428              	.L25:
 326:.\Generated_Source\PSoC4/CapSense_1_SMS.c **** 	{
 327:.\Generated_Source\PSoC4/CapSense_1_SMS.c **** 		maxPerWidget = 0u;
 429              		.loc 1 327 0
 430 0010 0023     		mov	r3, #0
 431 0012 7B61     		str	r3, [r7, #20]
 328:.\Generated_Source\PSoC4/CapSense_1_SMS.c **** 		
 329:.\Generated_Source\PSoC4/CapSense_1_SMS.c **** 		sensorsPerWidget = CapSense_1_numberOfSensors[currentWidget];
 432              		.loc 1 329 0
 433 0014 1F4A     		ldr	r2, .L26
 434 0016 FB69     		ldr	r3, [r7, #28]
 435 0018 D318     		add	r3, r2, r3
 436 001a 1B78     		ldrb	r3, [r3]
 437 001c 3B61     		str	r3, [r7, #16]
 330:.\Generated_Source\PSoC4/CapSense_1_SMS.c **** 		currentSensor = CapSense_1_rawDataIndex[currentWidget];
 438              		.loc 1 330 0
 439 001e 1E4A     		ldr	r2, .L26+4
 440 0020 FB69     		ldr	r3, [r7, #28]
 441 0022 D318     		add	r3, r2, r3
 442 0024 1B78     		ldrb	r3, [r3]
 443 0026 BB61     		str	r3, [r7, #24]
 331:.\Generated_Source\PSoC4/CapSense_1_SMS.c **** 		lastSensor = currentSensor + sensorsPerWidget;
 444              		.loc 1 331 0
 445 0028 BA69     		ldr	r2, [r7, #24]
 446 002a 3B69     		ldr	r3, [r7, #16]
 447 002c D318     		add	r3, r2, r3
 448 002e FB60     		str	r3, [r7, #12]
 332:.\Generated_Source\PSoC4/CapSense_1_SMS.c **** 		
 333:.\Generated_Source\PSoC4/CapSense_1_SMS.c **** 		while(currentSensor < lastSensor)
 449              		.loc 1 333 0
 450 0030 0FE0     		b	.L20
 451              	.L22:
 334:.\Generated_Source\PSoC4/CapSense_1_SMS.c **** 		{
 335:.\Generated_Source\PSoC4/CapSense_1_SMS.c **** 			if(maxPerWidget < dataPtr[currentSensor])
 452              		.loc 1 335 0
 453 0032 3A68     		ldr	r2, [r7]
 454 0034 BB69     		ldr	r3, [r7, #24]
 455 0036 D318     		add	r3, r2, r3
 456 0038 1B78     		ldrb	r3, [r3]
 457 003a 1A1C     		mov	r2, r3
ARM GAS  C:\Users\Jakob\AppData\Local\Temp\ccdTPtya.s 			page 15


 458 003c 7B69     		ldr	r3, [r7, #20]
 459 003e 9A42     		cmp	r2, r3
 460 0040 04D9     		bls	.L21
 336:.\Generated_Source\PSoC4/CapSense_1_SMS.c **** 			{
 337:.\Generated_Source\PSoC4/CapSense_1_SMS.c **** 				maxPerWidget = dataPtr[currentSensor];
 461              		.loc 1 337 0
 462 0042 3A68     		ldr	r2, [r7]
 463 0044 BB69     		ldr	r3, [r7, #24]
 464 0046 D318     		add	r3, r2, r3
 465 0048 1B78     		ldrb	r3, [r3]
 466 004a 7B61     		str	r3, [r7, #20]
 467              	.L21:
 338:.\Generated_Source\PSoC4/CapSense_1_SMS.c **** 			}
 339:.\Generated_Source\PSoC4/CapSense_1_SMS.c **** 			currentSensor++;
 468              		.loc 1 339 0
 469 004c BB69     		ldr	r3, [r7, #24]
 470 004e 0133     		add	r3, r3, #1
 471 0050 BB61     		str	r3, [r7, #24]
 472              	.L20:
 333:.\Generated_Source\PSoC4/CapSense_1_SMS.c **** 		while(currentSensor < lastSensor)
 473              		.loc 1 333 0 discriminator 1
 474 0052 BA69     		ldr	r2, [r7, #24]
 475 0054 FB68     		ldr	r3, [r7, #12]
 476 0056 9A42     		cmp	r2, r3
 477 0058 EBD3     		bcc	.L22
 340:.\Generated_Source\PSoC4/CapSense_1_SMS.c **** 		}
 341:.\Generated_Source\PSoC4/CapSense_1_SMS.c **** 		
 342:.\Generated_Source\PSoC4/CapSense_1_SMS.c **** 		currentSensor = CapSense_1_rawDataIndex[currentWidget];
 478              		.loc 1 342 0
 479 005a 0F4A     		ldr	r2, .L26+4
 480 005c FB69     		ldr	r3, [r7, #28]
 481 005e D318     		add	r3, r2, r3
 482 0060 1B78     		ldrb	r3, [r3]
 483 0062 BB61     		str	r3, [r7, #24]
 343:.\Generated_Source\PSoC4/CapSense_1_SMS.c **** 		
 344:.\Generated_Source\PSoC4/CapSense_1_SMS.c **** 		while(currentSensor < lastSensor)
 484              		.loc 1 344 0
 485 0064 08E0     		b	.L23
 486              	.L24:
 345:.\Generated_Source\PSoC4/CapSense_1_SMS.c **** 		{
 346:.\Generated_Source\PSoC4/CapSense_1_SMS.c **** 			dataPtr[currentSensor] = (uint8)maxPerWidget;
 487              		.loc 1 346 0
 488 0066 3A68     		ldr	r2, [r7]
 489 0068 BB69     		ldr	r3, [r7, #24]
 490 006a D318     		add	r3, r2, r3
 491 006c 7A69     		ldr	r2, [r7, #20]
 492 006e D2B2     		uxtb	r2, r2
 493 0070 1A70     		strb	r2, [r3]
 347:.\Generated_Source\PSoC4/CapSense_1_SMS.c **** 			currentSensor++;
 494              		.loc 1 347 0
 495 0072 BB69     		ldr	r3, [r7, #24]
 496 0074 0133     		add	r3, r3, #1
 497 0076 BB61     		str	r3, [r7, #24]
 498              	.L23:
 344:.\Generated_Source\PSoC4/CapSense_1_SMS.c **** 		while(currentSensor < lastSensor)
 499              		.loc 1 344 0 discriminator 1
 500 0078 BA69     		ldr	r2, [r7, #24]
ARM GAS  C:\Users\Jakob\AppData\Local\Temp\ccdTPtya.s 			page 16


 501 007a FB68     		ldr	r3, [r7, #12]
 502 007c 9A42     		cmp	r2, r3
 503 007e F2D3     		bcc	.L24
 325:.\Generated_Source\PSoC4/CapSense_1_SMS.c **** 	for(currentWidget = 0u; currentWidget < widgetsNum; currentWidget++)
 504              		.loc 1 325 0
 505 0080 FB69     		ldr	r3, [r7, #28]
 506 0082 0133     		add	r3, r3, #1
 507 0084 FB61     		str	r3, [r7, #28]
 508              	.L19:
 325:.\Generated_Source\PSoC4/CapSense_1_SMS.c **** 	for(currentWidget = 0u; currentWidget < widgetsNum; currentWidget++)
 509              		.loc 1 325 0 is_stmt 0 discriminator 1
 510 0086 FA69     		ldr	r2, [r7, #28]
 511 0088 7B68     		ldr	r3, [r7, #4]
 512 008a 9A42     		cmp	r2, r3
 513 008c C0D3     		bcc	.L25
 348:.\Generated_Source\PSoC4/CapSense_1_SMS.c **** 		}
 349:.\Generated_Source\PSoC4/CapSense_1_SMS.c **** 	}
 350:.\Generated_Source\PSoC4/CapSense_1_SMS.c **** }
 514              		.loc 1 350 0 is_stmt 1
 515 008e BD46     		mov	sp, r7
 516 0090 08B0     		add	sp, sp, #32
 517              		@ sp needed for prologue
 518 0092 80BD     		pop	{r7, pc}
 519              	.L27:
 520              		.align	2
 521              	.L26:
 522 0094 00000000 		.word	CapSense_1_numberOfSensors
 523 0098 00000000 		.word	CapSense_1_rawDataIndex
 524              		.cfi_endproc
 525              	.LFE35:
 526              		.size	CapSense_1_NormalizeWidgets, .-CapSense_1_NormalizeWidgets
 527              		.section	.text.CapSense_1_SetAnalogSwitchesSrcDirect,"ax",%progbits
 528              		.align	2
 529              		.global	CapSense_1_SetAnalogSwitchesSrcDirect
 530              		.code	16
 531              		.thumb_func
 532              		.type	CapSense_1_SetAnalogSwitchesSrcDirect, %function
 533              	CapSense_1_SetAnalogSwitchesSrcDirect:
 534              	.LFB36:
 351:.\Generated_Source\PSoC4/CapSense_1_SMS.c **** 
 352:.\Generated_Source\PSoC4/CapSense_1_SMS.c **** /*******************************************************************************
 353:.\Generated_Source\PSoC4/CapSense_1_SMS.c **** * Function Name: CapSense_1_SetAnalogSwitchesSrcDirect
 354:.\Generated_Source\PSoC4/CapSense_1_SMS.c **** ********************************************************************************
 355:.\Generated_Source\PSoC4/CapSense_1_SMS.c **** *
 356:.\Generated_Source\PSoC4/CapSense_1_SMS.c **** * Summary:
 357:.\Generated_Source\PSoC4/CapSense_1_SMS.c **** *  This API switches the charge clock source to prescaler. 
 358:.\Generated_Source\PSoC4/CapSense_1_SMS.c **** *
 359:.\Generated_Source\PSoC4/CapSense_1_SMS.c **** * Parameters:
 360:.\Generated_Source\PSoC4/CapSense_1_SMS.c **** *  None
 361:.\Generated_Source\PSoC4/CapSense_1_SMS.c **** *
 362:.\Generated_Source\PSoC4/CapSense_1_SMS.c **** * Return:
 363:.\Generated_Source\PSoC4/CapSense_1_SMS.c **** *  None
 364:.\Generated_Source\PSoC4/CapSense_1_SMS.c **** *
 365:.\Generated_Source\PSoC4/CapSense_1_SMS.c **** * Global Variables:
 366:.\Generated_Source\PSoC4/CapSense_1_SMS.c **** *  None
 367:.\Generated_Source\PSoC4/CapSense_1_SMS.c **** *
 368:.\Generated_Source\PSoC4/CapSense_1_SMS.c **** * Side Effects:
ARM GAS  C:\Users\Jakob\AppData\Local\Temp\ccdTPtya.s 			page 17


 369:.\Generated_Source\PSoC4/CapSense_1_SMS.c **** *  None
 370:.\Generated_Source\PSoC4/CapSense_1_SMS.c **** *
 371:.\Generated_Source\PSoC4/CapSense_1_SMS.c **** *******************************************************************************/
 372:.\Generated_Source\PSoC4/CapSense_1_SMS.c **** void CapSense_1_SetAnalogSwitchesSrcDirect(void)
 373:.\Generated_Source\PSoC4/CapSense_1_SMS.c **** {
 535              		.loc 1 373 0
 536              		.cfi_startproc
 537 0000 80B5     		push	{r7, lr}
 538              	.LCFI9:
 539              		.cfi_def_cfa_offset 8
 540              		.cfi_offset 7, -8
 541              		.cfi_offset 14, -4
 542 0002 00AF     		add	r7, sp, #0
 543              	.LCFI10:
 544              		.cfi_def_cfa_register 7
 374:.\Generated_Source\PSoC4/CapSense_1_SMS.c **** 	CapSense_1_CSD_CFG_REG &= ~(CapSense_1_CSD_CFG_PRS_SELECT);
 545              		.loc 1 374 0
 546 0004 034B     		ldr	r3, .L29
 547 0006 034A     		ldr	r2, .L29
 548 0008 1268     		ldr	r2, [r2]
 549 000a 4021     		mov	r1, #64
 550 000c 8A43     		bic	r2, r1
 551 000e 1A60     		str	r2, [r3]
 375:.\Generated_Source\PSoC4/CapSense_1_SMS.c **** }
 552              		.loc 1 375 0
 553 0010 BD46     		mov	sp, r7
 554              		@ sp needed for prologue
 555 0012 80BD     		pop	{r7, pc}
 556              	.L30:
 557              		.align	2
 558              	.L29:
 559 0014 04000840 		.word	1074266116
 560              		.cfi_endproc
 561              	.LFE36:
 562              		.size	CapSense_1_SetAnalogSwitchesSrcDirect, .-CapSense_1_SetAnalogSwitchesSrcDirect
 563              		.section	.text.CapSense_1_DisableBaselineIDAC,"ax",%progbits
 564              		.align	2
 565              		.global	CapSense_1_DisableBaselineIDAC
 566              		.code	16
 567              		.thumb_func
 568              		.type	CapSense_1_DisableBaselineIDAC, %function
 569              	CapSense_1_DisableBaselineIDAC:
 570              	.LFB37:
 376:.\Generated_Source\PSoC4/CapSense_1_SMS.c **** 
 377:.\Generated_Source\PSoC4/CapSense_1_SMS.c **** 
 378:.\Generated_Source\PSoC4/CapSense_1_SMS.c **** /*******************************************************************************
 379:.\Generated_Source\PSoC4/CapSense_1_SMS.c **** * Function Name: CapSense_1_DisableBaselineIDAC
 380:.\Generated_Source\PSoC4/CapSense_1_SMS.c **** ********************************************************************************
 381:.\Generated_Source\PSoC4/CapSense_1_SMS.c **** *
 382:.\Generated_Source\PSoC4/CapSense_1_SMS.c **** * Summary:
 383:.\Generated_Source\PSoC4/CapSense_1_SMS.c **** *  The API disables the Compensation IDAC. 
 384:.\Generated_Source\PSoC4/CapSense_1_SMS.c **** *
 385:.\Generated_Source\PSoC4/CapSense_1_SMS.c **** * Parameters:
 386:.\Generated_Source\PSoC4/CapSense_1_SMS.c **** *  None
 387:.\Generated_Source\PSoC4/CapSense_1_SMS.c **** *
 388:.\Generated_Source\PSoC4/CapSense_1_SMS.c **** * Return:
 389:.\Generated_Source\PSoC4/CapSense_1_SMS.c **** *  None
ARM GAS  C:\Users\Jakob\AppData\Local\Temp\ccdTPtya.s 			page 18


 390:.\Generated_Source\PSoC4/CapSense_1_SMS.c **** *
 391:.\Generated_Source\PSoC4/CapSense_1_SMS.c **** * Global Variables:
 392:.\Generated_Source\PSoC4/CapSense_1_SMS.c **** *  None
 393:.\Generated_Source\PSoC4/CapSense_1_SMS.c **** *
 394:.\Generated_Source\PSoC4/CapSense_1_SMS.c **** * Side Effects:
 395:.\Generated_Source\PSoC4/CapSense_1_SMS.c **** *  None
 396:.\Generated_Source\PSoC4/CapSense_1_SMS.c **** *
 397:.\Generated_Source\PSoC4/CapSense_1_SMS.c **** *******************************************************************************/
 398:.\Generated_Source\PSoC4/CapSense_1_SMS.c **** void CapSense_1_DisableBaselineIDAC(void)
 399:.\Generated_Source\PSoC4/CapSense_1_SMS.c **** {
 571              		.loc 1 399 0
 572              		.cfi_startproc
 573 0000 80B5     		push	{r7, lr}
 574              	.LCFI11:
 575              		.cfi_def_cfa_offset 8
 576              		.cfi_offset 7, -8
 577              		.cfi_offset 14, -4
 578 0002 82B0     		sub	sp, sp, #8
 579              	.LCFI12:
 580              		.cfi_def_cfa_offset 16
 581 0004 00AF     		add	r7, sp, #0
 582              	.LCFI13:
 583              		.cfi_def_cfa_register 7
 400:.\Generated_Source\PSoC4/CapSense_1_SMS.c **** 	uint32 newRegValue;
 401:.\Generated_Source\PSoC4/CapSense_1_SMS.c ****     
 402:.\Generated_Source\PSoC4/CapSense_1_SMS.c ****     newRegValue = CapSense_1_CSD_IDAC_REG;
 584              		.loc 1 402 0
 585 0006 094B     		ldr	r3, .L32
 586 0008 1B68     		ldr	r3, [r3]
 587 000a 7B60     		str	r3, [r7, #4]
 403:.\Generated_Source\PSoC4/CapSense_1_SMS.c ****     
 404:.\Generated_Source\PSoC4/CapSense_1_SMS.c ****     newRegValue &= ~(CapSense_1_CSD_IDAC1_MODE_MASK | CapSense_1_CSD_IDAC2_MODE_MASK);
 588              		.loc 1 404 0
 589 000c 7A68     		ldr	r2, [r7, #4]
 590 000e 084B     		ldr	r3, .L32+4
 591 0010 1340     		and	r3, r2
 592 0012 7B60     		str	r3, [r7, #4]
 405:.\Generated_Source\PSoC4/CapSense_1_SMS.c ****     newRegValue |= CapSense_1_CSD_IDAC1_MODE_VARIABLE;
 593              		.loc 1 405 0
 594 0014 7B68     		ldr	r3, [r7, #4]
 595 0016 8022     		mov	r2, #128
 596 0018 9200     		lsl	r2, r2, #2
 597 001a 1343     		orr	r3, r2
 598 001c 7B60     		str	r3, [r7, #4]
 406:.\Generated_Source\PSoC4/CapSense_1_SMS.c ****     
 407:.\Generated_Source\PSoC4/CapSense_1_SMS.c **** 	CapSense_1_CSD_IDAC_REG = newRegValue;
 599              		.loc 1 407 0
 600 001e 034B     		ldr	r3, .L32
 601 0020 7A68     		ldr	r2, [r7, #4]
 602 0022 1A60     		str	r2, [r3]
 408:.\Generated_Source\PSoC4/CapSense_1_SMS.c **** }
 603              		.loc 1 408 0
 604 0024 BD46     		mov	sp, r7
 605 0026 02B0     		add	sp, sp, #8
 606              		@ sp needed for prologue
 607 0028 80BD     		pop	{r7, pc}
 608              	.L33:
ARM GAS  C:\Users\Jakob\AppData\Local\Temp\ccdTPtya.s 			page 19


 609 002a C046     		.align	2
 610              	.L32:
 611 002c 08000840 		.word	1074266120
 612 0030 FFFCFFFC 		.word	-50332417
 613              		.cfi_endproc
 614              	.LFE37:
 615              		.size	CapSense_1_DisableBaselineIDAC, .-CapSense_1_DisableBaselineIDAC
 616              		.section	.text.CapSense_1_EnableBaselineIDAC,"ax",%progbits
 617              		.align	2
 618              		.global	CapSense_1_EnableBaselineIDAC
 619              		.code	16
 620              		.thumb_func
 621              		.type	CapSense_1_EnableBaselineIDAC, %function
 622              	CapSense_1_EnableBaselineIDAC:
 623              	.LFB38:
 409:.\Generated_Source\PSoC4/CapSense_1_SMS.c **** 
 410:.\Generated_Source\PSoC4/CapSense_1_SMS.c **** 
 411:.\Generated_Source\PSoC4/CapSense_1_SMS.c **** /*******************************************************************************
 412:.\Generated_Source\PSoC4/CapSense_1_SMS.c **** * Function Name: CapSense_1_EnableBaselineIDAC
 413:.\Generated_Source\PSoC4/CapSense_1_SMS.c **** ********************************************************************************
 414:.\Generated_Source\PSoC4/CapSense_1_SMS.c **** *
 415:.\Generated_Source\PSoC4/CapSense_1_SMS.c **** * Summary:
 416:.\Generated_Source\PSoC4/CapSense_1_SMS.c **** *  The API enables the Compensation IDAC. 
 417:.\Generated_Source\PSoC4/CapSense_1_SMS.c **** *
 418:.\Generated_Source\PSoC4/CapSense_1_SMS.c **** * Parameters:
 419:.\Generated_Source\PSoC4/CapSense_1_SMS.c **** *  None
 420:.\Generated_Source\PSoC4/CapSense_1_SMS.c **** *
 421:.\Generated_Source\PSoC4/CapSense_1_SMS.c **** * Return:
 422:.\Generated_Source\PSoC4/CapSense_1_SMS.c **** *  None
 423:.\Generated_Source\PSoC4/CapSense_1_SMS.c **** *
 424:.\Generated_Source\PSoC4/CapSense_1_SMS.c **** * Global Variables:
 425:.\Generated_Source\PSoC4/CapSense_1_SMS.c **** *  CapSense_1_compensationIDAC[] - used to store a 7-bit idac value for all the sensors.
 426:.\Generated_Source\PSoC4/CapSense_1_SMS.c **** *
 427:.\Generated_Source\PSoC4/CapSense_1_SMS.c **** * Side Effects:
 428:.\Generated_Source\PSoC4/CapSense_1_SMS.c **** *  None
 429:.\Generated_Source\PSoC4/CapSense_1_SMS.c **** *
 430:.\Generated_Source\PSoC4/CapSense_1_SMS.c **** *******************************************************************************/
 431:.\Generated_Source\PSoC4/CapSense_1_SMS.c **** void  CapSense_1_EnableBaselineIDAC(const CapSense_1_CONFIG_TYPE_P4_v2_0 *config)
 432:.\Generated_Source\PSoC4/CapSense_1_SMS.c **** {
 624              		.loc 1 432 0
 625              		.cfi_startproc
 626 0000 80B5     		push	{r7, lr}
 627              	.LCFI14:
 628              		.cfi_def_cfa_offset 8
 629              		.cfi_offset 7, -8
 630              		.cfi_offset 14, -4
 631 0002 84B0     		sub	sp, sp, #16
 632              	.LCFI15:
 633              		.cfi_def_cfa_offset 24
 634 0004 00AF     		add	r7, sp, #0
 635              	.LCFI16:
 636              		.cfi_def_cfa_register 7
 637 0006 7860     		str	r0, [r7, #4]
 433:.\Generated_Source\PSoC4/CapSense_1_SMS.c ****     uint32 curSensor;
 434:.\Generated_Source\PSoC4/CapSense_1_SMS.c ****     uint32 newRegValue;
 435:.\Generated_Source\PSoC4/CapSense_1_SMS.c **** 
 436:.\Generated_Source\PSoC4/CapSense_1_SMS.c ****     for(curSensor = 0u; curSensor < config->totalScanslotsNum; curSensor++)
ARM GAS  C:\Users\Jakob\AppData\Local\Temp\ccdTPtya.s 			page 20


 638              		.loc 1 436 0
 639 0008 0023     		mov	r3, #0
 640 000a FB60     		str	r3, [r7, #12]
 641 000c 17E0     		b	.L35
 642              	.L36:
 437:.\Generated_Source\PSoC4/CapSense_1_SMS.c ****     {
 438:.\Generated_Source\PSoC4/CapSense_1_SMS.c **** 		CapSense_1_compensationIDAC[curSensor] = CapSense_1_modulationIDAC[curSensor] / 2u;
 643              		.loc 1 438 0 discriminator 2
 644 000e 1A4A     		ldr	r2, .L37
 645 0010 FB68     		ldr	r3, [r7, #12]
 646 0012 D318     		add	r3, r2, r3
 647 0014 1B78     		ldrb	r3, [r3]
 648 0016 5B08     		lsr	r3, r3, #1
 649 0018 DAB2     		uxtb	r2, r3
 650 001a 1849     		ldr	r1, .L37+4
 651 001c FB68     		ldr	r3, [r7, #12]
 652 001e CB18     		add	r3, r1, r3
 653 0020 1A70     		strb	r2, [r3]
 439:.\Generated_Source\PSoC4/CapSense_1_SMS.c **** 	    CapSense_1_modulationIDAC[curSensor] = (CapSense_1_modulationIDAC[curSensor] + 1u) / 2u;
 654              		.loc 1 439 0 discriminator 2
 655 0022 154A     		ldr	r2, .L37
 656 0024 FB68     		ldr	r3, [r7, #12]
 657 0026 D318     		add	r3, r2, r3
 658 0028 1B78     		ldrb	r3, [r3]
 659 002a 0133     		add	r3, r3, #1
 660 002c 5B08     		lsr	r3, r3, #1
 661 002e DAB2     		uxtb	r2, r3
 662 0030 1149     		ldr	r1, .L37
 663 0032 FB68     		ldr	r3, [r7, #12]
 664 0034 CB18     		add	r3, r1, r3
 665 0036 1A70     		strb	r2, [r3]
 436:.\Generated_Source\PSoC4/CapSense_1_SMS.c ****     for(curSensor = 0u; curSensor < config->totalScanslotsNum; curSensor++)
 666              		.loc 1 436 0 discriminator 2
 667 0038 FB68     		ldr	r3, [r7, #12]
 668 003a 0133     		add	r3, r3, #1
 669 003c FB60     		str	r3, [r7, #12]
 670              	.L35:
 436:.\Generated_Source\PSoC4/CapSense_1_SMS.c ****     for(curSensor = 0u; curSensor < config->totalScanslotsNum; curSensor++)
 671              		.loc 1 436 0 is_stmt 0 discriminator 1
 672 003e 7B68     		ldr	r3, [r7, #4]
 673 0040 1B78     		ldrb	r3, [r3]
 674 0042 1A1C     		mov	r2, r3
 675 0044 FB68     		ldr	r3, [r7, #12]
 676 0046 9A42     		cmp	r2, r3
 677 0048 E1D8     		bhi	.L36
 440:.\Generated_Source\PSoC4/CapSense_1_SMS.c ****     }
 441:.\Generated_Source\PSoC4/CapSense_1_SMS.c **** 	
 442:.\Generated_Source\PSoC4/CapSense_1_SMS.c **** 	CyIntDisable(CapSense_1_ISR_NUMBER);
 678              		.loc 1 442 0 is_stmt 1
 679 004a 0F20     		mov	r0, #15
 680 004c FFF7FEFF 		bl	CyIntDisable
 443:.\Generated_Source\PSoC4/CapSense_1_SMS.c **** 	
 444:.\Generated_Source\PSoC4/CapSense_1_SMS.c **** 	newRegValue = CapSense_1_CSD_IDAC_REG;
 681              		.loc 1 444 0
 682 0050 0B4B     		ldr	r3, .L37+8
 683 0052 1B68     		ldr	r3, [r3]
 684 0054 BB60     		str	r3, [r7, #8]
ARM GAS  C:\Users\Jakob\AppData\Local\Temp\ccdTPtya.s 			page 21


 445:.\Generated_Source\PSoC4/CapSense_1_SMS.c ****     newRegValue &= ~(CapSense_1_CSD_IDAC1_MODE_MASK | CapSense_1_CSD_IDAC2_MODE_MASK);
 685              		.loc 1 445 0
 686 0056 BA68     		ldr	r2, [r7, #8]
 687 0058 0A4B     		ldr	r3, .L37+12
 688 005a 1340     		and	r3, r2
 689 005c BB60     		str	r3, [r7, #8]
 446:.\Generated_Source\PSoC4/CapSense_1_SMS.c ****     newRegValue |= (CapSense_1_CSD_IDAC1_MODE_VARIABLE | CapSense_1_CSD_IDAC2_MODE_FIXED);
 690              		.loc 1 446 0
 691 005e BB68     		ldr	r3, [r7, #8]
 692 0060 094A     		ldr	r2, .L37+16
 693 0062 1343     		orr	r3, r2
 694 0064 BB60     		str	r3, [r7, #8]
 447:.\Generated_Source\PSoC4/CapSense_1_SMS.c ****     CapSense_1_CSD_IDAC_REG = newRegValue;
 695              		.loc 1 447 0
 696 0066 064B     		ldr	r3, .L37+8
 697 0068 BA68     		ldr	r2, [r7, #8]
 698 006a 1A60     		str	r2, [r3]
 448:.\Generated_Source\PSoC4/CapSense_1_SMS.c **** 	
 449:.\Generated_Source\PSoC4/CapSense_1_SMS.c **** 	CyIntEnable(CapSense_1_ISR_NUMBER);
 699              		.loc 1 449 0
 700 006c 0F20     		mov	r0, #15
 701 006e FFF7FEFF 		bl	CyIntEnable
 450:.\Generated_Source\PSoC4/CapSense_1_SMS.c **** }
 702              		.loc 1 450 0
 703 0072 BD46     		mov	sp, r7
 704 0074 04B0     		add	sp, sp, #16
 705              		@ sp needed for prologue
 706 0076 80BD     		pop	{r7, pc}
 707              	.L38:
 708              		.align	2
 709              	.L37:
 710 0078 00000000 		.word	CapSense_1_modulationIDAC
 711 007c 00000000 		.word	CapSense_1_compensationIDAC
 712 0080 08000840 		.word	1074266120
 713 0084 FFFCFFFC 		.word	-50332417
 714 0088 00020001 		.word	16777728
 715              		.cfi_endproc
 716              	.LFE38:
 717              		.size	CapSense_1_EnableBaselineIDAC, .-CapSense_1_EnableBaselineIDAC
 718              		.section	.text.CapSense_1_SetSensitivity,"ax",%progbits
 719              		.align	2
 720              		.global	CapSense_1_SetSensitivity
 721              		.code	16
 722              		.thumb_func
 723              		.type	CapSense_1_SetSensitivity, %function
 724              	CapSense_1_SetSensitivity:
 725              	.LFB39:
 451:.\Generated_Source\PSoC4/CapSense_1_SMS.c **** 
 452:.\Generated_Source\PSoC4/CapSense_1_SMS.c **** 
 453:.\Generated_Source\PSoC4/CapSense_1_SMS.c **** /*******************************************************************************
 454:.\Generated_Source\PSoC4/CapSense_1_SMS.c **** * Function Name: CapSense_1_SetSensitivity
 455:.\Generated_Source\PSoC4/CapSense_1_SMS.c **** ********************************************************************************
 456:.\Generated_Source\PSoC4/CapSense_1_SMS.c **** *
 457:.\Generated_Source\PSoC4/CapSense_1_SMS.c **** * Summary:
 458:.\Generated_Source\PSoC4/CapSense_1_SMS.c **** *  This API sets the sensitivity value for the sensor. The sensitivity 
 459:.\Generated_Source\PSoC4/CapSense_1_SMS.c **** *  value is used during the auto-tuning algorithm executed as part of the CapSense_Start API.
 460:.\Generated_Source\PSoC4/CapSense_1_SMS.c **** *  This API is called by the application layer prior to calling the CapSense_Start API. 
ARM GAS  C:\Users\Jakob\AppData\Local\Temp\ccdTPtya.s 			page 22


 461:.\Generated_Source\PSoC4/CapSense_1_SMS.c **** *  Calling this API after execution of CapSense_Start API has no effect. 
 462:.\Generated_Source\PSoC4/CapSense_1_SMS.c **** *
 463:.\Generated_Source\PSoC4/CapSense_1_SMS.c **** * Parameters: 
 464:.\Generated_Source\PSoC4/CapSense_1_SMS.c **** *  sensor  Sensor index 
 465:.\Generated_Source\PSoC4/CapSense_1_SMS.c **** *  data    Sensitivity of the sensor. Possible values are below
 466:.\Generated_Source\PSoC4/CapSense_1_SMS.c **** *  1 - 0.1pf sensitivity
 467:.\Generated_Source\PSoC4/CapSense_1_SMS.c **** *  2 - 0.2pf sensitivity
 468:.\Generated_Source\PSoC4/CapSense_1_SMS.c **** *  3 - 0.3pf sensitivity
 469:.\Generated_Source\PSoC4/CapSense_1_SMS.c **** *  4 - 0.4pf sensitivity
 470:.\Generated_Source\PSoC4/CapSense_1_SMS.c **** *  All other values, set sensitivity to 0.4pf
 471:.\Generated_Source\PSoC4/CapSense_1_SMS.c **** *
 472:.\Generated_Source\PSoC4/CapSense_1_SMS.c **** *  Return Value:
 473:.\Generated_Source\PSoC4/CapSense_1_SMS.c **** *   None
 474:.\Generated_Source\PSoC4/CapSense_1_SMS.c **** *
 475:.\Generated_Source\PSoC4/CapSense_1_SMS.c **** * Global Variables:
 476:.\Generated_Source\PSoC4/CapSense_1_SMS.c **** * SMS_LIB_SensorSensitivity[] - This 8-bits array contains Sensitivity in the LSB nibble
 477:.\Generated_Source\PSoC4/CapSense_1_SMS.c **** *                                and Noise Reset Counter value in the MSB nibble.      
 478:.\Generated_Source\PSoC4/CapSense_1_SMS.c **** *
 479:.\Generated_Source\PSoC4/CapSense_1_SMS.c **** * Side Effects: 
 480:.\Generated_Source\PSoC4/CapSense_1_SMS.c **** *  None
 481:.\Generated_Source\PSoC4/CapSense_1_SMS.c **** *
 482:.\Generated_Source\PSoC4/CapSense_1_SMS.c **** *******************************************************************************/
 483:.\Generated_Source\PSoC4/CapSense_1_SMS.c **** void CapSense_1_SetSensitivity(uint32 sensor, uint32 value)
 484:.\Generated_Source\PSoC4/CapSense_1_SMS.c **** {
 726              		.loc 1 484 0
 727              		.cfi_startproc
 728 0000 80B5     		push	{r7, lr}
 729              	.LCFI17:
 730              		.cfi_def_cfa_offset 8
 731              		.cfi_offset 7, -8
 732              		.cfi_offset 14, -4
 733 0002 82B0     		sub	sp, sp, #8
 734              	.LCFI18:
 735              		.cfi_def_cfa_offset 16
 736 0004 00AF     		add	r7, sp, #0
 737              	.LCFI19:
 738              		.cfi_def_cfa_register 7
 739 0006 7860     		str	r0, [r7, #4]
 740 0008 3960     		str	r1, [r7]
 485:.\Generated_Source\PSoC4/CapSense_1_SMS.c **** 	if(value > 4u)
 741              		.loc 1 485 0
 742 000a 3B68     		ldr	r3, [r7]
 743 000c 042B     		cmp	r3, #4
 744 000e 01D9     		bls	.L40
 486:.\Generated_Source\PSoC4/CapSense_1_SMS.c **** 	{
 487:.\Generated_Source\PSoC4/CapSense_1_SMS.c **** 		value = 4u;
 745              		.loc 1 487 0
 746 0010 0423     		mov	r3, #4
 747 0012 3B60     		str	r3, [r7]
 748              	.L40:
 488:.\Generated_Source\PSoC4/CapSense_1_SMS.c **** 	}
 489:.\Generated_Source\PSoC4/CapSense_1_SMS.c **** 	
 490:.\Generated_Source\PSoC4/CapSense_1_SMS.c ****     /* Clear SensorSensitivity value in LSB nibble */
 491:.\Generated_Source\PSoC4/CapSense_1_SMS.c **** 	SMS_LIB_SensorSensitivity[sensor] &= (uint8)~CapSense_1_SENSITIVITY_MASK;
 749              		.loc 1 491 0
 750 0014 0C4A     		ldr	r2, .L41
 751 0016 7B68     		ldr	r3, [r7, #4]
ARM GAS  C:\Users\Jakob\AppData\Local\Temp\ccdTPtya.s 			page 23


 752 0018 D318     		add	r3, r2, r3
 753 001a 1B78     		ldrb	r3, [r3]
 754 001c 0F22     		mov	r2, #15
 755 001e 9343     		bic	r3, r2
 756 0020 DAB2     		uxtb	r2, r3
 757 0022 0949     		ldr	r1, .L41
 758 0024 7B68     		ldr	r3, [r7, #4]
 759 0026 CB18     		add	r3, r1, r3
 760 0028 1A70     		strb	r2, [r3]
 492:.\Generated_Source\PSoC4/CapSense_1_SMS.c **** 	/* Set SensorSensitivity value in LSB nibble */
 493:.\Generated_Source\PSoC4/CapSense_1_SMS.c **** 	SMS_LIB_SensorSensitivity[sensor] |= (uint8)value;
 761              		.loc 1 493 0
 762 002a 074A     		ldr	r2, .L41
 763 002c 7B68     		ldr	r3, [r7, #4]
 764 002e D318     		add	r3, r2, r3
 765 0030 1A78     		ldrb	r2, [r3]
 766 0032 3B68     		ldr	r3, [r7]
 767 0034 DBB2     		uxtb	r3, r3
 768 0036 1343     		orr	r3, r2
 769 0038 DAB2     		uxtb	r2, r3
 770 003a 0349     		ldr	r1, .L41
 771 003c 7B68     		ldr	r3, [r7, #4]
 772 003e CB18     		add	r3, r1, r3
 773 0040 1A70     		strb	r2, [r3]
 494:.\Generated_Source\PSoC4/CapSense_1_SMS.c **** }
 774              		.loc 1 494 0
 775 0042 BD46     		mov	sp, r7
 776 0044 02B0     		add	sp, sp, #8
 777              		@ sp needed for prologue
 778 0046 80BD     		pop	{r7, pc}
 779              	.L42:
 780              		.align	2
 781              	.L41:
 782 0048 00000000 		.word	SMS_LIB_SensorSensitivity
 783              		.cfi_endproc
 784              	.LFE39:
 785              		.size	CapSense_1_SetSensitivity, .-CapSense_1_SetSensitivity
 786              		.section	.text.CapSense_1_GetSensitivityCoefficient,"ax",%progbits
 787              		.align	2
 788              		.global	CapSense_1_GetSensitivityCoefficient
 789              		.code	16
 790              		.thumb_func
 791              		.type	CapSense_1_GetSensitivityCoefficient, %function
 792              	CapSense_1_GetSensitivityCoefficient:
 793              	.LFB40:
 495:.\Generated_Source\PSoC4/CapSense_1_SMS.c **** 
 496:.\Generated_Source\PSoC4/CapSense_1_SMS.c **** 
 497:.\Generated_Source\PSoC4/CapSense_1_SMS.c **** /*******************************************************************************
 498:.\Generated_Source\PSoC4/CapSense_1_SMS.c **** * Function Name: CapSense_1_GetSensitivityCoefficient
 499:.\Generated_Source\PSoC4/CapSense_1_SMS.c **** ********************************************************************************
 500:.\Generated_Source\PSoC4/CapSense_1_SMS.c **** *
 501:.\Generated_Source\PSoC4/CapSense_1_SMS.c **** * Summary:
 502:.\Generated_Source\PSoC4/CapSense_1_SMS.c **** *  This API returns the K coefficient for the appropriate sensor. 
 503:.\Generated_Source\PSoC4/CapSense_1_SMS.c **** *
 504:.\Generated_Source\PSoC4/CapSense_1_SMS.c **** * Parameters: 
 505:.\Generated_Source\PSoC4/CapSense_1_SMS.c **** *  sensor:  Sensor index 
 506:.\Generated_Source\PSoC4/CapSense_1_SMS.c **** *
ARM GAS  C:\Users\Jakob\AppData\Local\Temp\ccdTPtya.s 			page 24


 507:.\Generated_Source\PSoC4/CapSense_1_SMS.c **** *  Return Value:
 508:.\Generated_Source\PSoC4/CapSense_1_SMS.c **** *   K - value for the appropriate sensor.
 509:.\Generated_Source\PSoC4/CapSense_1_SMS.c **** *
 510:.\Generated_Source\PSoC4/CapSense_1_SMS.c **** * Global Variables:
 511:.\Generated_Source\PSoC4/CapSense_1_SMS.c **** *  kValueTbl[] - This 8-bits array contains the K value for each sensor.
 512:.\Generated_Source\PSoC4/CapSense_1_SMS.c **** *
 513:.\Generated_Source\PSoC4/CapSense_1_SMS.c **** * Side Effects: 
 514:.\Generated_Source\PSoC4/CapSense_1_SMS.c **** *  None
 515:.\Generated_Source\PSoC4/CapSense_1_SMS.c **** *
 516:.\Generated_Source\PSoC4/CapSense_1_SMS.c **** *******************************************************************************/
 517:.\Generated_Source\PSoC4/CapSense_1_SMS.c **** uint8 CapSense_1_GetSensitivityCoefficient(uint32 sensor)
 518:.\Generated_Source\PSoC4/CapSense_1_SMS.c **** {
 794              		.loc 1 518 0
 795              		.cfi_startproc
 796 0000 80B5     		push	{r7, lr}
 797              	.LCFI20:
 798              		.cfi_def_cfa_offset 8
 799              		.cfi_offset 7, -8
 800              		.cfi_offset 14, -4
 801 0002 82B0     		sub	sp, sp, #8
 802              	.LCFI21:
 803              		.cfi_def_cfa_offset 16
 804 0004 00AF     		add	r7, sp, #0
 805              	.LCFI22:
 806              		.cfi_def_cfa_register 7
 807 0006 7860     		str	r0, [r7, #4]
 519:.\Generated_Source\PSoC4/CapSense_1_SMS.c **** 	return (kValueTbl[sensor]);
 808              		.loc 1 519 0
 809 0008 034A     		ldr	r2, .L45
 810 000a 7B68     		ldr	r3, [r7, #4]
 811 000c D318     		add	r3, r2, r3
 812 000e 1B78     		ldrb	r3, [r3]
 520:.\Generated_Source\PSoC4/CapSense_1_SMS.c **** }
 813              		.loc 1 520 0
 814 0010 181C     		mov	r0, r3
 815 0012 BD46     		mov	sp, r7
 816 0014 02B0     		add	sp, sp, #8
 817              		@ sp needed for prologue
 818 0016 80BD     		pop	{r7, pc}
 819              	.L46:
 820              		.align	2
 821              	.L45:
 822 0018 00000000 		.word	kValueTbl
 823              		.cfi_endproc
 824              	.LFE40:
 825              		.size	CapSense_1_GetSensitivityCoefficient, .-CapSense_1_GetSensitivityCoefficient
 826              		.section	.text.CapSense_1_GetNoiseEnvelope,"ax",%progbits
 827              		.align	2
 828              		.global	CapSense_1_GetNoiseEnvelope
 829              		.code	16
 830              		.thumb_func
 831              		.type	CapSense_1_GetNoiseEnvelope, %function
 832              	CapSense_1_GetNoiseEnvelope:
 833              	.LFB41:
 521:.\Generated_Source\PSoC4/CapSense_1_SMS.c **** 
 522:.\Generated_Source\PSoC4/CapSense_1_SMS.c **** 
 523:.\Generated_Source\PSoC4/CapSense_1_SMS.c **** /*******************************************************************************
ARM GAS  C:\Users\Jakob\AppData\Local\Temp\ccdTPtya.s 			page 25


 524:.\Generated_Source\PSoC4/CapSense_1_SMS.c **** * Function Name: CapSense_1_GetNoiseEnvelope
 525:.\Generated_Source\PSoC4/CapSense_1_SMS.c **** ********************************************************************************
 526:.\Generated_Source\PSoC4/CapSense_1_SMS.c **** *
 527:.\Generated_Source\PSoC4/CapSense_1_SMS.c **** * Summary:
 528:.\Generated_Source\PSoC4/CapSense_1_SMS.c **** *  This function returns the noise value of a
 529:.\Generated_Source\PSoC4/CapSense_1_SMS.c **** *  component.
 530:.\Generated_Source\PSoC4/CapSense_1_SMS.c **** *
 531:.\Generated_Source\PSoC4/CapSense_1_SMS.c **** * Parameters:
 532:.\Generated_Source\PSoC4/CapSense_1_SMS.c **** *  sensor - Sensor number.
 533:.\Generated_Source\PSoC4/CapSense_1_SMS.c **** *
 534:.\Generated_Source\PSoC4/CapSense_1_SMS.c **** * Return:
 535:.\Generated_Source\PSoC4/CapSense_1_SMS.c **** *  The noise envelope value of the sensor
 536:.\Generated_Source\PSoC4/CapSense_1_SMS.c **** *  indicated by argument.
 537:.\Generated_Source\PSoC4/CapSense_1_SMS.c **** *
 538:.\Generated_Source\PSoC4/CapSense_1_SMS.c **** * Global Variables:
 539:.\Generated_Source\PSoC4/CapSense_1_SMS.c **** *  baNoiseEnvelope[] - array with Noise Envelope.
 540:.\Generated_Source\PSoC4/CapSense_1_SMS.c **** *
 541:.\Generated_Source\PSoC4/CapSense_1_SMS.c **** * Side Effects:
 542:.\Generated_Source\PSoC4/CapSense_1_SMS.c **** *  None
 543:.\Generated_Source\PSoC4/CapSense_1_SMS.c **** *
 544:.\Generated_Source\PSoC4/CapSense_1_SMS.c **** *******************************************************************************/
 545:.\Generated_Source\PSoC4/CapSense_1_SMS.c **** uint16 CapSense_1_GetNoiseEnvelope(uint32 sensor)
 546:.\Generated_Source\PSoC4/CapSense_1_SMS.c **** {
 834              		.loc 1 546 0
 835              		.cfi_startproc
 836 0000 80B5     		push	{r7, lr}
 837              	.LCFI23:
 838              		.cfi_def_cfa_offset 8
 839              		.cfi_offset 7, -8
 840              		.cfi_offset 14, -4
 841 0002 82B0     		sub	sp, sp, #8
 842              	.LCFI24:
 843              		.cfi_def_cfa_offset 16
 844 0004 00AF     		add	r7, sp, #0
 845              	.LCFI25:
 846              		.cfi_def_cfa_register 7
 847 0006 7860     		str	r0, [r7, #4]
 547:.\Generated_Source\PSoC4/CapSense_1_SMS.c ****     return((uint16)((uint16)noiseEnvelopeTbl[sensor] << 1u) + 1u);
 848              		.loc 1 547 0
 849 0008 054A     		ldr	r2, .L49
 850 000a 7B68     		ldr	r3, [r7, #4]
 851 000c D318     		add	r3, r2, r3
 852 000e 1B78     		ldrb	r3, [r3]
 853 0010 5B00     		lsl	r3, r3, #1
 854 0012 9BB2     		uxth	r3, r3
 855 0014 0133     		add	r3, r3, #1
 856 0016 9BB2     		uxth	r3, r3
 548:.\Generated_Source\PSoC4/CapSense_1_SMS.c **** }
 857              		.loc 1 548 0
 858 0018 181C     		mov	r0, r3
 859 001a BD46     		mov	sp, r7
 860 001c 02B0     		add	sp, sp, #8
 861              		@ sp needed for prologue
 862 001e 80BD     		pop	{r7, pc}
 863              	.L50:
 864              		.align	2
 865              	.L49:
ARM GAS  C:\Users\Jakob\AppData\Local\Temp\ccdTPtya.s 			page 26


 866 0020 00000000 		.word	noiseEnvelopeTbl
 867              		.cfi_endproc
 868              	.LFE41:
 869              		.size	CapSense_1_GetNoiseEnvelope, .-CapSense_1_GetNoiseEnvelope
 870              		.global	__aeabi_uidiv
 871              		.section	.text.CapSense_1_GetNormalizedDiffCountData,"ax",%progbits
 872              		.align	2
 873              		.global	CapSense_1_GetNormalizedDiffCountData
 874              		.code	16
 875              		.thumb_func
 876              		.type	CapSense_1_GetNormalizedDiffCountData, %function
 877              	CapSense_1_GetNormalizedDiffCountData:
 878              	.LFB42:
 549:.\Generated_Source\PSoC4/CapSense_1_SMS.c **** 
 550:.\Generated_Source\PSoC4/CapSense_1_SMS.c **** 
 551:.\Generated_Source\PSoC4/CapSense_1_SMS.c **** /*******************************************************************************
 552:.\Generated_Source\PSoC4/CapSense_1_SMS.c **** * Function Name: CapSense_1_GetNormalizedDiffCountData
 553:.\Generated_Source\PSoC4/CapSense_1_SMS.c **** ********************************************************************************
 554:.\Generated_Source\PSoC4/CapSense_1_SMS.c **** *
 555:.\Generated_Source\PSoC4/CapSense_1_SMS.c **** * Summary:
 556:.\Generated_Source\PSoC4/CapSense_1_SMS.c **** *  This API returns normalized difference count data.
 557:.\Generated_Source\PSoC4/CapSense_1_SMS.c **** *
 558:.\Generated_Source\PSoC4/CapSense_1_SMS.c **** * Parameters:
 559:.\Generated_Source\PSoC4/CapSense_1_SMS.c **** *  sensor:  Sensor number.
 560:.\Generated_Source\PSoC4/CapSense_1_SMS.c **** *
 561:.\Generated_Source\PSoC4/CapSense_1_SMS.c **** * Return:
 562:.\Generated_Source\PSoC4/CapSense_1_SMS.c **** *  This API returns a normalized count value of the sensor indicated by the 
 563:.\Generated_Source\PSoC4/CapSense_1_SMS.c **** *  argument. 
 564:.\Generated_Source\PSoC4/CapSense_1_SMS.c **** *
 565:.\Generated_Source\PSoC4/CapSense_1_SMS.c **** * Global Variables:
 566:.\Generated_Source\PSoC4/CapSense_1_SMS.c **** *  CapSense_1_sensorSignal[] - array with difference counts for sensors
 567:.\Generated_Source\PSoC4/CapSense_1_SMS.c **** * 
 568:.\Generated_Source\PSoC4/CapSense_1_SMS.c **** * Side Effects:
 569:.\Generated_Source\PSoC4/CapSense_1_SMS.c **** *  None
 570:.\Generated_Source\PSoC4/CapSense_1_SMS.c **** *
 571:.\Generated_Source\PSoC4/CapSense_1_SMS.c **** *******************************************************************************/
 572:.\Generated_Source\PSoC4/CapSense_1_SMS.c **** uint16 CapSense_1_GetNormalizedDiffCountData(uint32 sensor)
 573:.\Generated_Source\PSoC4/CapSense_1_SMS.c **** {
 879              		.loc 1 573 0
 880              		.cfi_startproc
 881 0000 80B5     		push	{r7, lr}
 882              	.LCFI26:
 883              		.cfi_def_cfa_offset 8
 884              		.cfi_offset 7, -8
 885              		.cfi_offset 14, -4
 886 0002 82B0     		sub	sp, sp, #8
 887              	.LCFI27:
 888              		.cfi_def_cfa_offset 16
 889 0004 00AF     		add	r7, sp, #0
 890              	.LCFI28:
 891              		.cfi_def_cfa_register 7
 892 0006 7860     		str	r0, [r7, #4]
 574:.\Generated_Source\PSoC4/CapSense_1_SMS.c **** 	return (uint16)(((uint32)CapSense_1_sensorSignal[sensor] << 7u) / kValueTbl[sensor]);
 893              		.loc 1 574 0
 894 0008 094A     		ldr	r2, .L53
 895 000a 7B68     		ldr	r3, [r7, #4]
 896 000c D318     		add	r3, r2, r3
ARM GAS  C:\Users\Jakob\AppData\Local\Temp\ccdTPtya.s 			page 27


 897 000e 1B78     		ldrb	r3, [r3]
 898 0010 DA01     		lsl	r2, r3, #7
 899 0012 0849     		ldr	r1, .L53+4
 900 0014 7B68     		ldr	r3, [r7, #4]
 901 0016 CB18     		add	r3, r1, r3
 902 0018 1B78     		ldrb	r3, [r3]
 903 001a 101C     		mov	r0, r2
 904 001c 191C     		mov	r1, r3
 905 001e FFF7FEFF 		bl	__aeabi_uidiv
 906 0022 031C     		mov	r3, r0
 907 0024 9BB2     		uxth	r3, r3
 575:.\Generated_Source\PSoC4/CapSense_1_SMS.c **** }
 908              		.loc 1 575 0
 909 0026 181C     		mov	r0, r3
 910 0028 BD46     		mov	sp, r7
 911 002a 02B0     		add	sp, sp, #8
 912              		@ sp needed for prologue
 913 002c 80BD     		pop	{r7, pc}
 914              	.L54:
 915 002e C046     		.align	2
 916              	.L53:
 917 0030 00000000 		.word	CapSense_1_sensorSignal
 918 0034 00000000 		.word	kValueTbl
 919              		.cfi_endproc
 920              	.LFE42:
 921              		.size	CapSense_1_GetNormalizedDiffCountData, .-CapSense_1_GetNormalizedDiffCountData
 922              		.text
 923              	.Letext0:
 924              		.file 2 ".\\Generated_Source\\PSoC4\\cytypes.h"
 925              		.file 3 ".\\Generated_Source\\PSoC4\\CapSense_1_PVT.h"