ARM GAS  C:\Users\Jakob\AppData\Local\Temp\ccFnfJVo.s 			page 1


   1              		.cpu cortex-m0
   2              		.fpu softvfp
   3              		.eabi_attribute 20, 1
   4              		.eabi_attribute 21, 1
   5              		.eabi_attribute 23, 3
   6              		.eabi_attribute 24, 1
   7              		.eabi_attribute 25, 1
   8              		.eabi_attribute 26, 1
   9              		.eabi_attribute 30, 6
  10              		.eabi_attribute 34, 0
  11              		.eabi_attribute 18, 4
  12              		.code	16
  13              		.file	"CapSense_CSD_SMS.c"
  14              		.text
  15              	.Ltext0:
  16              		.cfi_sections	.debug_frame
  17              		.global	prescalerTable
  18              		.section	.rodata
  19              		.align	2
  20              		.type	prescalerTable, %object
  21              		.size	prescalerTable, 16
  22              	prescalerTable:
  23 0000 01       		.byte	1
  24 0001 01       		.byte	1
  25 0002 01       		.byte	1
  26 0003 02       		.byte	2
  27 0004 02       		.byte	2
  28 0005 02       		.byte	2
  29 0006 02       		.byte	2
  30 0007 04       		.byte	4
  31 0008 04       		.byte	4
  32 0009 04       		.byte	4
  33 000a 04       		.byte	4
  34 000b 04       		.byte	4
  35 000c 04       		.byte	4
  36 000d 04       		.byte	4
  37 000e 04       		.byte	4
  38 000f 04       		.byte	4
  39              		.comm	noiseEnvelopeTbl,5,4
  40              		.comm	runningDifferenceTbl,5,4
  41              		.comm	signRegisterTbl,5,4
  42              		.comm	sampleMinTbl,10,4
  43              		.comm	sampleMaxTbl,10,4
  44              		.comm	previousSampleTbl,10,4
  45              		.comm	kValueTbl,5,4
  46              		.comm	scanSpeedTbl,1,4
  47              		.global	SMS_LIB_SensorSensitivity
  48              		.data
  49              		.align	2
  50              		.type	SMS_LIB_SensorSensitivity, %object
  51              		.size	SMS_LIB_SensorSensitivity, 5
  52              	SMS_LIB_SensorSensitivity:
  53 0000 04       		.byte	4
  54 0001 02       		.byte	2
  55 0002 02       		.byte	2
  56 0003 02       		.byte	2
  57 0004 02       		.byte	2
ARM GAS  C:\Users\Jakob\AppData\Local\Temp\ccFnfJVo.s 			page 2


  58              		.comm	CapSense_CSD_config,12,4
  59              		.global	CapSense_CSD_configPointers
  60 0005 000000   		.section	.rodata
  61              		.align	2
  62              		.type	CapSense_CSD_configPointers, %object
  63              		.size	CapSense_CSD_configPointers, 56
  64              	CapSense_CSD_configPointers:
  65 0010 00000000 		.word	CapSense_CSD_modulationIDAC
  66 0014 00000000 		.word	CapSense_CSD_compensationIDAC
  67 0018 00000000 		.word	SMS_LIB_SensorSensitivity
  68 001c 00000000 		.word	CapSense_CSD_senseClkDividerVal
  69 0020 00000000 		.word	CapSense_CSD_sampleClkDividerVal
  70 0024 00000000 		.word	CapSense_CSD_widgetNumber
  71 0028 00000000 		.word	CapSense_CSD_widgetResolution
  72 002c 00000000 		.word	CapSense_CSD_rawDataIndex
  73 0030 00000000 		.word	CapSense_CSD_numberOfSensors
  74 0034 00000000 		.word	CapSense_CSD_GetSensorRaw
  75 0038 00000000 		.word	CapSense_CSD_PreScan
  76 003c 00000000 		.word	CapSense_CSD_ReadSensorRaw
  77 0040 00000000 		.word	CapSense_CSD_GetBitValue
  78 0044 00000000 		.word	CapSense_CSD_SetBitValue
  79              		.section	.text.CapSense_CSD_AutoTune,"ax",%progbits
  80              		.align	2
  81              		.global	CapSense_CSD_AutoTune
  82              		.code	16
  83              		.thumb_func
  84              		.type	CapSense_CSD_AutoTune, %function
  85              	CapSense_CSD_AutoTune:
  86              	.LFB33:
  87              		.file 1 ".\\Generated_Source\\PSoC4\\CapSense_CSD_SMS.c"
   1:.\Generated_Source\PSoC4/CapSense_CSD_SMS.c **** /*******************************************************************************
   2:.\Generated_Source\PSoC4/CapSense_CSD_SMS.c **** * File Name: CapSense_CSD_SMS.c
   3:.\Generated_Source\PSoC4/CapSense_CSD_SMS.c **** * Version 2.0
   4:.\Generated_Source\PSoC4/CapSense_CSD_SMS.c **** *
   5:.\Generated_Source\PSoC4/CapSense_CSD_SMS.c **** * Description:
   6:.\Generated_Source\PSoC4/CapSense_CSD_SMS.c **** *  This file provides the source code of wrapper between CapSense CSD component 
   7:.\Generated_Source\PSoC4/CapSense_CSD_SMS.c **** *  and Auto Tuning library.
   8:.\Generated_Source\PSoC4/CapSense_CSD_SMS.c **** *
   9:.\Generated_Source\PSoC4/CapSense_CSD_SMS.c **** * Note:
  10:.\Generated_Source\PSoC4/CapSense_CSD_SMS.c **** *
  11:.\Generated_Source\PSoC4/CapSense_CSD_SMS.c **** ********************************************************************************
  12:.\Generated_Source\PSoC4/CapSense_CSD_SMS.c **** * Copyright 2014, Cypress Semiconductor Corporation.  All rights reserved.
  13:.\Generated_Source\PSoC4/CapSense_CSD_SMS.c **** * You may use this file only in accordance with the license, terms, conditions,
  14:.\Generated_Source\PSoC4/CapSense_CSD_SMS.c **** * disclaimers, and limitations in the end user license agreement accompanying
  15:.\Generated_Source\PSoC4/CapSense_CSD_SMS.c **** * the software package with which this file was provided.
  16:.\Generated_Source\PSoC4/CapSense_CSD_SMS.c **** *******************************************************************************/
  17:.\Generated_Source\PSoC4/CapSense_CSD_SMS.c **** 
  18:.\Generated_Source\PSoC4/CapSense_CSD_SMS.c **** #include "CapSense_CSD_SMS.h"
  19:.\Generated_Source\PSoC4/CapSense_CSD_SMS.c **** #include "CapSense_CSD_PVT.h"
  20:.\Generated_Source\PSoC4/CapSense_CSD_SMS.c **** 
  21:.\Generated_Source\PSoC4/CapSense_CSD_SMS.c **** #include "cytypes.h"
  22:.\Generated_Source\PSoC4/CapSense_CSD_SMS.c **** 
  23:.\Generated_Source\PSoC4/CapSense_CSD_SMS.c **** #define CapSense_CSD_PRS_CORRECTION_DIVIDER (4u)
  24:.\Generated_Source\PSoC4/CapSense_CSD_SMS.c **** #define CapSense_CSD_MAX_RESOLUTION         (65535u)
  25:.\Generated_Source\PSoC4/CapSense_CSD_SMS.c **** #define CapSense_CSD_SENSITIVITY_DIVIDER    (10u)
  26:.\Generated_Source\PSoC4/CapSense_CSD_SMS.c **** 
  27:.\Generated_Source\PSoC4/CapSense_CSD_SMS.c **** #if (CapSense_CSD_TUNING_METHOD == CapSense_CSD__TUNING_AUTO)
ARM GAS  C:\Users\Jakob\AppData\Local\Temp\ccFnfJVo.s 			page 3


  28:.\Generated_Source\PSoC4/CapSense_CSD_SMS.c **** 
  29:.\Generated_Source\PSoC4/CapSense_CSD_SMS.c **** #if (0u != CapSense_CSD_IS_M0S8PERI_BLOCK)
  30:.\Generated_Source\PSoC4/CapSense_CSD_SMS.c ****     /*  Dividers are not chained */ 
  31:.\Generated_Source\PSoC4/CapSense_CSD_SMS.c **** 	#if(CapSense_CSD_PRS_OPTIONS != CapSense_CSD__PRS_NONE)
  32:.\Generated_Source\PSoC4/CapSense_CSD_SMS.c **** 		#define CapSense_CSD_SENSETIVITY_FACTOR (1228u)
  33:.\Generated_Source\PSoC4/CapSense_CSD_SMS.c **** 	#else
  34:.\Generated_Source\PSoC4/CapSense_CSD_SMS.c **** 		#define CapSense_CSD_SENSETIVITY_FACTOR (2456u)
  35:.\Generated_Source\PSoC4/CapSense_CSD_SMS.c **** 	#endif /* (CapSense_CSD_PRS_OPTIONS == CapSense_CSD__PRS_NONE) */
  36:.\Generated_Source\PSoC4/CapSense_CSD_SMS.c **** #else
  37:.\Generated_Source\PSoC4/CapSense_CSD_SMS.c ****     /*  Dividers are chained */
  38:.\Generated_Source\PSoC4/CapSense_CSD_SMS.c **** 	#if(CapSense_CSD_PRS_OPTIONS != CapSense_CSD__PRS_NONE)
  39:.\Generated_Source\PSoC4/CapSense_CSD_SMS.c **** 		#define CapSense_CSD_SENSETIVITY_FACTOR (1228u/CapSense_CSD_CALIBRATION_MD)
  40:.\Generated_Source\PSoC4/CapSense_CSD_SMS.c **** 	#else
  41:.\Generated_Source\PSoC4/CapSense_CSD_SMS.c **** 		#define CapSense_CSD_SENSETIVITY_FACTOR (2456u/CapSense_CSD_CALIBRATION_MD)
  42:.\Generated_Source\PSoC4/CapSense_CSD_SMS.c **** 	#endif /* (CapSense_CSD_PRS_OPTIONS == CapSense_CSD__PRS_NONE) */
  43:.\Generated_Source\PSoC4/CapSense_CSD_SMS.c **** #endif /* (0u != CapSense_CSD_IS_M0S8PERI_BLOCK) */
  44:.\Generated_Source\PSoC4/CapSense_CSD_SMS.c **** 
  45:.\Generated_Source\PSoC4/CapSense_CSD_SMS.c **** 
  46:.\Generated_Source\PSoC4/CapSense_CSD_SMS.c **** #if(CapSense_CSD_PRS_OPTIONS != CapSense_CSD__PRS_NONE)
  47:.\Generated_Source\PSoC4/CapSense_CSD_SMS.c **** 	extern uint8 CapSense_CSD_prescalersTuningDone;
  48:.\Generated_Source\PSoC4/CapSense_CSD_SMS.c **** #endif /* (CapSense_CSD_PRS_OPTIONS == CapSense_CSD__PRS_NONE) */
  49:.\Generated_Source\PSoC4/CapSense_CSD_SMS.c **** 
  50:.\Generated_Source\PSoC4/CapSense_CSD_SMS.c **** 
  51:.\Generated_Source\PSoC4/CapSense_CSD_SMS.c **** /*  Real Charge Divider values */
  52:.\Generated_Source\PSoC4/CapSense_CSD_SMS.c **** #if (0u != CapSense_CSD_IS_M0S8PERI_BLOCK)
  53:.\Generated_Source\PSoC4/CapSense_CSD_SMS.c ****     /*  Dividers are not chained */
  54:.\Generated_Source\PSoC4/CapSense_CSD_SMS.c **** 	#if (CYDEV_BCLK__HFCLK__MHZ >= 12u)
  55:.\Generated_Source\PSoC4/CapSense_CSD_SMS.c **** 		const uint8 prescalerTable[] = {
  56:.\Generated_Source\PSoC4/CapSense_CSD_SMS.c **** 			1u,     1u,     1u,    2u,    2u,    2u,    2u,    4u,    4u,    4u,    4u,    4u,    4u,    4u,
  57:.\Generated_Source\PSoC4/CapSense_CSD_SMS.c **** 		};
  58:.\Generated_Source\PSoC4/CapSense_CSD_SMS.c **** 
  59:.\Generated_Source\PSoC4/CapSense_CSD_SMS.c **** 	#elif (CYDEV_BCLK__HFCLK__MHZ >= 6u)
  60:.\Generated_Source\PSoC4/CapSense_CSD_SMS.c **** 		const uint8 prescalerTable[] = {
  61:.\Generated_Source\PSoC4/CapSense_CSD_SMS.c **** 			1u,     1u,     1u,    1u,    1u,    1u,    1u,    2u,    2u,    2u,    2u,    2u,    2u,    2u,
  62:.\Generated_Source\PSoC4/CapSense_CSD_SMS.c **** 		};
  63:.\Generated_Source\PSoC4/CapSense_CSD_SMS.c **** 	#else
  64:.\Generated_Source\PSoC4/CapSense_CSD_SMS.c **** 		const uint8 prescalerTable[] = {
  65:.\Generated_Source\PSoC4/CapSense_CSD_SMS.c **** 			1u,     1u,     1u,    1u,    1u,    1u,    1u,    1u,    1u,    1u,    1u,    1u,    1u,    1u,
  66:.\Generated_Source\PSoC4/CapSense_CSD_SMS.c **** 		};
  67:.\Generated_Source\PSoC4/CapSense_CSD_SMS.c **** 	#endif /* (CYDEV_BCLK__HFCLK__MHZ > 12u) */
  68:.\Generated_Source\PSoC4/CapSense_CSD_SMS.c **** #else
  69:.\Generated_Source\PSoC4/CapSense_CSD_SMS.c ****     /*  Dividers are chained */ 
  70:.\Generated_Source\PSoC4/CapSense_CSD_SMS.c **** 	#if (CYDEV_BCLK__HFCLK__MHZ > 24u)
  71:.\Generated_Source\PSoC4/CapSense_CSD_SMS.c **** 		const uint8 prescalerTable[] = {
  72:.\Generated_Source\PSoC4/CapSense_CSD_SMS.c **** 			2u,     2u,     2u,    4u,    4u,    4u,    4u,    8u,    8u,    8u,    8u,    8u,    8u,    8u,
  73:.\Generated_Source\PSoC4/CapSense_CSD_SMS.c **** 		};
  74:.\Generated_Source\PSoC4/CapSense_CSD_SMS.c **** 
  75:.\Generated_Source\PSoC4/CapSense_CSD_SMS.c **** 	#elif (CYDEV_BCLK__HFCLK__MHZ >12u)
  76:.\Generated_Source\PSoC4/CapSense_CSD_SMS.c **** 		const uint8 prescalerTable[] = {
  77:.\Generated_Source\PSoC4/CapSense_CSD_SMS.c **** 			1u,     1u,     1u,    2u,    2u,    2u,    2u,    4u,    4u,    4u,    4u,    4u,    4u,    4u,
  78:.\Generated_Source\PSoC4/CapSense_CSD_SMS.c **** 		};
  79:.\Generated_Source\PSoC4/CapSense_CSD_SMS.c **** 	#else   /* (CYDEV_BCLK__HFCLK__MHZ > 12u) */
  80:.\Generated_Source\PSoC4/CapSense_CSD_SMS.c **** 		const uint8 prescalerTable[] = {
  81:.\Generated_Source\PSoC4/CapSense_CSD_SMS.c **** 			1u,     1u,     1u,    1u,    1u,    1u,    1u,    2u,    2u,    2u,    2u,    2u,    2u,    2u,
  82:.\Generated_Source\PSoC4/CapSense_CSD_SMS.c **** 		};
  83:.\Generated_Source\PSoC4/CapSense_CSD_SMS.c **** 	#endif /* (CYDEV_BCLK__HFCLK__MHZ > 24u) */
  84:.\Generated_Source\PSoC4/CapSense_CSD_SMS.c **** #endif /* (0u != CapSense_CSD_IS_M0S8PERI_BLOCK) */
ARM GAS  C:\Users\Jakob\AppData\Local\Temp\ccFnfJVo.s 			page 4


  85:.\Generated_Source\PSoC4/CapSense_CSD_SMS.c **** 
  86:.\Generated_Source\PSoC4/CapSense_CSD_SMS.c **** 
  87:.\Generated_Source\PSoC4/CapSense_CSD_SMS.c **** extern uint16 CapSense_CSD_sensorRaw[CapSense_CSD_TOTAL_SENSOR_COUNT];
  88:.\Generated_Source\PSoC4/CapSense_CSD_SMS.c **** extern uint8 CapSense_CSD_sensorSignal[CapSense_CSD_TOTAL_SENSOR_COUNT];
  89:.\Generated_Source\PSoC4/CapSense_CSD_SMS.c **** 
  90:.\Generated_Source\PSoC4/CapSense_CSD_SMS.c **** extern uint32 CapSense_CSD_widgetResolution[CapSense_CSD_RESOLUTIONS_TBL_SIZE];
  91:.\Generated_Source\PSoC4/CapSense_CSD_SMS.c **** extern const uint8 CapSense_CSD_widgetNumber[CapSense_CSD_TOTAL_SENSOR_COUNT];
  92:.\Generated_Source\PSoC4/CapSense_CSD_SMS.c **** 
  93:.\Generated_Source\PSoC4/CapSense_CSD_SMS.c **** extern const uint8 CapSense_CSD_rawDataIndex[CapSense_CSD_WIDGETS_TBL_SIZE];
  94:.\Generated_Source\PSoC4/CapSense_CSD_SMS.c **** extern const uint8 CapSense_CSD_numberOfSensors[CapSense_CSD_WIDGETS_TBL_SIZE];
  95:.\Generated_Source\PSoC4/CapSense_CSD_SMS.c **** 
  96:.\Generated_Source\PSoC4/CapSense_CSD_SMS.c **** extern uint8 CapSense_CSD_modulationIDAC[CapSense_CSD_TOTAL_SENSOR_COUNT];
  97:.\Generated_Source\PSoC4/CapSense_CSD_SMS.c **** extern uint8 CapSense_CSD_compensationIDAC[CapSense_CSD_TOTAL_SENSOR_COUNT];
  98:.\Generated_Source\PSoC4/CapSense_CSD_SMS.c **** 
  99:.\Generated_Source\PSoC4/CapSense_CSD_SMS.c **** extern uint8 CapSense_CSD_senseClkDividerVal[CapSense_CSD_TOTAL_SCANSLOT_COUNT];
 100:.\Generated_Source\PSoC4/CapSense_CSD_SMS.c **** extern uint8 CapSense_CSD_sampleClkDividerVal[CapSense_CSD_TOTAL_SCANSLOT_COUNT];
 101:.\Generated_Source\PSoC4/CapSense_CSD_SMS.c **** 
 102:.\Generated_Source\PSoC4/CapSense_CSD_SMS.c **** extern uint8 CapSense_CSD_fingerThreshold[CapSense_CSD_THRESHOLD_TBL_SIZE];
 103:.\Generated_Source\PSoC4/CapSense_CSD_SMS.c **** extern uint8 CapSense_CSD_noiseThreshold[CapSense_CSD_THRESHOLD_TBL_SIZE];
 104:.\Generated_Source\PSoC4/CapSense_CSD_SMS.c **** extern uint8 CapSense_CSD_hysteresis[CapSense_CSD_WIDGET_PARAM_TBL_SIZE];
 105:.\Generated_Source\PSoC4/CapSense_CSD_SMS.c **** extern uint8 CapSense_CSD_negativeNoiseThreshold[CapSense_CSD_THRESHOLD_TBL_SIZE];
 106:.\Generated_Source\PSoC4/CapSense_CSD_SMS.c **** 
 107:.\Generated_Source\PSoC4/CapSense_CSD_SMS.c **** uint8 noiseEnvelopeTbl[CapSense_CSD_TOTAL_SENSOR_COUNT];
 108:.\Generated_Source\PSoC4/CapSense_CSD_SMS.c **** uint8 runningDifferenceTbl[CapSense_CSD_TOTAL_SENSOR_COUNT];
 109:.\Generated_Source\PSoC4/CapSense_CSD_SMS.c **** uint8 signRegisterTbl[CapSense_CSD_TOTAL_SENSOR_COUNT];
 110:.\Generated_Source\PSoC4/CapSense_CSD_SMS.c **** uint16 sampleMinTbl[CapSense_CSD_TOTAL_SENSOR_COUNT];
 111:.\Generated_Source\PSoC4/CapSense_CSD_SMS.c **** uint16 sampleMaxTbl[CapSense_CSD_TOTAL_SENSOR_COUNT];
 112:.\Generated_Source\PSoC4/CapSense_CSD_SMS.c **** uint16 previousSampleTbl[CapSense_CSD_TOTAL_SENSOR_COUNT];
 113:.\Generated_Source\PSoC4/CapSense_CSD_SMS.c **** uint8 kValueTbl[CapSense_CSD_TOTAL_SENSOR_COUNT];   
 114:.\Generated_Source\PSoC4/CapSense_CSD_SMS.c **** uint8 scanSpeedTbl[((CapSense_CSD_TOTAL_SENSOR_COUNT - 1u) / 8u) + 1u];
 115:.\Generated_Source\PSoC4/CapSense_CSD_SMS.c **** 
 116:.\Generated_Source\PSoC4/CapSense_CSD_SMS.c **** uint8 SMS_LIB_SensorSensitivity[] = {
 117:.\Generated_Source\PSoC4/CapSense_CSD_SMS.c ****     4u, 2u, 2u, 2u, 2u, 
 118:.\Generated_Source\PSoC4/CapSense_CSD_SMS.c **** };
 119:.\Generated_Source\PSoC4/CapSense_CSD_SMS.c **** 
 120:.\Generated_Source\PSoC4/CapSense_CSD_SMS.c **** CapSense_CSD_CONFIG_TYPE_P4_v2_0 CapSense_CSD_config;
 121:.\Generated_Source\PSoC4/CapSense_CSD_SMS.c **** CapSense_CSD_CONFIG_TYPE_POINTERS_P4_v2_0 const CapSense_CSD_configPointers = {
 122:.\Generated_Source\PSoC4/CapSense_CSD_SMS.c ****     CapSense_CSD_modulationIDAC,
 123:.\Generated_Source\PSoC4/CapSense_CSD_SMS.c ****     CapSense_CSD_compensationIDAC,
 124:.\Generated_Source\PSoC4/CapSense_CSD_SMS.c ****      SMS_LIB_SensorSensitivity,
 125:.\Generated_Source\PSoC4/CapSense_CSD_SMS.c ****     CapSense_CSD_senseClkDividerVal,
 126:.\Generated_Source\PSoC4/CapSense_CSD_SMS.c ****     CapSense_CSD_sampleClkDividerVal,
 127:.\Generated_Source\PSoC4/CapSense_CSD_SMS.c ****     CapSense_CSD_widgetNumber,
 128:.\Generated_Source\PSoC4/CapSense_CSD_SMS.c ****     CapSense_CSD_widgetResolution,
 129:.\Generated_Source\PSoC4/CapSense_CSD_SMS.c **** 	(const uint8  *)CapSense_CSD_rawDataIndex,
 130:.\Generated_Source\PSoC4/CapSense_CSD_SMS.c **** 	(const uint8  *)CapSense_CSD_numberOfSensors,
 131:.\Generated_Source\PSoC4/CapSense_CSD_SMS.c ****     &CapSense_CSD_GetSensorRaw,
 132:.\Generated_Source\PSoC4/CapSense_CSD_SMS.c ****     &CapSense_CSD_PreScan,
 133:.\Generated_Source\PSoC4/CapSense_CSD_SMS.c ****     &CapSense_CSD_ReadSensorRaw,
 134:.\Generated_Source\PSoC4/CapSense_CSD_SMS.c ****     &CapSense_CSD_GetBitValue,
 135:.\Generated_Source\PSoC4/CapSense_CSD_SMS.c **** 	&CapSense_CSD_SetBitValue
 136:.\Generated_Source\PSoC4/CapSense_CSD_SMS.c **** };
 137:.\Generated_Source\PSoC4/CapSense_CSD_SMS.c **** 
 138:.\Generated_Source\PSoC4/CapSense_CSD_SMS.c **** 
 139:.\Generated_Source\PSoC4/CapSense_CSD_SMS.c **** /*******************************************************************************
 140:.\Generated_Source\PSoC4/CapSense_CSD_SMS.c **** * Function Name: CapSense_CSD_AutoTune
 141:.\Generated_Source\PSoC4/CapSense_CSD_SMS.c **** ********************************************************************************
ARM GAS  C:\Users\Jakob\AppData\Local\Temp\ccFnfJVo.s 			page 5


 142:.\Generated_Source\PSoC4/CapSense_CSD_SMS.c **** *
 143:.\Generated_Source\PSoC4/CapSense_CSD_SMS.c **** * Summary:
 144:.\Generated_Source\PSoC4/CapSense_CSD_SMS.c **** *  Provides the tuning procedure for all sensors.
 145:.\Generated_Source\PSoC4/CapSense_CSD_SMS.c **** *
 146:.\Generated_Source\PSoC4/CapSense_CSD_SMS.c **** * Parameters:
 147:.\Generated_Source\PSoC4/CapSense_CSD_SMS.c **** *  None
 148:.\Generated_Source\PSoC4/CapSense_CSD_SMS.c **** *
 149:.\Generated_Source\PSoC4/CapSense_CSD_SMS.c **** * Return:
 150:.\Generated_Source\PSoC4/CapSense_CSD_SMS.c **** *  None
 151:.\Generated_Source\PSoC4/CapSense_CSD_SMS.c **** *
 152:.\Generated_Source\PSoC4/CapSense_CSD_SMS.c **** * Global Variables:
 153:.\Generated_Source\PSoC4/CapSense_CSD_SMS.c **** *   CapSense_CSD_config: the structure which contains configuration parameters
 154:.\Generated_Source\PSoC4/CapSense_CSD_SMS.c **** *   CapSense_CSD_senseClkDividerVal[]: used to store the Analog Switch 
 155:.\Generated_Source\PSoC4/CapSense_CSD_SMS.c **** *   dividers for each sensor.
 156:.\Generated_Source\PSoC4/CapSense_CSD_SMS.c **** *   CapSense_CSD_senseClkDividerVal[]: used to store the 
 157:.\Generated_Source\PSoC4/CapSense_CSD_SMS.c **** *    Analog Switch divider for all sensors.
 158:.\Generated_Source\PSoC4/CapSense_CSD_SMS.c **** *   CapSense_CSD_prescalersTuningDone - used to notify the Tuner GUI that 
 159:.\Generated_Source\PSoC4/CapSense_CSD_SMS.c **** *   the pre-scalers tuning  is done.
 160:.\Generated_Source\PSoC4/CapSense_CSD_SMS.c **** *
 161:.\Generated_Source\PSoC4/CapSense_CSD_SMS.c **** * Side Effects:
 162:.\Generated_Source\PSoC4/CapSense_CSD_SMS.c **** *  None
 163:.\Generated_Source\PSoC4/CapSense_CSD_SMS.c **** *
 164:.\Generated_Source\PSoC4/CapSense_CSD_SMS.c **** *******************************************************************************/
 165:.\Generated_Source\PSoC4/CapSense_CSD_SMS.c **** void CapSense_CSD_AutoTune(void)
 166:.\Generated_Source\PSoC4/CapSense_CSD_SMS.c **** {
  88              		.loc 1 166 0
  89              		.cfi_startproc
  90 0000 80B5     		push	{r7, lr}
  91              	.LCFI0:
  92              		.cfi_def_cfa_offset 8
  93              		.cfi_offset 7, -8
  94              		.cfi_offset 14, -4
  95 0002 82B0     		sub	sp, sp, #8
  96              	.LCFI1:
  97              		.cfi_def_cfa_offset 16
  98 0004 00AF     		add	r7, sp, #0
  99              	.LCFI2:
 100              		.cfi_def_cfa_register 7
 167:.\Generated_Source\PSoC4/CapSense_CSD_SMS.c **** 	uint32 curSensor;
 168:.\Generated_Source\PSoC4/CapSense_CSD_SMS.c ****     uint32 widget;
 169:.\Generated_Source\PSoC4/CapSense_CSD_SMS.c **** 
 170:.\Generated_Source\PSoC4/CapSense_CSD_SMS.c **** 	CapSense_CSD_config.totalScanslotsNum = CapSense_CSD_TOTAL_SCANSLOT_COUNT;
 101              		.loc 1 170 0
 102 0006 364B     		ldr	r3, .L8
 103 0008 0522     		mov	r2, #5
 104 000a 1A70     		strb	r2, [r3]
 171:.\Generated_Source\PSoC4/CapSense_CSD_SMS.c **** 	CapSense_CSD_config.totalWidgetsNum = CapSense_CSD_END_OF_WIDGETS_INDEX;
 105              		.loc 1 171 0
 106 000c 344B     		ldr	r3, .L8
 107 000e 0122     		mov	r2, #1
 108 0010 5A70     		strb	r2, [r3, #1]
 172:.\Generated_Source\PSoC4/CapSense_CSD_SMS.c **** 	CapSense_CSD_config.totalSensorsNum = CapSense_CSD_TOTAL_SENSOR_COUNT;
 109              		.loc 1 172 0
 110 0012 334B     		ldr	r3, .L8
 111 0014 0522     		mov	r2, #5
 112 0016 9A70     		strb	r2, [r3, #2]
 173:.\Generated_Source\PSoC4/CapSense_CSD_SMS.c **** 	
ARM GAS  C:\Users\Jakob\AppData\Local\Temp\ccFnfJVo.s 			page 6


 174:.\Generated_Source\PSoC4/CapSense_CSD_SMS.c **** 	CapSense_CSD_config.hfclkFreq_MHz = CYDEV_BCLK__HFCLK__MHZ;
 113              		.loc 1 174 0
 114 0018 314B     		ldr	r3, .L8
 115 001a 1822     		mov	r2, #24
 116 001c DA80     		strh	r2, [r3, #6]
 175:.\Generated_Source\PSoC4/CapSense_CSD_SMS.c **** 	CapSense_CSD_config.sensetivitySeed = CapSense_CSD_SENSETIVITY_FACTOR;
 117              		.loc 1 175 0
 118 001e 304B     		ldr	r3, .L8
 119 0020 304A     		ldr	r2, .L8+4
 120 0022 9A80     		strh	r2, [r3, #4]
 176:.\Generated_Source\PSoC4/CapSense_CSD_SMS.c **** 	
 177:.\Generated_Source\PSoC4/CapSense_CSD_SMS.c ****     CapSense_CSD_config.pointers = &CapSense_CSD_configPointers;       
 121              		.loc 1 177 0
 122 0024 2E4B     		ldr	r3, .L8
 123 0026 304A     		ldr	r2, .L8+8
 124 0028 9A60     		str	r2, [r3, #8]
 178:.\Generated_Source\PSoC4/CapSense_CSD_SMS.c ****     
 179:.\Generated_Source\PSoC4/CapSense_CSD_SMS.c **** 	CapSense_CSD_SetAnalogSwitchesSrcDirect();
 125              		.loc 1 179 0
 126 002a FFF7FEFF 		bl	CapSense_CSD_SetAnalogSwitchesSrcDirect
 180:.\Generated_Source\PSoC4/CapSense_CSD_SMS.c ****     
 181:.\Generated_Source\PSoC4/CapSense_CSD_SMS.c ****     for(widget = 0u; widget < CapSense_CSD_config.totalWidgetsNum; widget++)
 127              		.loc 1 181 0
 128 002e 0023     		mov	r3, #0
 129 0030 3B60     		str	r3, [r7]
 130 0032 07E0     		b	.L2
 131              	.L3:
 182:.\Generated_Source\PSoC4/CapSense_CSD_SMS.c ****     {
 183:.\Generated_Source\PSoC4/CapSense_CSD_SMS.c ****         CapSense_CSD_widgetResolution[widget] = CapSense_CSD_CALIBRATION_RESOLUTION;
 132              		.loc 1 183 0 discriminator 2
 133 0034 2D4B     		ldr	r3, .L8+12
 134 0036 3A68     		ldr	r2, [r7]
 135 0038 9200     		lsl	r2, r2, #2
 136 003a 2D49     		ldr	r1, .L8+16
 137 003c D150     		str	r1, [r2, r3]
 181:.\Generated_Source\PSoC4/CapSense_CSD_SMS.c ****     for(widget = 0u; widget < CapSense_CSD_config.totalWidgetsNum; widget++)
 138              		.loc 1 181 0 discriminator 2
 139 003e 3B68     		ldr	r3, [r7]
 140 0040 0133     		add	r3, r3, #1
 141 0042 3B60     		str	r3, [r7]
 142              	.L2:
 181:.\Generated_Source\PSoC4/CapSense_CSD_SMS.c ****     for(widget = 0u; widget < CapSense_CSD_config.totalWidgetsNum; widget++)
 143              		.loc 1 181 0 is_stmt 0 discriminator 1
 144 0044 264B     		ldr	r3, .L8
 145 0046 5B78     		ldrb	r3, [r3, #1]
 146 0048 1A1C     		mov	r2, r3
 147 004a 3B68     		ldr	r3, [r7]
 148 004c 9A42     		cmp	r2, r3
 149 004e F1D8     		bhi	.L3
 184:.\Generated_Source\PSoC4/CapSense_CSD_SMS.c ****     }
 185:.\Generated_Source\PSoC4/CapSense_CSD_SMS.c **** 	
 186:.\Generated_Source\PSoC4/CapSense_CSD_SMS.c **** 
 187:.\Generated_Source\PSoC4/CapSense_CSD_SMS.c **** 	for(curSensor = 0u; curSensor < CapSense_CSD_TOTAL_SCANSLOT_COUNT; curSensor++)
 150              		.loc 1 187 0 is_stmt 1
 151 0050 0023     		mov	r3, #0
 152 0052 7B60     		str	r3, [r7, #4]
 153 0054 0CE0     		b	.L4
ARM GAS  C:\Users\Jakob\AppData\Local\Temp\ccFnfJVo.s 			page 7


 154              	.L5:
 188:.\Generated_Source\PSoC4/CapSense_CSD_SMS.c ****     {
 189:.\Generated_Source\PSoC4/CapSense_CSD_SMS.c **** 		CapSense_CSD_senseClkDividerVal[curSensor] = CapSense_CSD_CALIBRATION_ASD;
 155              		.loc 1 189 0 discriminator 2
 156 0056 274A     		ldr	r2, .L8+20
 157 0058 7B68     		ldr	r3, [r7, #4]
 158 005a D318     		add	r3, r2, r3
 159 005c 0422     		mov	r2, #4
 160 005e 1A70     		strb	r2, [r3]
 190:.\Generated_Source\PSoC4/CapSense_CSD_SMS.c **** 		CapSense_CSD_sampleClkDividerVal[curSensor] = CapSense_CSD_CALIBRATION_MD;
 161              		.loc 1 190 0 discriminator 2
 162 0060 254A     		ldr	r2, .L8+24
 163 0062 7B68     		ldr	r3, [r7, #4]
 164 0064 D318     		add	r3, r2, r3
 165 0066 0222     		mov	r2, #2
 166 0068 1A70     		strb	r2, [r3]
 187:.\Generated_Source\PSoC4/CapSense_CSD_SMS.c **** 	for(curSensor = 0u; curSensor < CapSense_CSD_TOTAL_SCANSLOT_COUNT; curSensor++)
 167              		.loc 1 187 0 discriminator 2
 168 006a 7B68     		ldr	r3, [r7, #4]
 169 006c 0133     		add	r3, r3, #1
 170 006e 7B60     		str	r3, [r7, #4]
 171              	.L4:
 187:.\Generated_Source\PSoC4/CapSense_CSD_SMS.c **** 	for(curSensor = 0u; curSensor < CapSense_CSD_TOTAL_SCANSLOT_COUNT; curSensor++)
 172              		.loc 1 187 0 is_stmt 0 discriminator 1
 173 0070 7B68     		ldr	r3, [r7, #4]
 174 0072 042B     		cmp	r3, #4
 175 0074 EFD9     		bls	.L5
 191:.\Generated_Source\PSoC4/CapSense_CSD_SMS.c **** 	}
 192:.\Generated_Source\PSoC4/CapSense_CSD_SMS.c ****     
 193:.\Generated_Source\PSoC4/CapSense_CSD_SMS.c ****     CapSense_CSD_DisableBaselineIDAC();
 176              		.loc 1 193 0 is_stmt 1
 177 0076 FFF7FEFF 		bl	CapSense_CSD_DisableBaselineIDAC
 194:.\Generated_Source\PSoC4/CapSense_CSD_SMS.c **** 
 195:.\Generated_Source\PSoC4/CapSense_CSD_SMS.c ****     CalibrateSensors_P4_v2_0(&CapSense_CSD_config, CapSense_CSD_CAL_RAW_COUNT);
 178              		.loc 1 195 0
 179 007a 194A     		ldr	r2, .L8
 180 007c 1F4B     		ldr	r3, .L8+28
 181 007e 101C     		mov	r0, r2
 182 0080 191C     		mov	r1, r3
 183 0082 FFF7FEFF 		bl	CalibrateSensors_P4_v2_0
 196:.\Generated_Source\PSoC4/CapSense_CSD_SMS.c **** 	CapSense_CSD_NormalizeWidgets(CapSense_CSD_END_OF_WIDGETS_INDEX, CapSense_CSD_modulationIDAC);
 184              		.loc 1 196 0
 185 0086 1E4B     		ldr	r3, .L8+32
 186 0088 0120     		mov	r0, #1
 187 008a 191C     		mov	r1, r3
 188 008c FFF7FEFF 		bl	CapSense_CSD_NormalizeWidgets
 197:.\Generated_Source\PSoC4/CapSense_CSD_SMS.c **** 	
 198:.\Generated_Source\PSoC4/CapSense_CSD_SMS.c ****     TunePrescalers_P4_v2_0(&CapSense_CSD_config);
 189              		.loc 1 198 0
 190 0090 134B     		ldr	r3, .L8
 191 0092 181C     		mov	r0, r3
 192 0094 FFF7FEFF 		bl	TunePrescalers_P4_v2_0
 199:.\Generated_Source\PSoC4/CapSense_CSD_SMS.c **** 	
 200:.\Generated_Source\PSoC4/CapSense_CSD_SMS.c **** 	#if(CapSense_CSD_PRS_OPTIONS != CapSense_CSD__PRS_NONE)
 201:.\Generated_Source\PSoC4/CapSense_CSD_SMS.c **** 		CapSense_CSD_prescalersTuningDone = 1u;
 202:.\Generated_Source\PSoC4/CapSense_CSD_SMS.c **** 	#endif /* (CapSense_CSD_PRS_OPTIONS == CapSense_CSD__PRS_NONE) */
 203:.\Generated_Source\PSoC4/CapSense_CSD_SMS.c ****        
ARM GAS  C:\Users\Jakob\AppData\Local\Temp\ccFnfJVo.s 			page 8


 204:.\Generated_Source\PSoC4/CapSense_CSD_SMS.c ****     CalibrateSensors_P4_v2_0(&CapSense_CSD_config, CapSense_CSD_CAL_RAW_COUNT);
 193              		.loc 1 204 0
 194 0098 114A     		ldr	r2, .L8
 195 009a 184B     		ldr	r3, .L8+28
 196 009c 101C     		mov	r0, r2
 197 009e 191C     		mov	r1, r3
 198 00a0 FFF7FEFF 		bl	CalibrateSensors_P4_v2_0
 205:.\Generated_Source\PSoC4/CapSense_CSD_SMS.c **** 	CapSense_CSD_NormalizeWidgets(CapSense_CSD_END_OF_WIDGETS_INDEX, CapSense_CSD_modulationIDAC);
 199              		.loc 1 205 0
 200 00a4 164B     		ldr	r3, .L8+32
 201 00a6 0120     		mov	r0, #1
 202 00a8 191C     		mov	r1, r3
 203 00aa FFF7FEFF 		bl	CapSense_CSD_NormalizeWidgets
 206:.\Generated_Source\PSoC4/CapSense_CSD_SMS.c ****     TuneSensitivity_P4_v2_0(&CapSense_CSD_config);
 204              		.loc 1 206 0
 205 00ae 0C4B     		ldr	r3, .L8
 206 00b0 181C     		mov	r0, r3
 207 00b2 FFF7FEFF 		bl	TuneSensitivity_P4_v2_0
 207:.\Generated_Source\PSoC4/CapSense_CSD_SMS.c **** 	
 208:.\Generated_Source\PSoC4/CapSense_CSD_SMS.c **** 	CapSense_CSD_EnableBaselineIDAC(&CapSense_CSD_config);
 208              		.loc 1 208 0
 209 00b6 0A4B     		ldr	r3, .L8
 210 00b8 181C     		mov	r0, r3
 211 00ba FFF7FEFF 		bl	CapSense_CSD_EnableBaselineIDAC
 209:.\Generated_Source\PSoC4/CapSense_CSD_SMS.c ****     
 210:.\Generated_Source\PSoC4/CapSense_CSD_SMS.c ****     for(curSensor = 0u; curSensor < CapSense_CSD_TOTAL_SCANSLOT_COUNT; curSensor++)
 212              		.loc 1 210 0
 213 00be 0023     		mov	r3, #0
 214 00c0 7B60     		str	r3, [r7, #4]
 215 00c2 06E0     		b	.L6
 216              	.L7:
 211:.\Generated_Source\PSoC4/CapSense_CSD_SMS.c ****     {
 212:.\Generated_Source\PSoC4/CapSense_CSD_SMS.c ****         CapSense_CSD_UpdateThresholds(curSensor);
 217              		.loc 1 212 0 discriminator 2
 218 00c4 7B68     		ldr	r3, [r7, #4]
 219 00c6 181C     		mov	r0, r3
 220 00c8 FFF7FEFF 		bl	CapSense_CSD_UpdateThresholds
 210:.\Generated_Source\PSoC4/CapSense_CSD_SMS.c ****     for(curSensor = 0u; curSensor < CapSense_CSD_TOTAL_SCANSLOT_COUNT; curSensor++)
 221              		.loc 1 210 0 discriminator 2
 222 00cc 7B68     		ldr	r3, [r7, #4]
 223 00ce 0133     		add	r3, r3, #1
 224 00d0 7B60     		str	r3, [r7, #4]
 225              	.L6:
 210:.\Generated_Source\PSoC4/CapSense_CSD_SMS.c ****     for(curSensor = 0u; curSensor < CapSense_CSD_TOTAL_SCANSLOT_COUNT; curSensor++)
 226              		.loc 1 210 0 is_stmt 0 discriminator 1
 227 00d2 7B68     		ldr	r3, [r7, #4]
 228 00d4 042B     		cmp	r3, #4
 229 00d6 F5D9     		bls	.L7
 213:.\Generated_Source\PSoC4/CapSense_CSD_SMS.c ****     }
 214:.\Generated_Source\PSoC4/CapSense_CSD_SMS.c **** }
 230              		.loc 1 214 0 is_stmt 1
 231 00d8 BD46     		mov	sp, r7
 232 00da 02B0     		add	sp, sp, #8
 233              		@ sp needed for prologue
 234 00dc 80BD     		pop	{r7, pc}
 235              	.L9:
 236 00de C046     		.align	2
ARM GAS  C:\Users\Jakob\AppData\Local\Temp\ccFnfJVo.s 			page 9


 237              	.L8:
 238 00e0 00000000 		.word	CapSense_CSD_config
 239 00e4 CC040000 		.word	1228
 240 00e8 00000000 		.word	CapSense_CSD_configPointers
 241 00ec 00000000 		.word	CapSense_CSD_widgetResolution
 242 00f0 0000FF0F 		.word	268369920
 243 00f4 00000000 		.word	CapSense_CSD_senseClkDividerVal
 244 00f8 00000000 		.word	CapSense_CSD_sampleClkDividerVal
 245 00fc 9A0D0000 		.word	3482
 246 0100 00000000 		.word	CapSense_CSD_modulationIDAC
 247              		.cfi_endproc
 248              	.LFE33:
 249              		.size	CapSense_CSD_AutoTune, .-CapSense_CSD_AutoTune
 250              		.section	.text.CapSense_CSD_UpdateThresholds,"ax",%progbits
 251              		.align	2
 252              		.global	CapSense_CSD_UpdateThresholds
 253              		.code	16
 254              		.thumb_func
 255              		.type	CapSense_CSD_UpdateThresholds, %function
 256              	CapSense_CSD_UpdateThresholds:
 257              	.LFB34:
 215:.\Generated_Source\PSoC4/CapSense_CSD_SMS.c **** 
 216:.\Generated_Source\PSoC4/CapSense_CSD_SMS.c **** 
 217:.\Generated_Source\PSoC4/CapSense_CSD_SMS.c **** /*******************************************************************************
 218:.\Generated_Source\PSoC4/CapSense_CSD_SMS.c **** * Function Name: CapSense_CSD_UpdateThresholds
 219:.\Generated_Source\PSoC4/CapSense_CSD_SMS.c **** ********************************************************************************
 220:.\Generated_Source\PSoC4/CapSense_CSD_SMS.c **** *
 221:.\Generated_Source\PSoC4/CapSense_CSD_SMS.c **** * Summary:
 222:.\Generated_Source\PSoC4/CapSense_CSD_SMS.c **** *  The API updates the Finger Threshold, Hysteresis, Noise Threshold, and 
 223:.\Generated_Source\PSoC4/CapSense_CSD_SMS.c **** *  Negative Noise Threshold in the AutoTuning (Smartsense) Mode.
 224:.\Generated_Source\PSoC4/CapSense_CSD_SMS.c **** *
 225:.\Generated_Source\PSoC4/CapSense_CSD_SMS.c **** * Parameters:
 226:.\Generated_Source\PSoC4/CapSense_CSD_SMS.c **** *  sensor: sensor number.
 227:.\Generated_Source\PSoC4/CapSense_CSD_SMS.c **** *
 228:.\Generated_Source\PSoC4/CapSense_CSD_SMS.c **** * Return:
 229:.\Generated_Source\PSoC4/CapSense_CSD_SMS.c **** *  None
 230:.\Generated_Source\PSoC4/CapSense_CSD_SMS.c **** *
 231:.\Generated_Source\PSoC4/CapSense_CSD_SMS.c **** * Global Variables:
 232:.\Generated_Source\PSoC4/CapSense_CSD_SMS.c **** *  CapSense_CSD_widgetNumber[] - contains widget Number for given sensor.
 233:.\Generated_Source\PSoC4/CapSense_CSD_SMS.c **** *  0 through 7 (sensor 0 is bit 0, sensor 1 is bit 1).
 234:.\Generated_Source\PSoC4/CapSense_CSD_SMS.c **** *  For other sensors the array element equals to 255. 
 235:.\Generated_Source\PSoC4/CapSense_CSD_SMS.c **** *  CapSense_CSD_numberOfSensors[widget] - Number of sensors in the widget.
 236:.\Generated_Source\PSoC4/CapSense_CSD_SMS.c **** *   CapSense_CSD_fingerThreshold[] - contains the level of signal for each sensor
 237:.\Generated_Source\PSoC4/CapSense_CSD_SMS.c **** *   that determines if a finger present on the sensor.
 238:.\Generated_Source\PSoC4/CapSense_CSD_SMS.c **** *   CapSense_CSD_negativeNoiseThreshold[] - negative Noise Threshold
 239:.\Generated_Source\PSoC4/CapSense_CSD_SMS.c **** *   CapSense_CSD_hysteresis[] - the array with hysteresis values.
 240:.\Generated_Source\PSoC4/CapSense_CSD_SMS.c **** *
 241:.\Generated_Source\PSoC4/CapSense_CSD_SMS.c **** * Side Effects:
 242:.\Generated_Source\PSoC4/CapSense_CSD_SMS.c **** *  None
 243:.\Generated_Source\PSoC4/CapSense_CSD_SMS.c **** *
 244:.\Generated_Source\PSoC4/CapSense_CSD_SMS.c **** *******************************************************************************/
 245:.\Generated_Source\PSoC4/CapSense_CSD_SMS.c **** void CapSense_CSD_UpdateThresholds(uint32 sensor)
 246:.\Generated_Source\PSoC4/CapSense_CSD_SMS.c **** {
 258              		.loc 1 246 0
 259              		.cfi_startproc
 260 0000 90B5     		push	{r4, r7, lr}
 261              	.LCFI3:
ARM GAS  C:\Users\Jakob\AppData\Local\Temp\ccFnfJVo.s 			page 10


 262              		.cfi_def_cfa_offset 12
 263              		.cfi_offset 4, -12
 264              		.cfi_offset 7, -8
 265              		.cfi_offset 14, -4
 266 0002 87B0     		sub	sp, sp, #28
 267              	.LCFI4:
 268              		.cfi_def_cfa_offset 40
 269 0004 02AF     		add	r7, sp, #8
 270              	.LCFI5:
 271              		.cfi_def_cfa 7, 32
 272 0006 7860     		str	r0, [r7, #4]
 247:.\Generated_Source\PSoC4/CapSense_CSD_SMS.c **** 	uint8 fingerThreshold;
 248:.\Generated_Source\PSoC4/CapSense_CSD_SMS.c **** 	uint32 widget;
 249:.\Generated_Source\PSoC4/CapSense_CSD_SMS.c **** 	
 250:.\Generated_Source\PSoC4/CapSense_CSD_SMS.c **** 	widget = CapSense_CSD_widgetNumber[sensor];
 273              		.loc 1 250 0
 274 0008 314A     		ldr	r2, .L16
 275 000a 7B68     		ldr	r3, [r7, #4]
 276 000c D318     		add	r3, r2, r3
 277 000e 1B78     		ldrb	r3, [r3]
 278 0010 FB60     		str	r3, [r7, #12]
 251:.\Generated_Source\PSoC4/CapSense_CSD_SMS.c **** 
 252:.\Generated_Source\PSoC4/CapSense_CSD_SMS.c **** 	if(0u != CapSense_CSD_FLEXIBLE_THRESHOLDS_EN)
 253:.\Generated_Source\PSoC4/CapSense_CSD_SMS.c **** 	{
 254:.\Generated_Source\PSoC4/CapSense_CSD_SMS.c **** 	    fingerThreshold = CapSense_CSD_fingerThreshold[widget];
 255:.\Generated_Source\PSoC4/CapSense_CSD_SMS.c ****         /* Update Threshold manually (flexible) */   
 256:.\Generated_Source\PSoC4/CapSense_CSD_SMS.c **** 		CapSense_CSD_noiseThreshold[widget] = (uint8)(fingerThreshold >> 1u);
 257:.\Generated_Source\PSoC4/CapSense_CSD_SMS.c **** 		CapSense_CSD_negativeNoiseThreshold[widget] = (uint8)(fingerThreshold >> 1u);
 258:.\Generated_Source\PSoC4/CapSense_CSD_SMS.c **** 		CapSense_CSD_hysteresis[widget] = (uint8)(fingerThreshold >> 3u);
 259:.\Generated_Source\PSoC4/CapSense_CSD_SMS.c **** 	}
 260:.\Generated_Source\PSoC4/CapSense_CSD_SMS.c **** 	else
 261:.\Generated_Source\PSoC4/CapSense_CSD_SMS.c **** 	{
 262:.\Generated_Source\PSoC4/CapSense_CSD_SMS.c **** 		/* Calculate Finger Threshold and Noise Threshold with Smartsense (automatic) */ 	
 263:.\Generated_Source\PSoC4/CapSense_CSD_SMS.c **** 		CalculateThresholds_P4_v2_0(&CapSense_CSD_config, (uint8)sensor, CapSense_CSD_sensorRaw, (uint8)w
 279              		.loc 1 263 0
 280 0012 7B68     		ldr	r3, [r7, #4]
 281 0014 D9B2     		uxtb	r1, r3
 282 0016 FB68     		ldr	r3, [r7, #12]
 283 0018 DBB2     		uxtb	r3, r3
 284 001a 2E48     		ldr	r0, .L16+4
 285 001c 2E4A     		ldr	r2, .L16+8
 286 001e 2F4C     		ldr	r4, .L16+12
 287 0020 0094     		str	r4, [sp]
 288 0022 2F4C     		ldr	r4, .L16+16
 289 0024 0194     		str	r4, [sp, #4]
 290 0026 FFF7FEFF 		bl	CalculateThresholds_P4_v2_0
 264:.\Generated_Source\PSoC4/CapSense_CSD_SMS.c **** 		
 265:.\Generated_Source\PSoC4/CapSense_CSD_SMS.c **** 	    fingerThreshold = CapSense_CSD_fingerThreshold[widget];
 291              		.loc 1 265 0
 292 002a 3B1C     		mov	r3, r7
 293 002c 0B33     		add	r3, r3, #11
 294 002e 2B49     		ldr	r1, .L16+12
 295 0030 FA68     		ldr	r2, [r7, #12]
 296 0032 8A18     		add	r2, r1, r2
 297 0034 1278     		ldrb	r2, [r2]
 298 0036 1A70     		strb	r2, [r3]
 266:.\Generated_Source\PSoC4/CapSense_CSD_SMS.c **** 		
ARM GAS  C:\Users\Jakob\AppData\Local\Temp\ccFnfJVo.s 			page 11


 267:.\Generated_Source\PSoC4/CapSense_CSD_SMS.c **** 	    /* Update Threshold based on calculated with Smartsense (automatic) */
 268:.\Generated_Source\PSoC4/CapSense_CSD_SMS.c **** 		CapSense_CSD_negativeNoiseThreshold[widget] = CapSense_CSD_noiseThreshold[widget];
 299              		.loc 1 268 0
 300 0038 294A     		ldr	r2, .L16+16
 301 003a FB68     		ldr	r3, [r7, #12]
 302 003c D318     		add	r3, r2, r3
 303 003e 1A78     		ldrb	r2, [r3]
 304 0040 2849     		ldr	r1, .L16+20
 305 0042 FB68     		ldr	r3, [r7, #12]
 306 0044 CB18     		add	r3, r1, r3
 307 0046 1A70     		strb	r2, [r3]
 269:.\Generated_Source\PSoC4/CapSense_CSD_SMS.c ****         
 270:.\Generated_Source\PSoC4/CapSense_CSD_SMS.c **** 		if(fingerThreshold < CapSense_CSD_THRESHOLD_1)
 308              		.loc 1 270 0
 309 0048 3B1C     		mov	r3, r7
 310 004a 0B33     		add	r3, r3, #11
 311 004c 1B78     		ldrb	r3, [r3]
 312 004e DB2B     		cmp	r3, #219
 313 0050 09D8     		bhi	.L11
 271:.\Generated_Source\PSoC4/CapSense_CSD_SMS.c **** 		{
 272:.\Generated_Source\PSoC4/CapSense_CSD_SMS.c **** 			CapSense_CSD_hysteresis[widget] = (uint8)(fingerThreshold >> 3u);
 314              		.loc 1 272 0
 315 0052 3B1C     		mov	r3, r7
 316 0054 0B33     		add	r3, r3, #11
 317 0056 1B78     		ldrb	r3, [r3]
 318 0058 DB08     		lsr	r3, r3, #3
 319 005a DAB2     		uxtb	r2, r3
 320 005c 2249     		ldr	r1, .L16+24
 321 005e FB68     		ldr	r3, [r7, #12]
 322 0060 CB18     		add	r3, r1, r3
 323 0062 1A70     		strb	r2, [r3]
 324 0064 31E0     		b	.L10
 325              	.L11:
 273:.\Generated_Source\PSoC4/CapSense_CSD_SMS.c **** 		}
 274:.\Generated_Source\PSoC4/CapSense_CSD_SMS.c **** 		else if(fingerThreshold <  CapSense_CSD_THRESHOLD_2)
 326              		.loc 1 274 0
 327 0066 3B1C     		mov	r3, r7
 328 0068 0B33     		add	r3, r3, #11
 329 006a 1B78     		ldrb	r3, [r3]
 330 006c EC2B     		cmp	r3, #236
 331 006e 09D8     		bhi	.L13
 275:.\Generated_Source\PSoC4/CapSense_CSD_SMS.c **** 		{
 276:.\Generated_Source\PSoC4/CapSense_CSD_SMS.c **** 			CapSense_CSD_hysteresis[widget] = (uint8)(fingerThreshold >> 4u);
 332              		.loc 1 276 0
 333 0070 3B1C     		mov	r3, r7
 334 0072 0B33     		add	r3, r3, #11
 335 0074 1B78     		ldrb	r3, [r3]
 336 0076 1B09     		lsr	r3, r3, #4
 337 0078 DAB2     		uxtb	r2, r3
 338 007a 1B49     		ldr	r1, .L16+24
 339 007c FB68     		ldr	r3, [r7, #12]
 340 007e CB18     		add	r3, r1, r3
 341 0080 1A70     		strb	r2, [r3]
 342 0082 22E0     		b	.L10
 343              	.L13:
 277:.\Generated_Source\PSoC4/CapSense_CSD_SMS.c **** 		}
 278:.\Generated_Source\PSoC4/CapSense_CSD_SMS.c **** 		else if(fingerThreshold <  CapSense_CSD_THRESHOLD_3)
ARM GAS  C:\Users\Jakob\AppData\Local\Temp\ccFnfJVo.s 			page 12


 344              		.loc 1 278 0
 345 0084 3B1C     		mov	r3, r7
 346 0086 0B33     		add	r3, r3, #11
 347 0088 1B78     		ldrb	r3, [r3]
 348 008a F42B     		cmp	r3, #244
 349 008c 09D8     		bhi	.L14
 279:.\Generated_Source\PSoC4/CapSense_CSD_SMS.c **** 		{
 280:.\Generated_Source\PSoC4/CapSense_CSD_SMS.c **** 			CapSense_CSD_hysteresis[widget] = (uint8)(fingerThreshold >> 5u);
 350              		.loc 1 280 0
 351 008e 3B1C     		mov	r3, r7
 352 0090 0B33     		add	r3, r3, #11
 353 0092 1B78     		ldrb	r3, [r3]
 354 0094 5B09     		lsr	r3, r3, #5
 355 0096 DAB2     		uxtb	r2, r3
 356 0098 1349     		ldr	r1, .L16+24
 357 009a FB68     		ldr	r3, [r7, #12]
 358 009c CB18     		add	r3, r1, r3
 359 009e 1A70     		strb	r2, [r3]
 360 00a0 13E0     		b	.L10
 361              	.L14:
 281:.\Generated_Source\PSoC4/CapSense_CSD_SMS.c **** 		}
 282:.\Generated_Source\PSoC4/CapSense_CSD_SMS.c **** 		else if(fingerThreshold <  CapSense_CSD_THRESHOLD_4)
 362              		.loc 1 282 0
 363 00a2 3B1C     		mov	r3, r7
 364 00a4 0B33     		add	r3, r3, #11
 365 00a6 1B78     		ldrb	r3, [r3]
 366 00a8 F92B     		cmp	r3, #249
 367 00aa 09D8     		bhi	.L15
 283:.\Generated_Source\PSoC4/CapSense_CSD_SMS.c **** 		{
 284:.\Generated_Source\PSoC4/CapSense_CSD_SMS.c **** 			CapSense_CSD_hysteresis[widget] = (uint8)(fingerThreshold >> 6u);
 368              		.loc 1 284 0
 369 00ac 3B1C     		mov	r3, r7
 370 00ae 0B33     		add	r3, r3, #11
 371 00b0 1B78     		ldrb	r3, [r3]
 372 00b2 9B09     		lsr	r3, r3, #6
 373 00b4 DAB2     		uxtb	r2, r3
 374 00b6 0C49     		ldr	r1, .L16+24
 375 00b8 FB68     		ldr	r3, [r7, #12]
 376 00ba CB18     		add	r3, r1, r3
 377 00bc 1A70     		strb	r2, [r3]
 378 00be 04E0     		b	.L10
 379              	.L15:
 285:.\Generated_Source\PSoC4/CapSense_CSD_SMS.c **** 		}
 286:.\Generated_Source\PSoC4/CapSense_CSD_SMS.c **** 		else
 287:.\Generated_Source\PSoC4/CapSense_CSD_SMS.c **** 		{
 288:.\Generated_Source\PSoC4/CapSense_CSD_SMS.c **** 			CapSense_CSD_hysteresis[widget] = 0u;
 380              		.loc 1 288 0
 381 00c0 094A     		ldr	r2, .L16+24
 382 00c2 FB68     		ldr	r3, [r7, #12]
 383 00c4 D318     		add	r3, r2, r3
 384 00c6 0022     		mov	r2, #0
 385 00c8 1A70     		strb	r2, [r3]
 386              	.L10:
 289:.\Generated_Source\PSoC4/CapSense_CSD_SMS.c **** 		}
 290:.\Generated_Source\PSoC4/CapSense_CSD_SMS.c **** 	}
 291:.\Generated_Source\PSoC4/CapSense_CSD_SMS.c **** }
 387              		.loc 1 291 0
ARM GAS  C:\Users\Jakob\AppData\Local\Temp\ccFnfJVo.s 			page 13


 388 00ca BD46     		mov	sp, r7
 389 00cc 05B0     		add	sp, sp, #20
 390              		@ sp needed for prologue
 391 00ce 90BD     		pop	{r4, r7, pc}
 392              	.L17:
 393              		.align	2
 394              	.L16:
 395 00d0 00000000 		.word	CapSense_CSD_widgetNumber
 396 00d4 00000000 		.word	CapSense_CSD_config
 397 00d8 00000000 		.word	CapSense_CSD_sensorRaw
 398 00dc 00000000 		.word	CapSense_CSD_fingerThreshold
 399 00e0 00000000 		.word	CapSense_CSD_noiseThreshold
 400 00e4 00000000 		.word	CapSense_CSD_negativeNoiseThreshold
 401 00e8 00000000 		.word	CapSense_CSD_hysteresis
 402              		.cfi_endproc
 403              	.LFE34:
 404              		.size	CapSense_CSD_UpdateThresholds, .-CapSense_CSD_UpdateThresholds
 405              		.section	.text.CapSense_CSD_NormalizeWidgets,"ax",%progbits
 406              		.align	2
 407              		.global	CapSense_CSD_NormalizeWidgets
 408              		.code	16
 409              		.thumb_func
 410              		.type	CapSense_CSD_NormalizeWidgets, %function
 411              	CapSense_CSD_NormalizeWidgets:
 412              	.LFB35:
 292:.\Generated_Source\PSoC4/CapSense_CSD_SMS.c **** 
 293:.\Generated_Source\PSoC4/CapSense_CSD_SMS.c **** 
 294:.\Generated_Source\PSoC4/CapSense_CSD_SMS.c **** /*******************************************************************************
 295:.\Generated_Source\PSoC4/CapSense_CSD_SMS.c **** * Function Name: CapSense_CSD_NormalizeWidgets
 296:.\Generated_Source\PSoC4/CapSense_CSD_SMS.c **** ********************************************************************************
 297:.\Generated_Source\PSoC4/CapSense_CSD_SMS.c **** *
 298:.\Generated_Source\PSoC4/CapSense_CSD_SMS.c **** * Summary:
 299:.\Generated_Source\PSoC4/CapSense_CSD_SMS.c **** *  This API aligns all the parameters of the widget to the maximum parameter.
 300:.\Generated_Source\PSoC4/CapSense_CSD_SMS.c **** *
 301:.\Generated_Source\PSoC4/CapSense_CSD_SMS.c **** * Parameters:
 302:.\Generated_Source\PSoC4/CapSense_CSD_SMS.c **** *  uint32 widgetsNum: Number of widgets.
 303:.\Generated_Source\PSoC4/CapSense_CSD_SMS.c **** *  uint8 *datsPrt: pointer ro array with widget parameters.	
 304:.\Generated_Source\PSoC4/CapSense_CSD_SMS.c **** *
 305:.\Generated_Source\PSoC4/CapSense_CSD_SMS.c **** * Return:
 306:.\Generated_Source\PSoC4/CapSense_CSD_SMS.c **** *  None
 307:.\Generated_Source\PSoC4/CapSense_CSD_SMS.c **** *
 308:.\Generated_Source\PSoC4/CapSense_CSD_SMS.c **** * Global Variables:
 309:.\Generated_Source\PSoC4/CapSense_CSD_SMS.c **** *  CapSense_CSD_numberOfSensors[] - Number of sensors in the widget.
 310:.\Generated_Source\PSoC4/CapSense_CSD_SMS.c **** *  CapSense_CSD_rawDataIndex[currentWidget] - Contains the  1st sensor
 311:.\Generated_Source\PSoC4/CapSense_CSD_SMS.c **** *  position in the widget.
 312:.\Generated_Source\PSoC4/CapSense_CSD_SMS.c **** *
 313:.\Generated_Source\PSoC4/CapSense_CSD_SMS.c **** * Side Effects:
 314:.\Generated_Source\PSoC4/CapSense_CSD_SMS.c **** *  None
 315:.\Generated_Source\PSoC4/CapSense_CSD_SMS.c **** *
 316:.\Generated_Source\PSoC4/CapSense_CSD_SMS.c **** *******************************************************************************/
 317:.\Generated_Source\PSoC4/CapSense_CSD_SMS.c **** void CapSense_CSD_NormalizeWidgets(uint32 widgetsNum, uint8 *dataPtr)
 318:.\Generated_Source\PSoC4/CapSense_CSD_SMS.c **** {
 413              		.loc 1 318 0
 414              		.cfi_startproc
 415 0000 80B5     		push	{r7, lr}
 416              	.LCFI6:
 417              		.cfi_def_cfa_offset 8
ARM GAS  C:\Users\Jakob\AppData\Local\Temp\ccFnfJVo.s 			page 14


 418              		.cfi_offset 7, -8
 419              		.cfi_offset 14, -4
 420 0002 88B0     		sub	sp, sp, #32
 421              	.LCFI7:
 422              		.cfi_def_cfa_offset 40
 423 0004 00AF     		add	r7, sp, #0
 424              	.LCFI8:
 425              		.cfi_def_cfa_register 7
 426 0006 7860     		str	r0, [r7, #4]
 427 0008 3960     		str	r1, [r7]
 319:.\Generated_Source\PSoC4/CapSense_CSD_SMS.c **** 	uint32 currentWidget;
 320:.\Generated_Source\PSoC4/CapSense_CSD_SMS.c **** 	uint32 currentSensor;
 321:.\Generated_Source\PSoC4/CapSense_CSD_SMS.c **** 	uint32 lastSensor;
 322:.\Generated_Source\PSoC4/CapSense_CSD_SMS.c **** 	uint32 sensorsPerWidget;
 323:.\Generated_Source\PSoC4/CapSense_CSD_SMS.c **** 	uint32 maxPerWidget;
 324:.\Generated_Source\PSoC4/CapSense_CSD_SMS.c **** 
 325:.\Generated_Source\PSoC4/CapSense_CSD_SMS.c **** 	for(currentWidget = 0u; currentWidget < widgetsNum; currentWidget++)
 428              		.loc 1 325 0
 429 000a 0023     		mov	r3, #0
 430 000c FB61     		str	r3, [r7, #28]
 431 000e 3AE0     		b	.L19
 432              	.L25:
 326:.\Generated_Source\PSoC4/CapSense_CSD_SMS.c **** 	{
 327:.\Generated_Source\PSoC4/CapSense_CSD_SMS.c **** 		maxPerWidget = 0u;
 433              		.loc 1 327 0
 434 0010 0023     		mov	r3, #0
 435 0012 7B61     		str	r3, [r7, #20]
 328:.\Generated_Source\PSoC4/CapSense_CSD_SMS.c **** 		
 329:.\Generated_Source\PSoC4/CapSense_CSD_SMS.c **** 		sensorsPerWidget = CapSense_CSD_numberOfSensors[currentWidget];
 436              		.loc 1 329 0
 437 0014 1F4A     		ldr	r2, .L26
 438 0016 FB69     		ldr	r3, [r7, #28]
 439 0018 D318     		add	r3, r2, r3
 440 001a 1B78     		ldrb	r3, [r3]
 441 001c 3B61     		str	r3, [r7, #16]
 330:.\Generated_Source\PSoC4/CapSense_CSD_SMS.c **** 		currentSensor = CapSense_CSD_rawDataIndex[currentWidget];
 442              		.loc 1 330 0
 443 001e 1E4A     		ldr	r2, .L26+4
 444 0020 FB69     		ldr	r3, [r7, #28]
 445 0022 D318     		add	r3, r2, r3
 446 0024 1B78     		ldrb	r3, [r3]
 447 0026 BB61     		str	r3, [r7, #24]
 331:.\Generated_Source\PSoC4/CapSense_CSD_SMS.c **** 		lastSensor = currentSensor + sensorsPerWidget;
 448              		.loc 1 331 0
 449 0028 BA69     		ldr	r2, [r7, #24]
 450 002a 3B69     		ldr	r3, [r7, #16]
 451 002c D318     		add	r3, r2, r3
 452 002e FB60     		str	r3, [r7, #12]
 332:.\Generated_Source\PSoC4/CapSense_CSD_SMS.c **** 		
 333:.\Generated_Source\PSoC4/CapSense_CSD_SMS.c **** 		while(currentSensor < lastSensor)
 453              		.loc 1 333 0
 454 0030 0FE0     		b	.L20
 455              	.L22:
 334:.\Generated_Source\PSoC4/CapSense_CSD_SMS.c **** 		{
 335:.\Generated_Source\PSoC4/CapSense_CSD_SMS.c **** 			if(maxPerWidget < dataPtr[currentSensor])
 456              		.loc 1 335 0
 457 0032 3A68     		ldr	r2, [r7]
ARM GAS  C:\Users\Jakob\AppData\Local\Temp\ccFnfJVo.s 			page 15


 458 0034 BB69     		ldr	r3, [r7, #24]
 459 0036 D318     		add	r3, r2, r3
 460 0038 1B78     		ldrb	r3, [r3]
 461 003a 1A1C     		mov	r2, r3
 462 003c 7B69     		ldr	r3, [r7, #20]
 463 003e 9A42     		cmp	r2, r3
 464 0040 04D9     		bls	.L21
 336:.\Generated_Source\PSoC4/CapSense_CSD_SMS.c **** 			{
 337:.\Generated_Source\PSoC4/CapSense_CSD_SMS.c **** 				maxPerWidget = dataPtr[currentSensor];
 465              		.loc 1 337 0
 466 0042 3A68     		ldr	r2, [r7]
 467 0044 BB69     		ldr	r3, [r7, #24]
 468 0046 D318     		add	r3, r2, r3
 469 0048 1B78     		ldrb	r3, [r3]
 470 004a 7B61     		str	r3, [r7, #20]
 471              	.L21:
 338:.\Generated_Source\PSoC4/CapSense_CSD_SMS.c **** 			}
 339:.\Generated_Source\PSoC4/CapSense_CSD_SMS.c **** 			currentSensor++;
 472              		.loc 1 339 0
 473 004c BB69     		ldr	r3, [r7, #24]
 474 004e 0133     		add	r3, r3, #1
 475 0050 BB61     		str	r3, [r7, #24]
 476              	.L20:
 333:.\Generated_Source\PSoC4/CapSense_CSD_SMS.c **** 		while(currentSensor < lastSensor)
 477              		.loc 1 333 0 discriminator 1
 478 0052 BA69     		ldr	r2, [r7, #24]
 479 0054 FB68     		ldr	r3, [r7, #12]
 480 0056 9A42     		cmp	r2, r3
 481 0058 EBD3     		bcc	.L22
 340:.\Generated_Source\PSoC4/CapSense_CSD_SMS.c **** 		}
 341:.\Generated_Source\PSoC4/CapSense_CSD_SMS.c **** 		
 342:.\Generated_Source\PSoC4/CapSense_CSD_SMS.c **** 		currentSensor = CapSense_CSD_rawDataIndex[currentWidget];
 482              		.loc 1 342 0
 483 005a 0F4A     		ldr	r2, .L26+4
 484 005c FB69     		ldr	r3, [r7, #28]
 485 005e D318     		add	r3, r2, r3
 486 0060 1B78     		ldrb	r3, [r3]
 487 0062 BB61     		str	r3, [r7, #24]
 343:.\Generated_Source\PSoC4/CapSense_CSD_SMS.c **** 		
 344:.\Generated_Source\PSoC4/CapSense_CSD_SMS.c **** 		while(currentSensor < lastSensor)
 488              		.loc 1 344 0
 489 0064 08E0     		b	.L23
 490              	.L24:
 345:.\Generated_Source\PSoC4/CapSense_CSD_SMS.c **** 		{
 346:.\Generated_Source\PSoC4/CapSense_CSD_SMS.c **** 			dataPtr[currentSensor] = (uint8)maxPerWidget;
 491              		.loc 1 346 0
 492 0066 3A68     		ldr	r2, [r7]
 493 0068 BB69     		ldr	r3, [r7, #24]
 494 006a D318     		add	r3, r2, r3
 495 006c 7A69     		ldr	r2, [r7, #20]
 496 006e D2B2     		uxtb	r2, r2
 497 0070 1A70     		strb	r2, [r3]
 347:.\Generated_Source\PSoC4/CapSense_CSD_SMS.c **** 			currentSensor++;
 498              		.loc 1 347 0
 499 0072 BB69     		ldr	r3, [r7, #24]
 500 0074 0133     		add	r3, r3, #1
 501 0076 BB61     		str	r3, [r7, #24]
ARM GAS  C:\Users\Jakob\AppData\Local\Temp\ccFnfJVo.s 			page 16


 502              	.L23:
 344:.\Generated_Source\PSoC4/CapSense_CSD_SMS.c **** 		while(currentSensor < lastSensor)
 503              		.loc 1 344 0 discriminator 1
 504 0078 BA69     		ldr	r2, [r7, #24]
 505 007a FB68     		ldr	r3, [r7, #12]
 506 007c 9A42     		cmp	r2, r3
 507 007e F2D3     		bcc	.L24
 325:.\Generated_Source\PSoC4/CapSense_CSD_SMS.c **** 	for(currentWidget = 0u; currentWidget < widgetsNum; currentWidget++)
 508              		.loc 1 325 0
 509 0080 FB69     		ldr	r3, [r7, #28]
 510 0082 0133     		add	r3, r3, #1
 511 0084 FB61     		str	r3, [r7, #28]
 512              	.L19:
 325:.\Generated_Source\PSoC4/CapSense_CSD_SMS.c **** 	for(currentWidget = 0u; currentWidget < widgetsNum; currentWidget++)
 513              		.loc 1 325 0 is_stmt 0 discriminator 1
 514 0086 FA69     		ldr	r2, [r7, #28]
 515 0088 7B68     		ldr	r3, [r7, #4]
 516 008a 9A42     		cmp	r2, r3
 517 008c C0D3     		bcc	.L25
 348:.\Generated_Source\PSoC4/CapSense_CSD_SMS.c **** 		}
 349:.\Generated_Source\PSoC4/CapSense_CSD_SMS.c **** 	}
 350:.\Generated_Source\PSoC4/CapSense_CSD_SMS.c **** }
 518              		.loc 1 350 0 is_stmt 1
 519 008e BD46     		mov	sp, r7
 520 0090 08B0     		add	sp, sp, #32
 521              		@ sp needed for prologue
 522 0092 80BD     		pop	{r7, pc}
 523              	.L27:
 524              		.align	2
 525              	.L26:
 526 0094 00000000 		.word	CapSense_CSD_numberOfSensors
 527 0098 00000000 		.word	CapSense_CSD_rawDataIndex
 528              		.cfi_endproc
 529              	.LFE35:
 530              		.size	CapSense_CSD_NormalizeWidgets, .-CapSense_CSD_NormalizeWidgets
 531              		.section	.text.CapSense_CSD_SetAnalogSwitchesSrcDirect,"ax",%progbits
 532              		.align	2
 533              		.global	CapSense_CSD_SetAnalogSwitchesSrcDirect
 534              		.code	16
 535              		.thumb_func
 536              		.type	CapSense_CSD_SetAnalogSwitchesSrcDirect, %function
 537              	CapSense_CSD_SetAnalogSwitchesSrcDirect:
 538              	.LFB36:
 351:.\Generated_Source\PSoC4/CapSense_CSD_SMS.c **** 
 352:.\Generated_Source\PSoC4/CapSense_CSD_SMS.c **** /*******************************************************************************
 353:.\Generated_Source\PSoC4/CapSense_CSD_SMS.c **** * Function Name: CapSense_CSD_SetAnalogSwitchesSrcDirect
 354:.\Generated_Source\PSoC4/CapSense_CSD_SMS.c **** ********************************************************************************
 355:.\Generated_Source\PSoC4/CapSense_CSD_SMS.c **** *
 356:.\Generated_Source\PSoC4/CapSense_CSD_SMS.c **** * Summary:
 357:.\Generated_Source\PSoC4/CapSense_CSD_SMS.c **** *  This API switches the charge clock source to prescaler. 
 358:.\Generated_Source\PSoC4/CapSense_CSD_SMS.c **** *
 359:.\Generated_Source\PSoC4/CapSense_CSD_SMS.c **** * Parameters:
 360:.\Generated_Source\PSoC4/CapSense_CSD_SMS.c **** *  None
 361:.\Generated_Source\PSoC4/CapSense_CSD_SMS.c **** *
 362:.\Generated_Source\PSoC4/CapSense_CSD_SMS.c **** * Return:
 363:.\Generated_Source\PSoC4/CapSense_CSD_SMS.c **** *  None
 364:.\Generated_Source\PSoC4/CapSense_CSD_SMS.c **** *
ARM GAS  C:\Users\Jakob\AppData\Local\Temp\ccFnfJVo.s 			page 17


 365:.\Generated_Source\PSoC4/CapSense_CSD_SMS.c **** * Global Variables:
 366:.\Generated_Source\PSoC4/CapSense_CSD_SMS.c **** *  None
 367:.\Generated_Source\PSoC4/CapSense_CSD_SMS.c **** *
 368:.\Generated_Source\PSoC4/CapSense_CSD_SMS.c **** * Side Effects:
 369:.\Generated_Source\PSoC4/CapSense_CSD_SMS.c **** *  None
 370:.\Generated_Source\PSoC4/CapSense_CSD_SMS.c **** *
 371:.\Generated_Source\PSoC4/CapSense_CSD_SMS.c **** *******************************************************************************/
 372:.\Generated_Source\PSoC4/CapSense_CSD_SMS.c **** void CapSense_CSD_SetAnalogSwitchesSrcDirect(void)
 373:.\Generated_Source\PSoC4/CapSense_CSD_SMS.c **** {
 539              		.loc 1 373 0
 540              		.cfi_startproc
 541 0000 80B5     		push	{r7, lr}
 542              	.LCFI9:
 543              		.cfi_def_cfa_offset 8
 544              		.cfi_offset 7, -8
 545              		.cfi_offset 14, -4
 546 0002 00AF     		add	r7, sp, #0
 547              	.LCFI10:
 548              		.cfi_def_cfa_register 7
 374:.\Generated_Source\PSoC4/CapSense_CSD_SMS.c **** 	CapSense_CSD_CSD_CFG_REG &= ~(CapSense_CSD_CSD_CFG_PRS_SELECT);
 549              		.loc 1 374 0
 550 0004 034B     		ldr	r3, .L29
 551 0006 034A     		ldr	r2, .L29
 552 0008 1268     		ldr	r2, [r2]
 553 000a 4021     		mov	r1, #64
 554 000c 8A43     		bic	r2, r1
 555 000e 1A60     		str	r2, [r3]
 375:.\Generated_Source\PSoC4/CapSense_CSD_SMS.c **** }
 556              		.loc 1 375 0
 557 0010 BD46     		mov	sp, r7
 558              		@ sp needed for prologue
 559 0012 80BD     		pop	{r7, pc}
 560              	.L30:
 561              		.align	2
 562              	.L29:
 563 0014 04000840 		.word	1074266116
 564              		.cfi_endproc
 565              	.LFE36:
 566              		.size	CapSense_CSD_SetAnalogSwitchesSrcDirect, .-CapSense_CSD_SetAnalogSwitchesSrcDirect
 567              		.section	.text.CapSense_CSD_DisableBaselineIDAC,"ax",%progbits
 568              		.align	2
 569              		.global	CapSense_CSD_DisableBaselineIDAC
 570              		.code	16
 571              		.thumb_func
 572              		.type	CapSense_CSD_DisableBaselineIDAC, %function
 573              	CapSense_CSD_DisableBaselineIDAC:
 574              	.LFB37:
 376:.\Generated_Source\PSoC4/CapSense_CSD_SMS.c **** 
 377:.\Generated_Source\PSoC4/CapSense_CSD_SMS.c **** 
 378:.\Generated_Source\PSoC4/CapSense_CSD_SMS.c **** /*******************************************************************************
 379:.\Generated_Source\PSoC4/CapSense_CSD_SMS.c **** * Function Name: CapSense_CSD_DisableBaselineIDAC
 380:.\Generated_Source\PSoC4/CapSense_CSD_SMS.c **** ********************************************************************************
 381:.\Generated_Source\PSoC4/CapSense_CSD_SMS.c **** *
 382:.\Generated_Source\PSoC4/CapSense_CSD_SMS.c **** * Summary:
 383:.\Generated_Source\PSoC4/CapSense_CSD_SMS.c **** *  The API disables the Compensation IDAC. 
 384:.\Generated_Source\PSoC4/CapSense_CSD_SMS.c **** *
 385:.\Generated_Source\PSoC4/CapSense_CSD_SMS.c **** * Parameters:
ARM GAS  C:\Users\Jakob\AppData\Local\Temp\ccFnfJVo.s 			page 18


 386:.\Generated_Source\PSoC4/CapSense_CSD_SMS.c **** *  None
 387:.\Generated_Source\PSoC4/CapSense_CSD_SMS.c **** *
 388:.\Generated_Source\PSoC4/CapSense_CSD_SMS.c **** * Return:
 389:.\Generated_Source\PSoC4/CapSense_CSD_SMS.c **** *  None
 390:.\Generated_Source\PSoC4/CapSense_CSD_SMS.c **** *
 391:.\Generated_Source\PSoC4/CapSense_CSD_SMS.c **** * Global Variables:
 392:.\Generated_Source\PSoC4/CapSense_CSD_SMS.c **** *  None
 393:.\Generated_Source\PSoC4/CapSense_CSD_SMS.c **** *
 394:.\Generated_Source\PSoC4/CapSense_CSD_SMS.c **** * Side Effects:
 395:.\Generated_Source\PSoC4/CapSense_CSD_SMS.c **** *  None
 396:.\Generated_Source\PSoC4/CapSense_CSD_SMS.c **** *
 397:.\Generated_Source\PSoC4/CapSense_CSD_SMS.c **** *******************************************************************************/
 398:.\Generated_Source\PSoC4/CapSense_CSD_SMS.c **** void CapSense_CSD_DisableBaselineIDAC(void)
 399:.\Generated_Source\PSoC4/CapSense_CSD_SMS.c **** {
 575              		.loc 1 399 0
 576              		.cfi_startproc
 577 0000 80B5     		push	{r7, lr}
 578              	.LCFI11:
 579              		.cfi_def_cfa_offset 8
 580              		.cfi_offset 7, -8
 581              		.cfi_offset 14, -4
 582 0002 82B0     		sub	sp, sp, #8
 583              	.LCFI12:
 584              		.cfi_def_cfa_offset 16
 585 0004 00AF     		add	r7, sp, #0
 586              	.LCFI13:
 587              		.cfi_def_cfa_register 7
 400:.\Generated_Source\PSoC4/CapSense_CSD_SMS.c **** 	uint32 newRegValue;
 401:.\Generated_Source\PSoC4/CapSense_CSD_SMS.c ****     
 402:.\Generated_Source\PSoC4/CapSense_CSD_SMS.c ****     newRegValue = CapSense_CSD_CSD_IDAC_REG;
 588              		.loc 1 402 0
 589 0006 094B     		ldr	r3, .L32
 590 0008 1B68     		ldr	r3, [r3]
 591 000a 7B60     		str	r3, [r7, #4]
 403:.\Generated_Source\PSoC4/CapSense_CSD_SMS.c ****     
 404:.\Generated_Source\PSoC4/CapSense_CSD_SMS.c ****     newRegValue &= ~(CapSense_CSD_CSD_IDAC1_MODE_MASK | CapSense_CSD_CSD_IDAC2_MODE_MASK);
 592              		.loc 1 404 0
 593 000c 7A68     		ldr	r2, [r7, #4]
 594 000e 084B     		ldr	r3, .L32+4
 595 0010 1340     		and	r3, r2
 596 0012 7B60     		str	r3, [r7, #4]
 405:.\Generated_Source\PSoC4/CapSense_CSD_SMS.c ****     newRegValue |= CapSense_CSD_CSD_IDAC1_MODE_VARIABLE;
 597              		.loc 1 405 0
 598 0014 7B68     		ldr	r3, [r7, #4]
 599 0016 8022     		mov	r2, #128
 600 0018 9200     		lsl	r2, r2, #2
 601 001a 1343     		orr	r3, r2
 602 001c 7B60     		str	r3, [r7, #4]
 406:.\Generated_Source\PSoC4/CapSense_CSD_SMS.c ****     
 407:.\Generated_Source\PSoC4/CapSense_CSD_SMS.c **** 	CapSense_CSD_CSD_IDAC_REG = newRegValue;
 603              		.loc 1 407 0
 604 001e 034B     		ldr	r3, .L32
 605 0020 7A68     		ldr	r2, [r7, #4]
 606 0022 1A60     		str	r2, [r3]
 408:.\Generated_Source\PSoC4/CapSense_CSD_SMS.c **** }
 607              		.loc 1 408 0
 608 0024 BD46     		mov	sp, r7
ARM GAS  C:\Users\Jakob\AppData\Local\Temp\ccFnfJVo.s 			page 19


 609 0026 02B0     		add	sp, sp, #8
 610              		@ sp needed for prologue
 611 0028 80BD     		pop	{r7, pc}
 612              	.L33:
 613 002a C046     		.align	2
 614              	.L32:
 615 002c 08000840 		.word	1074266120
 616 0030 FFFCFFFC 		.word	-50332417
 617              		.cfi_endproc
 618              	.LFE37:
 619              		.size	CapSense_CSD_DisableBaselineIDAC, .-CapSense_CSD_DisableBaselineIDAC
 620              		.section	.text.CapSense_CSD_EnableBaselineIDAC,"ax",%progbits
 621              		.align	2
 622              		.global	CapSense_CSD_EnableBaselineIDAC
 623              		.code	16
 624              		.thumb_func
 625              		.type	CapSense_CSD_EnableBaselineIDAC, %function
 626              	CapSense_CSD_EnableBaselineIDAC:
 627              	.LFB38:
 409:.\Generated_Source\PSoC4/CapSense_CSD_SMS.c **** 
 410:.\Generated_Source\PSoC4/CapSense_CSD_SMS.c **** 
 411:.\Generated_Source\PSoC4/CapSense_CSD_SMS.c **** /*******************************************************************************
 412:.\Generated_Source\PSoC4/CapSense_CSD_SMS.c **** * Function Name: CapSense_CSD_EnableBaselineIDAC
 413:.\Generated_Source\PSoC4/CapSense_CSD_SMS.c **** ********************************************************************************
 414:.\Generated_Source\PSoC4/CapSense_CSD_SMS.c **** *
 415:.\Generated_Source\PSoC4/CapSense_CSD_SMS.c **** * Summary:
 416:.\Generated_Source\PSoC4/CapSense_CSD_SMS.c **** *  The API enables the Compensation IDAC. 
 417:.\Generated_Source\PSoC4/CapSense_CSD_SMS.c **** *
 418:.\Generated_Source\PSoC4/CapSense_CSD_SMS.c **** * Parameters:
 419:.\Generated_Source\PSoC4/CapSense_CSD_SMS.c **** *  None
 420:.\Generated_Source\PSoC4/CapSense_CSD_SMS.c **** *
 421:.\Generated_Source\PSoC4/CapSense_CSD_SMS.c **** * Return:
 422:.\Generated_Source\PSoC4/CapSense_CSD_SMS.c **** *  None
 423:.\Generated_Source\PSoC4/CapSense_CSD_SMS.c **** *
 424:.\Generated_Source\PSoC4/CapSense_CSD_SMS.c **** * Global Variables:
 425:.\Generated_Source\PSoC4/CapSense_CSD_SMS.c **** *  CapSense_CSD_compensationIDAC[] - used to store a 7-bit idac value for all the sensors.
 426:.\Generated_Source\PSoC4/CapSense_CSD_SMS.c **** *
 427:.\Generated_Source\PSoC4/CapSense_CSD_SMS.c **** * Side Effects:
 428:.\Generated_Source\PSoC4/CapSense_CSD_SMS.c **** *  None
 429:.\Generated_Source\PSoC4/CapSense_CSD_SMS.c **** *
 430:.\Generated_Source\PSoC4/CapSense_CSD_SMS.c **** *******************************************************************************/
 431:.\Generated_Source\PSoC4/CapSense_CSD_SMS.c **** void  CapSense_CSD_EnableBaselineIDAC(const CapSense_CSD_CONFIG_TYPE_P4_v2_0 *config)
 432:.\Generated_Source\PSoC4/CapSense_CSD_SMS.c **** {
 628              		.loc 1 432 0
 629              		.cfi_startproc
 630 0000 80B5     		push	{r7, lr}
 631              	.LCFI14:
 632              		.cfi_def_cfa_offset 8
 633              		.cfi_offset 7, -8
 634              		.cfi_offset 14, -4
 635 0002 84B0     		sub	sp, sp, #16
 636              	.LCFI15:
 637              		.cfi_def_cfa_offset 24
 638 0004 00AF     		add	r7, sp, #0
 639              	.LCFI16:
 640              		.cfi_def_cfa_register 7
 641 0006 7860     		str	r0, [r7, #4]
ARM GAS  C:\Users\Jakob\AppData\Local\Temp\ccFnfJVo.s 			page 20


 433:.\Generated_Source\PSoC4/CapSense_CSD_SMS.c ****     uint32 curSensor;
 434:.\Generated_Source\PSoC4/CapSense_CSD_SMS.c ****     uint32 newRegValue;
 435:.\Generated_Source\PSoC4/CapSense_CSD_SMS.c **** 
 436:.\Generated_Source\PSoC4/CapSense_CSD_SMS.c ****     for(curSensor = 0u; curSensor < config->totalScanslotsNum; curSensor++)
 642              		.loc 1 436 0
 643 0008 0023     		mov	r3, #0
 644 000a FB60     		str	r3, [r7, #12]
 645 000c 17E0     		b	.L35
 646              	.L36:
 437:.\Generated_Source\PSoC4/CapSense_CSD_SMS.c ****     {
 438:.\Generated_Source\PSoC4/CapSense_CSD_SMS.c **** 		CapSense_CSD_compensationIDAC[curSensor] = CapSense_CSD_modulationIDAC[curSensor] / 2u;
 647              		.loc 1 438 0 discriminator 2
 648 000e 1A4A     		ldr	r2, .L37
 649 0010 FB68     		ldr	r3, [r7, #12]
 650 0012 D318     		add	r3, r2, r3
 651 0014 1B78     		ldrb	r3, [r3]
 652 0016 5B08     		lsr	r3, r3, #1
 653 0018 DAB2     		uxtb	r2, r3
 654 001a 1849     		ldr	r1, .L37+4
 655 001c FB68     		ldr	r3, [r7, #12]
 656 001e CB18     		add	r3, r1, r3
 657 0020 1A70     		strb	r2, [r3]
 439:.\Generated_Source\PSoC4/CapSense_CSD_SMS.c **** 	    CapSense_CSD_modulationIDAC[curSensor] = (CapSense_CSD_modulationIDAC[curSensor] + 1u) / 2u;
 658              		.loc 1 439 0 discriminator 2
 659 0022 154A     		ldr	r2, .L37
 660 0024 FB68     		ldr	r3, [r7, #12]
 661 0026 D318     		add	r3, r2, r3
 662 0028 1B78     		ldrb	r3, [r3]
 663 002a 0133     		add	r3, r3, #1
 664 002c 5B08     		lsr	r3, r3, #1
 665 002e DAB2     		uxtb	r2, r3
 666 0030 1149     		ldr	r1, .L37
 667 0032 FB68     		ldr	r3, [r7, #12]
 668 0034 CB18     		add	r3, r1, r3
 669 0036 1A70     		strb	r2, [r3]
 436:.\Generated_Source\PSoC4/CapSense_CSD_SMS.c ****     for(curSensor = 0u; curSensor < config->totalScanslotsNum; curSensor++)
 670              		.loc 1 436 0 discriminator 2
 671 0038 FB68     		ldr	r3, [r7, #12]
 672 003a 0133     		add	r3, r3, #1
 673 003c FB60     		str	r3, [r7, #12]
 674              	.L35:
 436:.\Generated_Source\PSoC4/CapSense_CSD_SMS.c ****     for(curSensor = 0u; curSensor < config->totalScanslotsNum; curSensor++)
 675              		.loc 1 436 0 is_stmt 0 discriminator 1
 676 003e 7B68     		ldr	r3, [r7, #4]
 677 0040 1B78     		ldrb	r3, [r3]
 678 0042 1A1C     		mov	r2, r3
 679 0044 FB68     		ldr	r3, [r7, #12]
 680 0046 9A42     		cmp	r2, r3
 681 0048 E1D8     		bhi	.L36
 440:.\Generated_Source\PSoC4/CapSense_CSD_SMS.c ****     }
 441:.\Generated_Source\PSoC4/CapSense_CSD_SMS.c **** 	
 442:.\Generated_Source\PSoC4/CapSense_CSD_SMS.c **** 	CyIntDisable(CapSense_CSD_ISR_NUMBER);
 682              		.loc 1 442 0 is_stmt 1
 683 004a 0F20     		mov	r0, #15
 684 004c FFF7FEFF 		bl	CyIntDisable
 443:.\Generated_Source\PSoC4/CapSense_CSD_SMS.c **** 	
 444:.\Generated_Source\PSoC4/CapSense_CSD_SMS.c **** 	newRegValue = CapSense_CSD_CSD_IDAC_REG;
ARM GAS  C:\Users\Jakob\AppData\Local\Temp\ccFnfJVo.s 			page 21


 685              		.loc 1 444 0
 686 0050 0B4B     		ldr	r3, .L37+8
 687 0052 1B68     		ldr	r3, [r3]
 688 0054 BB60     		str	r3, [r7, #8]
 445:.\Generated_Source\PSoC4/CapSense_CSD_SMS.c ****     newRegValue &= ~(CapSense_CSD_CSD_IDAC1_MODE_MASK | CapSense_CSD_CSD_IDAC2_MODE_MASK);
 689              		.loc 1 445 0
 690 0056 BA68     		ldr	r2, [r7, #8]
 691 0058 0A4B     		ldr	r3, .L37+12
 692 005a 1340     		and	r3, r2
 693 005c BB60     		str	r3, [r7, #8]
 446:.\Generated_Source\PSoC4/CapSense_CSD_SMS.c ****     newRegValue |= (CapSense_CSD_CSD_IDAC1_MODE_VARIABLE | CapSense_CSD_CSD_IDAC2_MODE_FIXED);
 694              		.loc 1 446 0
 695 005e BB68     		ldr	r3, [r7, #8]
 696 0060 094A     		ldr	r2, .L37+16
 697 0062 1343     		orr	r3, r2
 698 0064 BB60     		str	r3, [r7, #8]
 447:.\Generated_Source\PSoC4/CapSense_CSD_SMS.c ****     CapSense_CSD_CSD_IDAC_REG = newRegValue;
 699              		.loc 1 447 0
 700 0066 064B     		ldr	r3, .L37+8
 701 0068 BA68     		ldr	r2, [r7, #8]
 702 006a 1A60     		str	r2, [r3]
 448:.\Generated_Source\PSoC4/CapSense_CSD_SMS.c **** 	
 449:.\Generated_Source\PSoC4/CapSense_CSD_SMS.c **** 	CyIntEnable(CapSense_CSD_ISR_NUMBER);
 703              		.loc 1 449 0
 704 006c 0F20     		mov	r0, #15
 705 006e FFF7FEFF 		bl	CyIntEnable
 450:.\Generated_Source\PSoC4/CapSense_CSD_SMS.c **** }
 706              		.loc 1 450 0
 707 0072 BD46     		mov	sp, r7
 708 0074 04B0     		add	sp, sp, #16
 709              		@ sp needed for prologue
 710 0076 80BD     		pop	{r7, pc}
 711              	.L38:
 712              		.align	2
 713              	.L37:
 714 0078 00000000 		.word	CapSense_CSD_modulationIDAC
 715 007c 00000000 		.word	CapSense_CSD_compensationIDAC
 716 0080 08000840 		.word	1074266120
 717 0084 FFFCFFFC 		.word	-50332417
 718 0088 00020001 		.word	16777728
 719              		.cfi_endproc
 720              	.LFE38:
 721              		.size	CapSense_CSD_EnableBaselineIDAC, .-CapSense_CSD_EnableBaselineIDAC
 722              		.section	.text.CapSense_CSD_SetSensitivity,"ax",%progbits
 723              		.align	2
 724              		.global	CapSense_CSD_SetSensitivity
 725              		.code	16
 726              		.thumb_func
 727              		.type	CapSense_CSD_SetSensitivity, %function
 728              	CapSense_CSD_SetSensitivity:
 729              	.LFB39:
 451:.\Generated_Source\PSoC4/CapSense_CSD_SMS.c **** 
 452:.\Generated_Source\PSoC4/CapSense_CSD_SMS.c **** 
 453:.\Generated_Source\PSoC4/CapSense_CSD_SMS.c **** /*******************************************************************************
 454:.\Generated_Source\PSoC4/CapSense_CSD_SMS.c **** * Function Name: CapSense_CSD_SetSensitivity
 455:.\Generated_Source\PSoC4/CapSense_CSD_SMS.c **** ********************************************************************************
 456:.\Generated_Source\PSoC4/CapSense_CSD_SMS.c **** *
ARM GAS  C:\Users\Jakob\AppData\Local\Temp\ccFnfJVo.s 			page 22


 457:.\Generated_Source\PSoC4/CapSense_CSD_SMS.c **** * Summary:
 458:.\Generated_Source\PSoC4/CapSense_CSD_SMS.c **** *  This API sets the sensitivity value for the sensor. The sensitivity 
 459:.\Generated_Source\PSoC4/CapSense_CSD_SMS.c **** *  value is used during the auto-tuning algorithm executed as part of the CapSense_Start API.
 460:.\Generated_Source\PSoC4/CapSense_CSD_SMS.c **** *  This API is called by the application layer prior to calling the CapSense_Start API. 
 461:.\Generated_Source\PSoC4/CapSense_CSD_SMS.c **** *  Calling this API after execution of CapSense_Start API has no effect. 
 462:.\Generated_Source\PSoC4/CapSense_CSD_SMS.c **** *
 463:.\Generated_Source\PSoC4/CapSense_CSD_SMS.c **** * Parameters: 
 464:.\Generated_Source\PSoC4/CapSense_CSD_SMS.c **** *  sensor  Sensor index 
 465:.\Generated_Source\PSoC4/CapSense_CSD_SMS.c **** *  data    Sensitivity of the sensor. Possible values are below
 466:.\Generated_Source\PSoC4/CapSense_CSD_SMS.c **** *  1 - 0.1pf sensitivity
 467:.\Generated_Source\PSoC4/CapSense_CSD_SMS.c **** *  2 - 0.2pf sensitivity
 468:.\Generated_Source\PSoC4/CapSense_CSD_SMS.c **** *  3 - 0.3pf sensitivity
 469:.\Generated_Source\PSoC4/CapSense_CSD_SMS.c **** *  4 - 0.4pf sensitivity
 470:.\Generated_Source\PSoC4/CapSense_CSD_SMS.c **** *  All other values, set sensitivity to 0.4pf
 471:.\Generated_Source\PSoC4/CapSense_CSD_SMS.c **** *
 472:.\Generated_Source\PSoC4/CapSense_CSD_SMS.c **** *  Return Value:
 473:.\Generated_Source\PSoC4/CapSense_CSD_SMS.c **** *   None
 474:.\Generated_Source\PSoC4/CapSense_CSD_SMS.c **** *
 475:.\Generated_Source\PSoC4/CapSense_CSD_SMS.c **** * Global Variables:
 476:.\Generated_Source\PSoC4/CapSense_CSD_SMS.c **** * SMS_LIB_SensorSensitivity[] - This 8-bits array contains Sensitivity in the LSB nibble
 477:.\Generated_Source\PSoC4/CapSense_CSD_SMS.c **** *                                and Noise Reset Counter value in the MSB nibble.      
 478:.\Generated_Source\PSoC4/CapSense_CSD_SMS.c **** *
 479:.\Generated_Source\PSoC4/CapSense_CSD_SMS.c **** * Side Effects: 
 480:.\Generated_Source\PSoC4/CapSense_CSD_SMS.c **** *  None
 481:.\Generated_Source\PSoC4/CapSense_CSD_SMS.c **** *
 482:.\Generated_Source\PSoC4/CapSense_CSD_SMS.c **** *******************************************************************************/
 483:.\Generated_Source\PSoC4/CapSense_CSD_SMS.c **** void CapSense_CSD_SetSensitivity(uint32 sensor, uint32 value)
 484:.\Generated_Source\PSoC4/CapSense_CSD_SMS.c **** {
 730              		.loc 1 484 0
 731              		.cfi_startproc
 732 0000 80B5     		push	{r7, lr}
 733              	.LCFI17:
 734              		.cfi_def_cfa_offset 8
 735              		.cfi_offset 7, -8
 736              		.cfi_offset 14, -4
 737 0002 82B0     		sub	sp, sp, #8
 738              	.LCFI18:
 739              		.cfi_def_cfa_offset 16
 740 0004 00AF     		add	r7, sp, #0
 741              	.LCFI19:
 742              		.cfi_def_cfa_register 7
 743 0006 7860     		str	r0, [r7, #4]
 744 0008 3960     		str	r1, [r7]
 485:.\Generated_Source\PSoC4/CapSense_CSD_SMS.c **** 	if(value > 4u)
 745              		.loc 1 485 0
 746 000a 3B68     		ldr	r3, [r7]
 747 000c 042B     		cmp	r3, #4
 748 000e 01D9     		bls	.L40
 486:.\Generated_Source\PSoC4/CapSense_CSD_SMS.c **** 	{
 487:.\Generated_Source\PSoC4/CapSense_CSD_SMS.c **** 		value = 4u;
 749              		.loc 1 487 0
 750 0010 0423     		mov	r3, #4
 751 0012 3B60     		str	r3, [r7]
 752              	.L40:
 488:.\Generated_Source\PSoC4/CapSense_CSD_SMS.c **** 	}
 489:.\Generated_Source\PSoC4/CapSense_CSD_SMS.c **** 	
 490:.\Generated_Source\PSoC4/CapSense_CSD_SMS.c ****     /* Clear SensorSensitivity value in LSB nibble */
ARM GAS  C:\Users\Jakob\AppData\Local\Temp\ccFnfJVo.s 			page 23


 491:.\Generated_Source\PSoC4/CapSense_CSD_SMS.c **** 	SMS_LIB_SensorSensitivity[sensor] &= (uint8)~CapSense_CSD_SENSITIVITY_MASK;
 753              		.loc 1 491 0
 754 0014 0C4A     		ldr	r2, .L41
 755 0016 7B68     		ldr	r3, [r7, #4]
 756 0018 D318     		add	r3, r2, r3
 757 001a 1B78     		ldrb	r3, [r3]
 758 001c 0F22     		mov	r2, #15
 759 001e 9343     		bic	r3, r2
 760 0020 DAB2     		uxtb	r2, r3
 761 0022 0949     		ldr	r1, .L41
 762 0024 7B68     		ldr	r3, [r7, #4]
 763 0026 CB18     		add	r3, r1, r3
 764 0028 1A70     		strb	r2, [r3]
 492:.\Generated_Source\PSoC4/CapSense_CSD_SMS.c **** 	/* Set SensorSensitivity value in LSB nibble */
 493:.\Generated_Source\PSoC4/CapSense_CSD_SMS.c **** 	SMS_LIB_SensorSensitivity[sensor] |= (uint8)value;
 765              		.loc 1 493 0
 766 002a 074A     		ldr	r2, .L41
 767 002c 7B68     		ldr	r3, [r7, #4]
 768 002e D318     		add	r3, r2, r3
 769 0030 1A78     		ldrb	r2, [r3]
 770 0032 3B68     		ldr	r3, [r7]
 771 0034 DBB2     		uxtb	r3, r3
 772 0036 1343     		orr	r3, r2
 773 0038 DAB2     		uxtb	r2, r3
 774 003a 0349     		ldr	r1, .L41
 775 003c 7B68     		ldr	r3, [r7, #4]
 776 003e CB18     		add	r3, r1, r3
 777 0040 1A70     		strb	r2, [r3]
 494:.\Generated_Source\PSoC4/CapSense_CSD_SMS.c **** }
 778              		.loc 1 494 0
 779 0042 BD46     		mov	sp, r7
 780 0044 02B0     		add	sp, sp, #8
 781              		@ sp needed for prologue
 782 0046 80BD     		pop	{r7, pc}
 783              	.L42:
 784              		.align	2
 785              	.L41:
 786 0048 00000000 		.word	SMS_LIB_SensorSensitivity
 787              		.cfi_endproc
 788              	.LFE39:
 789              		.size	CapSense_CSD_SetSensitivity, .-CapSense_CSD_SetSensitivity
 790              		.section	.text.CapSense_CSD_GetSensitivityCoefficient,"ax",%progbits
 791              		.align	2
 792              		.global	CapSense_CSD_GetSensitivityCoefficient
 793              		.code	16
 794              		.thumb_func
 795              		.type	CapSense_CSD_GetSensitivityCoefficient, %function
 796              	CapSense_CSD_GetSensitivityCoefficient:
 797              	.LFB40:
 495:.\Generated_Source\PSoC4/CapSense_CSD_SMS.c **** 
 496:.\Generated_Source\PSoC4/CapSense_CSD_SMS.c **** 
 497:.\Generated_Source\PSoC4/CapSense_CSD_SMS.c **** /*******************************************************************************
 498:.\Generated_Source\PSoC4/CapSense_CSD_SMS.c **** * Function Name: CapSense_CSD_GetSensitivityCoefficient
 499:.\Generated_Source\PSoC4/CapSense_CSD_SMS.c **** ********************************************************************************
 500:.\Generated_Source\PSoC4/CapSense_CSD_SMS.c **** *
 501:.\Generated_Source\PSoC4/CapSense_CSD_SMS.c **** * Summary:
 502:.\Generated_Source\PSoC4/CapSense_CSD_SMS.c **** *  This API returns the K coefficient for the appropriate sensor. 
ARM GAS  C:\Users\Jakob\AppData\Local\Temp\ccFnfJVo.s 			page 24


 503:.\Generated_Source\PSoC4/CapSense_CSD_SMS.c **** *
 504:.\Generated_Source\PSoC4/CapSense_CSD_SMS.c **** * Parameters: 
 505:.\Generated_Source\PSoC4/CapSense_CSD_SMS.c **** *  sensor:  Sensor index 
 506:.\Generated_Source\PSoC4/CapSense_CSD_SMS.c **** *
 507:.\Generated_Source\PSoC4/CapSense_CSD_SMS.c **** *  Return Value:
 508:.\Generated_Source\PSoC4/CapSense_CSD_SMS.c **** *   K - value for the appropriate sensor.
 509:.\Generated_Source\PSoC4/CapSense_CSD_SMS.c **** *
 510:.\Generated_Source\PSoC4/CapSense_CSD_SMS.c **** * Global Variables:
 511:.\Generated_Source\PSoC4/CapSense_CSD_SMS.c **** *  kValueTbl[] - This 8-bits array contains the K value for each sensor.
 512:.\Generated_Source\PSoC4/CapSense_CSD_SMS.c **** *
 513:.\Generated_Source\PSoC4/CapSense_CSD_SMS.c **** * Side Effects: 
 514:.\Generated_Source\PSoC4/CapSense_CSD_SMS.c **** *  None
 515:.\Generated_Source\PSoC4/CapSense_CSD_SMS.c **** *
 516:.\Generated_Source\PSoC4/CapSense_CSD_SMS.c **** *******************************************************************************/
 517:.\Generated_Source\PSoC4/CapSense_CSD_SMS.c **** uint8 CapSense_CSD_GetSensitivityCoefficient(uint32 sensor)
 518:.\Generated_Source\PSoC4/CapSense_CSD_SMS.c **** {
 798              		.loc 1 518 0
 799              		.cfi_startproc
 800 0000 80B5     		push	{r7, lr}
 801              	.LCFI20:
 802              		.cfi_def_cfa_offset 8
 803              		.cfi_offset 7, -8
 804              		.cfi_offset 14, -4
 805 0002 82B0     		sub	sp, sp, #8
 806              	.LCFI21:
 807              		.cfi_def_cfa_offset 16
 808 0004 00AF     		add	r7, sp, #0
 809              	.LCFI22:
 810              		.cfi_def_cfa_register 7
 811 0006 7860     		str	r0, [r7, #4]
 519:.\Generated_Source\PSoC4/CapSense_CSD_SMS.c **** 	return (kValueTbl[sensor]);
 812              		.loc 1 519 0
 813 0008 034A     		ldr	r2, .L45
 814 000a 7B68     		ldr	r3, [r7, #4]
 815 000c D318     		add	r3, r2, r3
 816 000e 1B78     		ldrb	r3, [r3]
 520:.\Generated_Source\PSoC4/CapSense_CSD_SMS.c **** }
 817              		.loc 1 520 0
 818 0010 181C     		mov	r0, r3
 819 0012 BD46     		mov	sp, r7
 820 0014 02B0     		add	sp, sp, #8
 821              		@ sp needed for prologue
 822 0016 80BD     		pop	{r7, pc}
 823              	.L46:
 824              		.align	2
 825              	.L45:
 826 0018 00000000 		.word	kValueTbl
 827              		.cfi_endproc
 828              	.LFE40:
 829              		.size	CapSense_CSD_GetSensitivityCoefficient, .-CapSense_CSD_GetSensitivityCoefficient
 830              		.section	.text.CapSense_CSD_GetNoiseEnvelope,"ax",%progbits
 831              		.align	2
 832              		.global	CapSense_CSD_GetNoiseEnvelope
 833              		.code	16
 834              		.thumb_func
 835              		.type	CapSense_CSD_GetNoiseEnvelope, %function
 836              	CapSense_CSD_GetNoiseEnvelope:
ARM GAS  C:\Users\Jakob\AppData\Local\Temp\ccFnfJVo.s 			page 25


 837              	.LFB41:
 521:.\Generated_Source\PSoC4/CapSense_CSD_SMS.c **** 
 522:.\Generated_Source\PSoC4/CapSense_CSD_SMS.c **** 
 523:.\Generated_Source\PSoC4/CapSense_CSD_SMS.c **** /*******************************************************************************
 524:.\Generated_Source\PSoC4/CapSense_CSD_SMS.c **** * Function Name: CapSense_CSD_GetNoiseEnvelope
 525:.\Generated_Source\PSoC4/CapSense_CSD_SMS.c **** ********************************************************************************
 526:.\Generated_Source\PSoC4/CapSense_CSD_SMS.c **** *
 527:.\Generated_Source\PSoC4/CapSense_CSD_SMS.c **** * Summary:
 528:.\Generated_Source\PSoC4/CapSense_CSD_SMS.c **** *  This function returns the noise value of a
 529:.\Generated_Source\PSoC4/CapSense_CSD_SMS.c **** *  component.
 530:.\Generated_Source\PSoC4/CapSense_CSD_SMS.c **** *
 531:.\Generated_Source\PSoC4/CapSense_CSD_SMS.c **** * Parameters:
 532:.\Generated_Source\PSoC4/CapSense_CSD_SMS.c **** *  sensor - Sensor number.
 533:.\Generated_Source\PSoC4/CapSense_CSD_SMS.c **** *
 534:.\Generated_Source\PSoC4/CapSense_CSD_SMS.c **** * Return:
 535:.\Generated_Source\PSoC4/CapSense_CSD_SMS.c **** *  The noise envelope value of the sensor
 536:.\Generated_Source\PSoC4/CapSense_CSD_SMS.c **** *  indicated by argument.
 537:.\Generated_Source\PSoC4/CapSense_CSD_SMS.c **** *
 538:.\Generated_Source\PSoC4/CapSense_CSD_SMS.c **** * Global Variables:
 539:.\Generated_Source\PSoC4/CapSense_CSD_SMS.c **** *  baNoiseEnvelope[] - array with Noise Envelope.
 540:.\Generated_Source\PSoC4/CapSense_CSD_SMS.c **** *
 541:.\Generated_Source\PSoC4/CapSense_CSD_SMS.c **** * Side Effects:
 542:.\Generated_Source\PSoC4/CapSense_CSD_SMS.c **** *  None
 543:.\Generated_Source\PSoC4/CapSense_CSD_SMS.c **** *
 544:.\Generated_Source\PSoC4/CapSense_CSD_SMS.c **** *******************************************************************************/
 545:.\Generated_Source\PSoC4/CapSense_CSD_SMS.c **** uint16 CapSense_CSD_GetNoiseEnvelope(uint32 sensor)
 546:.\Generated_Source\PSoC4/CapSense_CSD_SMS.c **** {
 838              		.loc 1 546 0
 839              		.cfi_startproc
 840 0000 80B5     		push	{r7, lr}
 841              	.LCFI23:
 842              		.cfi_def_cfa_offset 8
 843              		.cfi_offset 7, -8
 844              		.cfi_offset 14, -4
 845 0002 82B0     		sub	sp, sp, #8
 846              	.LCFI24:
 847              		.cfi_def_cfa_offset 16
 848 0004 00AF     		add	r7, sp, #0
 849              	.LCFI25:
 850              		.cfi_def_cfa_register 7
 851 0006 7860     		str	r0, [r7, #4]
 547:.\Generated_Source\PSoC4/CapSense_CSD_SMS.c ****     return((uint16)((uint16)noiseEnvelopeTbl[sensor] << 1u) + 1u);
 852              		.loc 1 547 0
 853 0008 054A     		ldr	r2, .L49
 854 000a 7B68     		ldr	r3, [r7, #4]
 855 000c D318     		add	r3, r2, r3
 856 000e 1B78     		ldrb	r3, [r3]
 857 0010 5B00     		lsl	r3, r3, #1
 858 0012 9BB2     		uxth	r3, r3
 859 0014 0133     		add	r3, r3, #1
 860 0016 9BB2     		uxth	r3, r3
 548:.\Generated_Source\PSoC4/CapSense_CSD_SMS.c **** }
 861              		.loc 1 548 0
 862 0018 181C     		mov	r0, r3
 863 001a BD46     		mov	sp, r7
 864 001c 02B0     		add	sp, sp, #8
 865              		@ sp needed for prologue
ARM GAS  C:\Users\Jakob\AppData\Local\Temp\ccFnfJVo.s 			page 26


 866 001e 80BD     		pop	{r7, pc}
 867              	.L50:
 868              		.align	2
 869              	.L49:
 870 0020 00000000 		.word	noiseEnvelopeTbl
 871              		.cfi_endproc
 872              	.LFE41:
 873              		.size	CapSense_CSD_GetNoiseEnvelope, .-CapSense_CSD_GetNoiseEnvelope
 874              		.global	__aeabi_uidiv
 875              		.section	.text.CapSense_CSD_GetNormalizedDiffCountData,"ax",%progbits
 876              		.align	2
 877              		.global	CapSense_CSD_GetNormalizedDiffCountData
 878              		.code	16
 879              		.thumb_func
 880              		.type	CapSense_CSD_GetNormalizedDiffCountData, %function
 881              	CapSense_CSD_GetNormalizedDiffCountData:
 882              	.LFB42:
 549:.\Generated_Source\PSoC4/CapSense_CSD_SMS.c **** 
 550:.\Generated_Source\PSoC4/CapSense_CSD_SMS.c **** 
 551:.\Generated_Source\PSoC4/CapSense_CSD_SMS.c **** /*******************************************************************************
 552:.\Generated_Source\PSoC4/CapSense_CSD_SMS.c **** * Function Name: CapSense_CSD_GetNormalizedDiffCountData
 553:.\Generated_Source\PSoC4/CapSense_CSD_SMS.c **** ********************************************************************************
 554:.\Generated_Source\PSoC4/CapSense_CSD_SMS.c **** *
 555:.\Generated_Source\PSoC4/CapSense_CSD_SMS.c **** * Summary:
 556:.\Generated_Source\PSoC4/CapSense_CSD_SMS.c **** *  This API returns normalized difference count data.
 557:.\Generated_Source\PSoC4/CapSense_CSD_SMS.c **** *
 558:.\Generated_Source\PSoC4/CapSense_CSD_SMS.c **** * Parameters:
 559:.\Generated_Source\PSoC4/CapSense_CSD_SMS.c **** *  sensor:  Sensor number.
 560:.\Generated_Source\PSoC4/CapSense_CSD_SMS.c **** *
 561:.\Generated_Source\PSoC4/CapSense_CSD_SMS.c **** * Return:
 562:.\Generated_Source\PSoC4/CapSense_CSD_SMS.c **** *  This API returns a normalized count value of the sensor indicated by the 
 563:.\Generated_Source\PSoC4/CapSense_CSD_SMS.c **** *  argument. 
 564:.\Generated_Source\PSoC4/CapSense_CSD_SMS.c **** *
 565:.\Generated_Source\PSoC4/CapSense_CSD_SMS.c **** * Global Variables:
 566:.\Generated_Source\PSoC4/CapSense_CSD_SMS.c **** *  CapSense_CSD_sensorSignal[] - array with difference counts for sensors
 567:.\Generated_Source\PSoC4/CapSense_CSD_SMS.c **** * 
 568:.\Generated_Source\PSoC4/CapSense_CSD_SMS.c **** * Side Effects:
 569:.\Generated_Source\PSoC4/CapSense_CSD_SMS.c **** *  None
 570:.\Generated_Source\PSoC4/CapSense_CSD_SMS.c **** *
 571:.\Generated_Source\PSoC4/CapSense_CSD_SMS.c **** *******************************************************************************/
 572:.\Generated_Source\PSoC4/CapSense_CSD_SMS.c **** uint16 CapSense_CSD_GetNormalizedDiffCountData(uint32 sensor)
 573:.\Generated_Source\PSoC4/CapSense_CSD_SMS.c **** {
 883              		.loc 1 573 0
 884              		.cfi_startproc
 885 0000 80B5     		push	{r7, lr}
 886              	.LCFI26:
 887              		.cfi_def_cfa_offset 8
 888              		.cfi_offset 7, -8
 889              		.cfi_offset 14, -4
 890 0002 82B0     		sub	sp, sp, #8
 891              	.LCFI27:
 892              		.cfi_def_cfa_offset 16
 893 0004 00AF     		add	r7, sp, #0
 894              	.LCFI28:
 895              		.cfi_def_cfa_register 7
 896 0006 7860     		str	r0, [r7, #4]
 574:.\Generated_Source\PSoC4/CapSense_CSD_SMS.c **** 	return (uint16)(((uint32)CapSense_CSD_sensorSignal[sensor] << 7u) / kValueTbl[sensor]);
ARM GAS  C:\Users\Jakob\AppData\Local\Temp\ccFnfJVo.s 			page 27


 897              		.loc 1 574 0
 898 0008 094A     		ldr	r2, .L53
 899 000a 7B68     		ldr	r3, [r7, #4]
 900 000c D318     		add	r3, r2, r3
 901 000e 1B78     		ldrb	r3, [r3]
 902 0010 DA01     		lsl	r2, r3, #7
 903 0012 0849     		ldr	r1, .L53+4
 904 0014 7B68     		ldr	r3, [r7, #4]
 905 0016 CB18     		add	r3, r1, r3
 906 0018 1B78     		ldrb	r3, [r3]
 907 001a 101C     		mov	r0, r2
 908 001c 191C     		mov	r1, r3
 909 001e FFF7FEFF 		bl	__aeabi_uidiv
 910 0022 031C     		mov	r3, r0
 911 0024 9BB2     		uxth	r3, r3
 575:.\Generated_Source\PSoC4/CapSense_CSD_SMS.c **** }
 912              		.loc 1 575 0
 913 0026 181C     		mov	r0, r3
 914 0028 BD46     		mov	sp, r7
 915 002a 02B0     		add	sp, sp, #8
 916              		@ sp needed for prologue
 917 002c 80BD     		pop	{r7, pc}
 918              	.L54:
 919 002e C046     		.align	2
 920              	.L53:
 921 0030 00000000 		.word	CapSense_CSD_sensorSignal
 922 0034 00000000 		.word	kValueTbl
 923              		.cfi_endproc
 924              	.LFE42:
 925              		.size	CapSense_CSD_GetNormalizedDiffCountData, .-CapSense_CSD_GetNormalizedDiffCountData
 926              		.text
 927              	.Letext0:
 928              		.file 2 ".\\Generated_Source\\PSoC4\\cytypes.h"
 929              		.file 3 ".\\Generated_Source\\PSoC4\\CapSense_CSD_PVT.h"