ARM GAS  C:\Users\Jakob\AppData\Local\Temp\cc5GwTcI.s 			page 1


   1              		.cpu cortex-m0
   2              		.fpu softvfp
   3              		.eabi_attribute 20, 1
   4              		.eabi_attribute 21, 1
   5              		.eabi_attribute 23, 3
   6              		.eabi_attribute 24, 1
   7              		.eabi_attribute 25, 1
   8              		.eabi_attribute 26, 1
   9              		.eabi_attribute 30, 6
  10              		.eabi_attribute 34, 0
  11              		.eabi_attribute 18, 4
  12              		.code	16
  13              		.file	"CapSense_1_CSHL.c"
  14              		.text
  15              	.Ltext0:
  16              		.cfi_sections	.debug_frame
  17              		.comm	CapSense_1_rawFilterData1,2,4
  18              		.global	CapSense_1_sensorBaseline
  19              		.bss
  20              		.align	2
  21              		.type	CapSense_1_sensorBaseline, %object
  22              		.size	CapSense_1_sensorBaseline, 2
  23              	CapSense_1_sensorBaseline:
  24 0000 0000     		.space	2
  25              		.global	CapSense_1_sensorBaselineLow
  26 0002 0000     		.align	2
  27              		.type	CapSense_1_sensorBaselineLow, %object
  28              		.size	CapSense_1_sensorBaselineLow, 1
  29              	CapSense_1_sensorBaselineLow:
  30 0004 00       		.space	1
  31              		.global	CapSense_1_sensorSignal
  32 0005 000000   		.align	2
  33              		.type	CapSense_1_sensorSignal, %object
  34              		.size	CapSense_1_sensorSignal, 1
  35              	CapSense_1_sensorSignal:
  36 0008 00       		.space	1
  37              		.global	CapSense_1_sensorOnMask
  38 0009 000000   		.align	2
  39              		.type	CapSense_1_sensorOnMask, %object
  40              		.size	CapSense_1_sensorOnMask, 1
  41              	CapSense_1_sensorOnMask:
  42 000c 00       		.space	1
  43              		.comm	CapSense_1_lowBaselineResetCnt,1,4
  44              		.global	CapSense_1_lowBaselineReset
  45              		.data
  46              		.align	2
  47              		.type	CapSense_1_lowBaselineReset, %object
  48              		.size	CapSense_1_lowBaselineReset, 1
  49              	CapSense_1_lowBaselineReset:
  50 0000 1E       		.byte	30
  51              		.comm	CapSense_1_fingerThreshold,1,4
  52              		.comm	CapSense_1_noiseThreshold,1,4
  53              		.comm	CapSense_1_negativeNoiseThreshold,1,4
  54              		.comm	CapSense_1_hysteresis,1,4
  55              		.global	CapSense_1_debounce
  56 0001 000000   		.align	2
  57              		.type	CapSense_1_debounce, %object
ARM GAS  C:\Users\Jakob\AppData\Local\Temp\cc5GwTcI.s 			page 2


  58              		.size	CapSense_1_debounce, 1
  59              	CapSense_1_debounce:
  60 0004 05       		.byte	5
  61 0005 000000   		.bss
  62 000d 000000   		.align	2
  63              	CapSense_1_debounceCounter:
  64 0010 0000     		.space	2
  65              		.global	CapSense_1_rawDataIndex
  66 0012 0000     		.section	.rodata
  67              		.align	2
  68              		.type	CapSense_1_rawDataIndex, %object
  69              		.size	CapSense_1_rawDataIndex, 1
  70              	CapSense_1_rawDataIndex:
  71 0000 00       		.space	1
  72              		.global	CapSense_1_numberOfSensors
  73 0001 000000   		.align	2
  74              		.type	CapSense_1_numberOfSensors, %object
  75              		.size	CapSense_1_numberOfSensors, 1
  76              	CapSense_1_numberOfSensors:
  77 0004 01       		.byte	1
  78 0005 000000   		.section	.text.CapSense_1_BaseInit,"ax",%progbits
  79              		.align	2
  80              		.global	CapSense_1_BaseInit
  81              		.code	16
  82              		.thumb_func
  83              		.type	CapSense_1_BaseInit, %function
  84              	CapSense_1_BaseInit:
  85              	.LFB33:
  86              		.file 1 ".\\Generated_Source\\PSoC4\\CapSense_1_CSHL.c"
   1:.\Generated_Source\PSoC4/CapSense_1_CSHL.c **** /*******************************************************************************
   2:.\Generated_Source\PSoC4/CapSense_1_CSHL.c **** * File Name: CapSense_1_CSHL.c
   3:.\Generated_Source\PSoC4/CapSense_1_CSHL.c **** * Version 2.0
   4:.\Generated_Source\PSoC4/CapSense_1_CSHL.c **** *
   5:.\Generated_Source\PSoC4/CapSense_1_CSHL.c **** * Description:
   6:.\Generated_Source\PSoC4/CapSense_1_CSHL.c **** *  This file provides the source code to the High Level APIs for the CapSesne
   7:.\Generated_Source\PSoC4/CapSense_1_CSHL.c **** *  CSD component.
   8:.\Generated_Source\PSoC4/CapSense_1_CSHL.c **** *
   9:.\Generated_Source\PSoC4/CapSense_1_CSHL.c **** * Note:
  10:.\Generated_Source\PSoC4/CapSense_1_CSHL.c **** *
  11:.\Generated_Source\PSoC4/CapSense_1_CSHL.c **** ********************************************************************************
  12:.\Generated_Source\PSoC4/CapSense_1_CSHL.c **** * Copyright 2014, Cypress Semiconductor Corporation.  All rights reserved.
  13:.\Generated_Source\PSoC4/CapSense_1_CSHL.c **** * You may use this file only in accordance with the license, terms, conditions,
  14:.\Generated_Source\PSoC4/CapSense_1_CSHL.c **** * disclaimers, and limitations in the end user license agreement accompanying
  15:.\Generated_Source\PSoC4/CapSense_1_CSHL.c **** * the software package with which this file was provided.
  16:.\Generated_Source\PSoC4/CapSense_1_CSHL.c **** *******************************************************************************/
  17:.\Generated_Source\PSoC4/CapSense_1_CSHL.c **** 
  18:.\Generated_Source\PSoC4/CapSense_1_CSHL.c **** #include "CapSense_1_CSHL.h"
  19:.\Generated_Source\PSoC4/CapSense_1_CSHL.c **** #include "CapSense_1_PVT.h"
  20:.\Generated_Source\PSoC4/CapSense_1_CSHL.c **** 
  21:.\Generated_Source\PSoC4/CapSense_1_CSHL.c **** /* SmartSense functions */
  22:.\Generated_Source\PSoC4/CapSense_1_CSHL.c **** #if (CapSense_1_TUNING_METHOD == CapSense_1__TUNING_AUTO)
  23:.\Generated_Source\PSoC4/CapSense_1_CSHL.c ****     extern void CapSense_1_UpdateThresholds(uint32 sensor);
  24:.\Generated_Source\PSoC4/CapSense_1_CSHL.c **** #endif /* (CapSense_1_TUNING_METHOD == CapSense_1__TUNING_AUTO) */
  25:.\Generated_Source\PSoC4/CapSense_1_CSHL.c **** 
  26:.\Generated_Source\PSoC4/CapSense_1_CSHL.c **** /* Median filter function prototype */
  27:.\Generated_Source\PSoC4/CapSense_1_CSHL.c **** #if ( (0u != (CapSense_1_RAW_FILTER_MASK & CapSense_1_MEDIAN_FILTER)) || \
  28:.\Generated_Source\PSoC4/CapSense_1_CSHL.c ****       (0u != (CapSense_1_POS_FILTERS_MASK & CapSense_1_MEDIAN_FILTER)))
ARM GAS  C:\Users\Jakob\AppData\Local\Temp\cc5GwTcI.s 			page 3


  29:.\Generated_Source\PSoC4/CapSense_1_CSHL.c ****     uint16 CapSense_1_MedianFilter(uint16 x1, uint16 x2, uint16 x3);
  30:.\Generated_Source\PSoC4/CapSense_1_CSHL.c **** #endif /* CapSense_1_RAW_FILTER_MASK && CapSense_1_POS_FILTERS_MASK */
  31:.\Generated_Source\PSoC4/CapSense_1_CSHL.c **** 
  32:.\Generated_Source\PSoC4/CapSense_1_CSHL.c **** /* Averaging filter function prototype */
  33:.\Generated_Source\PSoC4/CapSense_1_CSHL.c **** #if ( (0u != (CapSense_1_RAW_FILTER_MASK & CapSense_1_AVERAGING_FILTER)) || \
  34:.\Generated_Source\PSoC4/CapSense_1_CSHL.c ****       (0u != (CapSense_1_POS_FILTERS_MASK & CapSense_1_AVERAGING_FILTER)) )
  35:.\Generated_Source\PSoC4/CapSense_1_CSHL.c ****     uint16 CapSense_1_AveragingFilter(uint16 x1, uint16 x2, uint16 x3);
  36:.\Generated_Source\PSoC4/CapSense_1_CSHL.c **** #endif /* CapSense_1_RAW_FILTER_MASK && CapSense_1_POS_FILTERS_MASK */
  37:.\Generated_Source\PSoC4/CapSense_1_CSHL.c **** 
  38:.\Generated_Source\PSoC4/CapSense_1_CSHL.c **** /* IIR2Filter(1/2prev + 1/2cur) filter function prototype */
  39:.\Generated_Source\PSoC4/CapSense_1_CSHL.c **** #if ( (0u != (CapSense_1_RAW_FILTER_MASK & CapSense_1_IIR2_FILTER)) || \
  40:.\Generated_Source\PSoC4/CapSense_1_CSHL.c ****       (0u != (CapSense_1_POS_FILTERS_MASK & CapSense_1_IIR2_FILTER)) )
  41:.\Generated_Source\PSoC4/CapSense_1_CSHL.c ****     uint16 CapSense_1_IIR2Filter(uint16 x1, uint16 x2);
  42:.\Generated_Source\PSoC4/CapSense_1_CSHL.c **** #endif /* CapSense_1_RAW_FILTER_MASK && CapSense_1_POS_FILTERS_MASK */
  43:.\Generated_Source\PSoC4/CapSense_1_CSHL.c **** 
  44:.\Generated_Source\PSoC4/CapSense_1_CSHL.c **** /* IIR4Filter(3/4prev + 1/4cur) filter function prototype */
  45:.\Generated_Source\PSoC4/CapSense_1_CSHL.c **** #if ( (0u != (CapSense_1_RAW_FILTER_MASK & CapSense_1_IIR4_FILTER)) || \
  46:.\Generated_Source\PSoC4/CapSense_1_CSHL.c ****       (0u != (CapSense_1_POS_FILTERS_MASK & CapSense_1_IIR4_FILTER)) )
  47:.\Generated_Source\PSoC4/CapSense_1_CSHL.c ****     uint16 CapSense_1_IIR4Filter(uint16 x1, uint16 x2);
  48:.\Generated_Source\PSoC4/CapSense_1_CSHL.c **** #endif /* CapSense_1_RAW_FILTER_MASK && CapSense_1_POS_FILTERS_MASK */
  49:.\Generated_Source\PSoC4/CapSense_1_CSHL.c **** 
  50:.\Generated_Source\PSoC4/CapSense_1_CSHL.c **** /* IIR8Filter(7/8prev + 1/8cur) filter function prototype - RawCounts only */
  51:.\Generated_Source\PSoC4/CapSense_1_CSHL.c **** #if (0u != (CapSense_1_RAW_FILTER_MASK & CapSense_1_IIR8_FILTER))
  52:.\Generated_Source\PSoC4/CapSense_1_CSHL.c ****     uint16 CapSense_1_IIR8Filter(uint16 x1, uint16 x2);
  53:.\Generated_Source\PSoC4/CapSense_1_CSHL.c **** #endif /* CapSense_1_RAW_FILTER_MASK */
  54:.\Generated_Source\PSoC4/CapSense_1_CSHL.c **** 
  55:.\Generated_Source\PSoC4/CapSense_1_CSHL.c **** /* IIR16Filter(15/16prev + 1/16cur) filter function prototype - RawCounts only */
  56:.\Generated_Source\PSoC4/CapSense_1_CSHL.c **** #if (0u != (CapSense_1_RAW_FILTER_MASK & CapSense_1_IIR16_FILTER))
  57:.\Generated_Source\PSoC4/CapSense_1_CSHL.c ****     uint16 CapSense_1_IIR16Filter(uint16 x1, uint16 x2);
  58:.\Generated_Source\PSoC4/CapSense_1_CSHL.c **** #endif /* CapSense_1_RAW_FILTER_MASK */
  59:.\Generated_Source\PSoC4/CapSense_1_CSHL.c **** 
  60:.\Generated_Source\PSoC4/CapSense_1_CSHL.c **** /* JitterFilter filter function prototype */
  61:.\Generated_Source\PSoC4/CapSense_1_CSHL.c **** #if ( (0u != (CapSense_1_RAW_FILTER_MASK & CapSense_1_JITTER_FILTER)) || \
  62:.\Generated_Source\PSoC4/CapSense_1_CSHL.c ****       (0u != (CapSense_1_POS_FILTERS_MASK & CapSense_1_JITTER_FILTER)) )
  63:.\Generated_Source\PSoC4/CapSense_1_CSHL.c ****     uint16 CapSense_1_JitterFilter(uint16 x1, uint16 x2);
  64:.\Generated_Source\PSoC4/CapSense_1_CSHL.c **** #endif /* CapSense_1_RAW_FILTER_MASK && CapSense_1_POS_FILTERS_MASK */
  65:.\Generated_Source\PSoC4/CapSense_1_CSHL.c **** 
  66:.\Generated_Source\PSoC4/CapSense_1_CSHL.c **** /* Storage of filters data */
  67:.\Generated_Source\PSoC4/CapSense_1_CSHL.c **** #if ( (0u != (CapSense_1_RAW_FILTER_MASK & CapSense_1_MEDIAN_FILTER)) || \
  68:.\Generated_Source\PSoC4/CapSense_1_CSHL.c ****       (0u != (CapSense_1_RAW_FILTER_MASK & CapSense_1_AVERAGING_FILTER)) )
  69:.\Generated_Source\PSoC4/CapSense_1_CSHL.c **** 
  70:.\Generated_Source\PSoC4/CapSense_1_CSHL.c ****     uint16 CapSense_1_rawFilterData1[CapSense_1_TOTAL_SENSOR_COUNT];
  71:.\Generated_Source\PSoC4/CapSense_1_CSHL.c ****     uint16 CapSense_1_rawFilterData2[CapSense_1_TOTAL_SENSOR_COUNT];
  72:.\Generated_Source\PSoC4/CapSense_1_CSHL.c **** 
  73:.\Generated_Source\PSoC4/CapSense_1_CSHL.c **** #elif ( (0u != (CapSense_1_RAW_FILTER_MASK & CapSense_1_IIR2_FILTER))   || \
  74:.\Generated_Source\PSoC4/CapSense_1_CSHL.c ****         (0u != (CapSense_1_RAW_FILTER_MASK & CapSense_1_IIR4_FILTER))   || \
  75:.\Generated_Source\PSoC4/CapSense_1_CSHL.c ****         (0u != (CapSense_1_RAW_FILTER_MASK & CapSense_1_JITTER_FILTER)) || \
  76:.\Generated_Source\PSoC4/CapSense_1_CSHL.c ****         (0u != (CapSense_1_RAW_FILTER_MASK & CapSense_1_IIR8_FILTER))   || \
  77:.\Generated_Source\PSoC4/CapSense_1_CSHL.c ****         (0u != (CapSense_1_RAW_FILTER_MASK & CapSense_1_IIR16_FILTER)) )
  78:.\Generated_Source\PSoC4/CapSense_1_CSHL.c ****         
  79:.\Generated_Source\PSoC4/CapSense_1_CSHL.c ****     uint16 CapSense_1_rawFilterData1[CapSense_1_TOTAL_SENSOR_COUNT];
  80:.\Generated_Source\PSoC4/CapSense_1_CSHL.c **** #endif  /* ( (CapSense_1_RAW_FILTER_MASK & CapSense_1_MEDIAN_FILTER) || \
  81:.\Generated_Source\PSoC4/CapSense_1_CSHL.c ****         *    (CapSense_1_RAW_FILTER_MASK & CapSense_1_AVERAGING_FILTER) )
  82:.\Generated_Source\PSoC4/CapSense_1_CSHL.c ****         */
  83:.\Generated_Source\PSoC4/CapSense_1_CSHL.c **** 
  84:.\Generated_Source\PSoC4/CapSense_1_CSHL.c **** extern uint16 CapSense_1_sensorRaw[CapSense_1_TOTAL_SENSOR_COUNT];
  85:.\Generated_Source\PSoC4/CapSense_1_CSHL.c **** extern uint8 CapSense_1_sensorEnableMask[CapSense_1_TOTAL_SENSOR_MASK];
ARM GAS  C:\Users\Jakob\AppData\Local\Temp\cc5GwTcI.s 			page 4


  86:.\Generated_Source\PSoC4/CapSense_1_CSHL.c **** extern const uint8 CapSense_1_widgetNumber[CapSense_1_TOTAL_SENSOR_COUNT];
  87:.\Generated_Source\PSoC4/CapSense_1_CSHL.c **** 
  88:.\Generated_Source\PSoC4/CapSense_1_CSHL.c **** #if (CapSense_1_TUNING_METHOD != CapSense_1__TUNING_NONE)
  89:.\Generated_Source\PSoC4/CapSense_1_CSHL.c **** 	extern uint32 CapSense_1_widgetResolution[CapSense_1_RESOLUTIONS_TBL_SIZE];	
  90:.\Generated_Source\PSoC4/CapSense_1_CSHL.c **** #endif /* (CapSense_1_TUNING_METHOD != CapSense_1__TUNING_NONE) */
  91:.\Generated_Source\PSoC4/CapSense_1_CSHL.c **** 
  92:.\Generated_Source\PSoC4/CapSense_1_CSHL.c **** uint16 CapSense_1_sensorBaseline[CapSense_1_TOTAL_SENSOR_COUNT] = {0u};
  93:.\Generated_Source\PSoC4/CapSense_1_CSHL.c **** uint8 CapSense_1_sensorBaselineLow[CapSense_1_TOTAL_SENSOR_COUNT] = {0u};
  94:.\Generated_Source\PSoC4/CapSense_1_CSHL.c **** uint8 CapSense_1_sensorSignal[CapSense_1_TOTAL_SENSOR_COUNT] = {0u};
  95:.\Generated_Source\PSoC4/CapSense_1_CSHL.c **** uint8 CapSense_1_sensorOnMask[CapSense_1_TOTAL_SENSOR_MASK] = {0u};
  96:.\Generated_Source\PSoC4/CapSense_1_CSHL.c **** 
  97:.\Generated_Source\PSoC4/CapSense_1_CSHL.c **** uint8 CapSense_1_lowBaselineResetCnt[CapSense_1_TOTAL_SENSOR_COUNT];
  98:.\Generated_Source\PSoC4/CapSense_1_CSHL.c **** uint8 CapSense_1_lowBaselineReset[CapSense_1_TOTAL_IMMUNITY_NUM] = {
  99:.\Generated_Source\PSoC4/CapSense_1_CSHL.c ****     30u, 
 100:.\Generated_Source\PSoC4/CapSense_1_CSHL.c **** };
 101:.\Generated_Source\PSoC4/CapSense_1_CSHL.c **** 
 102:.\Generated_Source\PSoC4/CapSense_1_CSHL.c **** 
 103:.\Generated_Source\PSoC4/CapSense_1_CSHL.c **** 
 104:.\Generated_Source\PSoC4/CapSense_1_CSHL.c **** #if (CapSense_1_TUNING_METHOD == CapSense_1__TUNING_AUTO)
 105:.\Generated_Source\PSoC4/CapSense_1_CSHL.c **** 	extern CapSense_1_CONFIG_TYPE_P4_v2_0 CapSense_1_config;
 106:.\Generated_Source\PSoC4/CapSense_1_CSHL.c **** #endif  /* (CapSense_1_TUNING_METHOD == CapSense_1__TUNING_AUTO) */
 107:.\Generated_Source\PSoC4/CapSense_1_CSHL.c **** 
 108:.\Generated_Source\PSoC4/CapSense_1_CSHL.c **** /* Generated by Customizer */
 109:.\Generated_Source\PSoC4/CapSense_1_CSHL.c **** uint8 CapSense_1_fingerThreshold[CapSense_1_THRESHOLD_TBL_SIZE];
 110:.\Generated_Source\PSoC4/CapSense_1_CSHL.c **** 
 111:.\Generated_Source\PSoC4/CapSense_1_CSHL.c **** uint8 CapSense_1_noiseThreshold[CapSense_1_THRESHOLD_TBL_SIZE];
 112:.\Generated_Source\PSoC4/CapSense_1_CSHL.c **** 
 113:.\Generated_Source\PSoC4/CapSense_1_CSHL.c **** uint8 CapSense_1_negativeNoiseThreshold[CapSense_1_THRESHOLD_TBL_SIZE];
 114:.\Generated_Source\PSoC4/CapSense_1_CSHL.c **** 
 115:.\Generated_Source\PSoC4/CapSense_1_CSHL.c **** uint8 CapSense_1_hysteresis[CapSense_1_WIDGET_PARAM_TBL_SIZE];
 116:.\Generated_Source\PSoC4/CapSense_1_CSHL.c **** 
 117:.\Generated_Source\PSoC4/CapSense_1_CSHL.c **** uint8 CapSense_1_debounce[] = {
 118:.\Generated_Source\PSoC4/CapSense_1_CSHL.c ****     5u, 
 119:.\Generated_Source\PSoC4/CapSense_1_CSHL.c **** };
 120:.\Generated_Source\PSoC4/CapSense_1_CSHL.c **** 
 121:.\Generated_Source\PSoC4/CapSense_1_CSHL.c **** static uint8 CapSense_1_debounceCounter[] = {
 122:.\Generated_Source\PSoC4/CapSense_1_CSHL.c ****     0u, 0u, 
 123:.\Generated_Source\PSoC4/CapSense_1_CSHL.c **** };
 124:.\Generated_Source\PSoC4/CapSense_1_CSHL.c **** 
 125:.\Generated_Source\PSoC4/CapSense_1_CSHL.c **** const uint8 CapSense_1_rawDataIndex[] = {
 126:.\Generated_Source\PSoC4/CapSense_1_CSHL.c ****     0u, /* DummyWidget__BTN */
 127:.\Generated_Source\PSoC4/CapSense_1_CSHL.c **** };
 128:.\Generated_Source\PSoC4/CapSense_1_CSHL.c **** 
 129:.\Generated_Source\PSoC4/CapSense_1_CSHL.c **** const uint8 CapSense_1_numberOfSensors[] = {
 130:.\Generated_Source\PSoC4/CapSense_1_CSHL.c ****     1u, /* DummyWidget__BTN */
 131:.\Generated_Source\PSoC4/CapSense_1_CSHL.c **** };
 132:.\Generated_Source\PSoC4/CapSense_1_CSHL.c **** 
 133:.\Generated_Source\PSoC4/CapSense_1_CSHL.c **** 
 134:.\Generated_Source\PSoC4/CapSense_1_CSHL.c **** 
 135:.\Generated_Source\PSoC4/CapSense_1_CSHL.c **** 
 136:.\Generated_Source\PSoC4/CapSense_1_CSHL.c **** /*******************************************************************************
 137:.\Generated_Source\PSoC4/CapSense_1_CSHL.c **** * Function Name: CapSense_1_BaseInit
 138:.\Generated_Source\PSoC4/CapSense_1_CSHL.c **** ********************************************************************************
 139:.\Generated_Source\PSoC4/CapSense_1_CSHL.c **** *
 140:.\Generated_Source\PSoC4/CapSense_1_CSHL.c **** * Summary:
 141:.\Generated_Source\PSoC4/CapSense_1_CSHL.c **** *  Loads the CapSense_1_sensorBaseline[sensor] array element with an 
 142:.\Generated_Source\PSoC4/CapSense_1_CSHL.c **** *  initial value which is equal to the raw count value. 
ARM GAS  C:\Users\Jakob\AppData\Local\Temp\cc5GwTcI.s 			page 5


 143:.\Generated_Source\PSoC4/CapSense_1_CSHL.c **** *  Resets to zero CapSense_1_sensorBaselineLow[sensor] and 
 144:.\Generated_Source\PSoC4/CapSense_1_CSHL.c **** *  CapSense_1_sensorSignal[sensor] array element.
 145:.\Generated_Source\PSoC4/CapSense_1_CSHL.c **** *  Loads the CapSense_1_debounceCounter[sensor] array element with the initial 
 146:.\Generated_Source\PSoC4/CapSense_1_CSHL.c **** *  value equal CapSense_1_debounce[].
 147:.\Generated_Source\PSoC4/CapSense_1_CSHL.c **** *  Loads the CapSense_1_rawFilterData2[sensor] and 
 148:.\Generated_Source\PSoC4/CapSense_1_CSHL.c **** *  CapSense_1_rawFilterData2[sensor] array element with an 
 149:.\Generated_Source\PSoC4/CapSense_1_CSHL.c **** *  initial value which is equal to the raw count value if the raw data filter is enabled.
 150:.\Generated_Source\PSoC4/CapSense_1_CSHL.c **** *
 151:.\Generated_Source\PSoC4/CapSense_1_CSHL.c **** * Parameters:
 152:.\Generated_Source\PSoC4/CapSense_1_CSHL.c **** *  sensor:  Sensor number.
 153:.\Generated_Source\PSoC4/CapSense_1_CSHL.c **** *
 154:.\Generated_Source\PSoC4/CapSense_1_CSHL.c **** * Return:
 155:.\Generated_Source\PSoC4/CapSense_1_CSHL.c **** *  None
 156:.\Generated_Source\PSoC4/CapSense_1_CSHL.c **** *
 157:.\Generated_Source\PSoC4/CapSense_1_CSHL.c **** * Global Variables:
 158:.\Generated_Source\PSoC4/CapSense_1_CSHL.c **** *  CapSense_1_sensorBaseline[]    - used to store the baseline value.
 159:.\Generated_Source\PSoC4/CapSense_1_CSHL.c **** *  CapSense_1_sensorBaselineLow[] - used to store the fraction byte of 
 160:.\Generated_Source\PSoC4/CapSense_1_CSHL.c **** *  the baseline value.
 161:.\Generated_Source\PSoC4/CapSense_1_CSHL.c **** *  CapSense_1_sensorSignal[]      - used to store a difference between 
 162:.\Generated_Source\PSoC4/CapSense_1_CSHL.c **** *  the current value of raw data and the previous value of the baseline.
 163:.\Generated_Source\PSoC4/CapSense_1_CSHL.c **** *  CapSense_1_debounceCounter[]   - used to store the current debounce 
 164:.\Generated_Source\PSoC4/CapSense_1_CSHL.c **** *  counter of the sensor. The widgets which have this parameter are buttons, matrix 
 165:.\Generated_Source\PSoC4/CapSense_1_CSHL.c **** *  buttons, proximity, and guard. All other widgets don't have the  debounce parameter
 166:.\Generated_Source\PSoC4/CapSense_1_CSHL.c **** *  and use the last element of this array with value 0 (it means no debounce).
 167:.\Generated_Source\PSoC4/CapSense_1_CSHL.c **** *  CapSense_1_rawFilterData1[]    - used to store a previous sample of 
 168:.\Generated_Source\PSoC4/CapSense_1_CSHL.c **** *  any enabled raw data filter.
 169:.\Generated_Source\PSoC4/CapSense_1_CSHL.c **** *  CapSense_1_rawFilterData2[]    - used to store before a previous sample
 170:.\Generated_Source\PSoC4/CapSense_1_CSHL.c **** *  of the enabled raw data filter. Required only for median or average filters.
 171:.\Generated_Source\PSoC4/CapSense_1_CSHL.c **** *
 172:.\Generated_Source\PSoC4/CapSense_1_CSHL.c **** * Side Effects:
 173:.\Generated_Source\PSoC4/CapSense_1_CSHL.c **** *  None
 174:.\Generated_Source\PSoC4/CapSense_1_CSHL.c **** * 
 175:.\Generated_Source\PSoC4/CapSense_1_CSHL.c **** *******************************************************************************/
 176:.\Generated_Source\PSoC4/CapSense_1_CSHL.c **** void CapSense_1_BaseInit(uint32 sensor)
 177:.\Generated_Source\PSoC4/CapSense_1_CSHL.c **** {
  87              		.loc 1 177 0
  88              		.cfi_startproc
  89 0000 80B5     		push	{r7, lr}
  90              	.LCFI0:
  91              		.cfi_def_cfa_offset 8
  92              		.cfi_offset 7, -8
  93              		.cfi_offset 14, -4
  94 0002 84B0     		sub	sp, sp, #16
  95              	.LCFI1:
  96              		.cfi_def_cfa_offset 24
  97 0004 00AF     		add	r7, sp, #0
  98              	.LCFI2:
  99              		.cfi_def_cfa_register 7
 100 0006 7860     		str	r0, [r7, #4]
 178:.\Generated_Source\PSoC4/CapSense_1_CSHL.c ****     #if ((CapSense_1_TOTAL_BUTTONS_COUNT) || (CapSense_1_TOTAL_MATRIX_BUTTONS_COUNT) || \
 179:.\Generated_Source\PSoC4/CapSense_1_CSHL.c ****          (CapSense_1_TOTAL_GENERICS_COUNT))
 180:.\Generated_Source\PSoC4/CapSense_1_CSHL.c ****         uint8 widget = CapSense_1_widgetNumber[sensor];
 101              		.loc 1 180 0
 102 0008 3B1C     		mov	r3, r7
 103 000a 0F33     		add	r3, r3, #15
 104 000c 1549     		ldr	r1, .L2
 105 000e 7A68     		ldr	r2, [r7, #4]
ARM GAS  C:\Users\Jakob\AppData\Local\Temp\cc5GwTcI.s 			page 6


 106 0010 8A18     		add	r2, r1, r2
 107 0012 1278     		ldrb	r2, [r2]
 108 0014 1A70     		strb	r2, [r3]
 181:.\Generated_Source\PSoC4/CapSense_1_CSHL.c ****     #endif /* ((CapSense_1_TOTAL_MATRIX_BUTTONS_COUNT) || (CapSense_1_TOTAL_MATRIX_BUTTONS_COUNT)) 
 182:.\Generated_Source\PSoC4/CapSense_1_CSHL.c ****     
 183:.\Generated_Source\PSoC4/CapSense_1_CSHL.c ****     #if (CapSense_1_TOTAL_MATRIX_BUTTONS_COUNT)
 184:.\Generated_Source\PSoC4/CapSense_1_CSHL.c ****         uint8 debounceIndex;
 185:.\Generated_Source\PSoC4/CapSense_1_CSHL.c ****     #endif  /* (CapSense_1_TOTAL_MATRIX_BUTTONS_COUNT) */
 186:.\Generated_Source\PSoC4/CapSense_1_CSHL.c ****     
 187:.\Generated_Source\PSoC4/CapSense_1_CSHL.c ****     #if (CapSense_1_TOTAL_GENERICS_COUNT)
 188:.\Generated_Source\PSoC4/CapSense_1_CSHL.c ****         /* Exclude generic widget */
 189:.\Generated_Source\PSoC4/CapSense_1_CSHL.c ****         if(widget < CapSense_1_END_OF_WIDGETS_INDEX)
 190:.\Generated_Source\PSoC4/CapSense_1_CSHL.c ****         {
 191:.\Generated_Source\PSoC4/CapSense_1_CSHL.c ****     #endif  /* CapSense_1_TOTAL_GENERICS_COUNT */
 192:.\Generated_Source\PSoC4/CapSense_1_CSHL.c ****     
 193:.\Generated_Source\PSoC4/CapSense_1_CSHL.c ****     /* Initialize Baseline */
 194:.\Generated_Source\PSoC4/CapSense_1_CSHL.c ****     CapSense_1_sensorBaseline[sensor] = CapSense_1_sensorRaw[sensor];
 109              		.loc 1 194 0
 110 0016 144B     		ldr	r3, .L2+4
 111 0018 7A68     		ldr	r2, [r7, #4]
 112 001a 5200     		lsl	r2, r2, #1
 113 001c D15A     		ldrh	r1, [r2, r3]
 114 001e 134B     		ldr	r3, .L2+8
 115 0020 7A68     		ldr	r2, [r7, #4]
 116 0022 5200     		lsl	r2, r2, #1
 117 0024 D152     		strh	r1, [r2, r3]
 195:.\Generated_Source\PSoC4/CapSense_1_CSHL.c ****     CapSense_1_sensorBaselineLow[sensor] = 0u;
 118              		.loc 1 195 0
 119 0026 124A     		ldr	r2, .L2+12
 120 0028 7B68     		ldr	r3, [r7, #4]
 121 002a D318     		add	r3, r2, r3
 122 002c 0022     		mov	r2, #0
 123 002e 1A70     		strb	r2, [r3]
 196:.\Generated_Source\PSoC4/CapSense_1_CSHL.c ****     CapSense_1_sensorSignal[sensor] = 0u;
 124              		.loc 1 196 0
 125 0030 104A     		ldr	r2, .L2+16
 126 0032 7B68     		ldr	r3, [r7, #4]
 127 0034 D318     		add	r3, r2, r3
 128 0036 0022     		mov	r2, #0
 129 0038 1A70     		strb	r2, [r3]
 197:.\Generated_Source\PSoC4/CapSense_1_CSHL.c ****         
 198:.\Generated_Source\PSoC4/CapSense_1_CSHL.c ****     CapSense_1_debounceCounter[widget] =  CapSense_1_debounce[widget];
 130              		.loc 1 198 0
 131 003a 3B1C     		mov	r3, r7
 132 003c 0F33     		add	r3, r3, #15
 133 003e 1B78     		ldrb	r3, [r3]
 134 0040 3A1C     		mov	r2, r7
 135 0042 0F32     		add	r2, r2, #15
 136 0044 1278     		ldrb	r2, [r2]
 137 0046 0C49     		ldr	r1, .L2+20
 138 0048 895C     		ldrb	r1, [r1, r2]
 139 004a 0C4A     		ldr	r2, .L2+24
 140 004c D154     		strb	r1, [r2, r3]
 199:.\Generated_Source\PSoC4/CapSense_1_CSHL.c **** 
 200:.\Generated_Source\PSoC4/CapSense_1_CSHL.c ****     
 201:.\Generated_Source\PSoC4/CapSense_1_CSHL.c ****     #if ((0u != (CapSense_1_RAW_FILTER_MASK & CapSense_1_MEDIAN_FILTER)) ||\
 202:.\Generated_Source\PSoC4/CapSense_1_CSHL.c ****          (0u != (CapSense_1_RAW_FILTER_MASK & CapSense_1_AVERAGING_FILTER)))
ARM GAS  C:\Users\Jakob\AppData\Local\Temp\cc5GwTcI.s 			page 7


 203:.\Generated_Source\PSoC4/CapSense_1_CSHL.c **** 
 204:.\Generated_Source\PSoC4/CapSense_1_CSHL.c ****         CapSense_1_rawFilterData1[sensor] = CapSense_1_sensorRaw[sensor];
 205:.\Generated_Source\PSoC4/CapSense_1_CSHL.c ****         CapSense_1_rawFilterData2[sensor] = CapSense_1_sensorRaw[sensor];
 206:.\Generated_Source\PSoC4/CapSense_1_CSHL.c ****     
 207:.\Generated_Source\PSoC4/CapSense_1_CSHL.c ****     #elif ((CapSense_1_RAW_FILTER_MASK & CapSense_1_IIR2_FILTER) ||\
 208:.\Generated_Source\PSoC4/CapSense_1_CSHL.c ****            (CapSense_1_RAW_FILTER_MASK & CapSense_1_IIR4_FILTER) ||\
 209:.\Generated_Source\PSoC4/CapSense_1_CSHL.c ****            (CapSense_1_RAW_FILTER_MASK & CapSense_1_JITTER_FILTER) ||\
 210:.\Generated_Source\PSoC4/CapSense_1_CSHL.c ****            (CapSense_1_RAW_FILTER_MASK & CapSense_1_IIR8_FILTER) ||\
 211:.\Generated_Source\PSoC4/CapSense_1_CSHL.c ****            (CapSense_1_RAW_FILTER_MASK & CapSense_1_IIR16_FILTER))
 212:.\Generated_Source\PSoC4/CapSense_1_CSHL.c ****             
 213:.\Generated_Source\PSoC4/CapSense_1_CSHL.c ****         CapSense_1_rawFilterData1[sensor] = CapSense_1_sensorRaw[sensor];
 141              		.loc 1 213 0
 142 004e 064B     		ldr	r3, .L2+4
 143 0050 7A68     		ldr	r2, [r7, #4]
 144 0052 5200     		lsl	r2, r2, #1
 145 0054 D15A     		ldrh	r1, [r2, r3]
 146 0056 0A4B     		ldr	r3, .L2+28
 147 0058 7A68     		ldr	r2, [r7, #4]
 148 005a 5200     		lsl	r2, r2, #1
 149 005c D152     		strh	r1, [r2, r3]
 214:.\Generated_Source\PSoC4/CapSense_1_CSHL.c ****     
 215:.\Generated_Source\PSoC4/CapSense_1_CSHL.c ****     #else
 216:.\Generated_Source\PSoC4/CapSense_1_CSHL.c ****         /* No Raw filters */
 217:.\Generated_Source\PSoC4/CapSense_1_CSHL.c ****     #endif  /* ((CapSense_1_RAW_FILTER_MASK & CapSense_1_MEDIAN_FILTER) || \
 218:.\Generated_Source\PSoC4/CapSense_1_CSHL.c ****             *   (CapSense_1_RAW_FILTER_MASK & CapSense_1_AVERAGING_FILTER))
 219:.\Generated_Source\PSoC4/CapSense_1_CSHL.c ****             */
 220:.\Generated_Source\PSoC4/CapSense_1_CSHL.c ****     
 221:.\Generated_Source\PSoC4/CapSense_1_CSHL.c ****     #if (CapSense_1_TOTAL_GENERICS_COUNT)
 222:.\Generated_Source\PSoC4/CapSense_1_CSHL.c ****         /* Exclude generic widget */
 223:.\Generated_Source\PSoC4/CapSense_1_CSHL.c ****         }
 224:.\Generated_Source\PSoC4/CapSense_1_CSHL.c ****     #endif  /* CapSense_1_TOTAL_GENERICS_COUNT */
 225:.\Generated_Source\PSoC4/CapSense_1_CSHL.c **** }
 150              		.loc 1 225 0
 151 005e BD46     		mov	sp, r7
 152 0060 04B0     		add	sp, sp, #16
 153              		@ sp needed for prologue
 154 0062 80BD     		pop	{r7, pc}
 155              	.L3:
 156              		.align	2
 157              	.L2:
 158 0064 00000000 		.word	CapSense_1_widgetNumber
 159 0068 00000000 		.word	CapSense_1_sensorRaw
 160 006c 00000000 		.word	CapSense_1_sensorBaseline
 161 0070 00000000 		.word	CapSense_1_sensorBaselineLow
 162 0074 00000000 		.word	CapSense_1_sensorSignal
 163 0078 00000000 		.word	CapSense_1_debounce
 164 007c 10000000 		.word	CapSense_1_debounceCounter
 165 0080 00000000 		.word	CapSense_1_rawFilterData1
 166              		.cfi_endproc
 167              	.LFE33:
 168              		.size	CapSense_1_BaseInit, .-CapSense_1_BaseInit
 169              		.section	.text.CapSense_1_InitializeSensorBaseline,"ax",%progbits
 170              		.align	2
 171              		.global	CapSense_1_InitializeSensorBaseline
 172              		.code	16
 173              		.thumb_func
 174              		.type	CapSense_1_InitializeSensorBaseline, %function
ARM GAS  C:\Users\Jakob\AppData\Local\Temp\cc5GwTcI.s 			page 8


 175              	CapSense_1_InitializeSensorBaseline:
 176              	.LFB34:
 226:.\Generated_Source\PSoC4/CapSense_1_CSHL.c **** 
 227:.\Generated_Source\PSoC4/CapSense_1_CSHL.c **** 
 228:.\Generated_Source\PSoC4/CapSense_1_CSHL.c **** /*******************************************************************************
 229:.\Generated_Source\PSoC4/CapSense_1_CSHL.c **** * Function Name: CapSense_1_InitializeSensorBaseline
 230:.\Generated_Source\PSoC4/CapSense_1_CSHL.c **** ********************************************************************************
 231:.\Generated_Source\PSoC4/CapSense_1_CSHL.c **** *
 232:.\Generated_Source\PSoC4/CapSense_1_CSHL.c **** * Summary:
 233:.\Generated_Source\PSoC4/CapSense_1_CSHL.c **** *  Loads the CapSense_1_sensorBaseline[sensor] array element with an 
 234:.\Generated_Source\PSoC4/CapSense_1_CSHL.c **** *  initial value by scanning the selected sensor (one channel design) or a pair 
 235:.\Generated_Source\PSoC4/CapSense_1_CSHL.c **** *  of sensors (two channels designs). The raw count value is copied into the 
 236:.\Generated_Source\PSoC4/CapSense_1_CSHL.c **** *  baseline array for each sensor. The raw data filters are initialized if 
 237:.\Generated_Source\PSoC4/CapSense_1_CSHL.c **** *  enabled.
 238:.\Generated_Source\PSoC4/CapSense_1_CSHL.c **** *
 239:.\Generated_Source\PSoC4/CapSense_1_CSHL.c **** * Parameters:
 240:.\Generated_Source\PSoC4/CapSense_1_CSHL.c **** *  sensor:  Sensor number.
 241:.\Generated_Source\PSoC4/CapSense_1_CSHL.c **** *
 242:.\Generated_Source\PSoC4/CapSense_1_CSHL.c **** * Return:
 243:.\Generated_Source\PSoC4/CapSense_1_CSHL.c **** *  None
 244:.\Generated_Source\PSoC4/CapSense_1_CSHL.c **** *
 245:.\Generated_Source\PSoC4/CapSense_1_CSHL.c **** * Global Variables:
 246:.\Generated_Source\PSoC4/CapSense_1_CSHL.c **** *  None
 247:.\Generated_Source\PSoC4/CapSense_1_CSHL.c **** *
 248:.\Generated_Source\PSoC4/CapSense_1_CSHL.c **** * Side Effects:
 249:.\Generated_Source\PSoC4/CapSense_1_CSHL.c **** *  None
 250:.\Generated_Source\PSoC4/CapSense_1_CSHL.c **** * 
 251:.\Generated_Source\PSoC4/CapSense_1_CSHL.c **** *******************************************************************************/
 252:.\Generated_Source\PSoC4/CapSense_1_CSHL.c **** void CapSense_1_InitializeSensorBaseline(uint32 sensor)
 253:.\Generated_Source\PSoC4/CapSense_1_CSHL.c **** {
 177              		.loc 1 253 0
 178              		.cfi_startproc
 179 0000 80B5     		push	{r7, lr}
 180              	.LCFI3:
 181              		.cfi_def_cfa_offset 8
 182              		.cfi_offset 7, -8
 183              		.cfi_offset 14, -4
 184 0002 82B0     		sub	sp, sp, #8
 185              	.LCFI4:
 186              		.cfi_def_cfa_offset 16
 187 0004 00AF     		add	r7, sp, #0
 188              	.LCFI5:
 189              		.cfi_def_cfa_register 7
 190 0006 7860     		str	r0, [r7, #4]
 254:.\Generated_Source\PSoC4/CapSense_1_CSHL.c ****     /* Scan sensor */
 255:.\Generated_Source\PSoC4/CapSense_1_CSHL.c ****     CapSense_1_ScanSensor(sensor);
 191              		.loc 1 255 0
 192 0008 7B68     		ldr	r3, [r7, #4]
 193 000a 181C     		mov	r0, r3
 194 000c FFF7FEFF 		bl	CapSense_1_ScanSensor
 256:.\Generated_Source\PSoC4/CapSense_1_CSHL.c ****     while(CapSense_1_IsBusy() != 0u)
 195              		.loc 1 256 0
 196 0010 C046     		mov	r8, r8
 197              	.L5:
 198              		.loc 1 256 0 is_stmt 0 discriminator 1
 199 0012 FFF7FEFF 		bl	CapSense_1_IsBusy
 200 0016 031C     		mov	r3, r0
ARM GAS  C:\Users\Jakob\AppData\Local\Temp\cc5GwTcI.s 			page 9


 201 0018 002B     		cmp	r3, #0
 202 001a FAD1     		bne	.L5
 257:.\Generated_Source\PSoC4/CapSense_1_CSHL.c ****     {
 258:.\Generated_Source\PSoC4/CapSense_1_CSHL.c ****         /* Wait while sensor is busy */
 259:.\Generated_Source\PSoC4/CapSense_1_CSHL.c ****     }
 260:.\Generated_Source\PSoC4/CapSense_1_CSHL.c ****     
 261:.\Generated_Source\PSoC4/CapSense_1_CSHL.c ****     /* Initialize Baseline, Signal and debounce counters */       
 262:.\Generated_Source\PSoC4/CapSense_1_CSHL.c ****     CapSense_1_BaseInit(sensor);
 203              		.loc 1 262 0 is_stmt 1
 204 001c 7B68     		ldr	r3, [r7, #4]
 205 001e 181C     		mov	r0, r3
 206 0020 FFF7FEFF 		bl	CapSense_1_BaseInit
 263:.\Generated_Source\PSoC4/CapSense_1_CSHL.c **** }
 207              		.loc 1 263 0
 208 0024 BD46     		mov	sp, r7
 209 0026 02B0     		add	sp, sp, #8
 210              		@ sp needed for prologue
 211 0028 80BD     		pop	{r7, pc}
 212              		.cfi_endproc
 213              	.LFE34:
 214              		.size	CapSense_1_InitializeSensorBaseline, .-CapSense_1_InitializeSensorBaseline
 215 002a C046     		.section	.text.CapSense_1_InitializeAllBaselines,"ax",%progbits
 216              		.align	2
 217              		.global	CapSense_1_InitializeAllBaselines
 218              		.code	16
 219              		.thumb_func
 220              		.type	CapSense_1_InitializeAllBaselines, %function
 221              	CapSense_1_InitializeAllBaselines:
 222              	.LFB35:
 264:.\Generated_Source\PSoC4/CapSense_1_CSHL.c **** 
 265:.\Generated_Source\PSoC4/CapSense_1_CSHL.c **** 
 266:.\Generated_Source\PSoC4/CapSense_1_CSHL.c **** /*******************************************************************************
 267:.\Generated_Source\PSoC4/CapSense_1_CSHL.c **** * Function Name: CapSense_1_InitializeAllBaselines
 268:.\Generated_Source\PSoC4/CapSense_1_CSHL.c **** ********************************************************************************
 269:.\Generated_Source\PSoC4/CapSense_1_CSHL.c **** *
 270:.\Generated_Source\PSoC4/CapSense_1_CSHL.c **** * Summary:
 271:.\Generated_Source\PSoC4/CapSense_1_CSHL.c **** *  Uses the CapSense_1_InitializeSensorBaseline function to load the 
 272:.\Generated_Source\PSoC4/CapSense_1_CSHL.c **** *  CapSense_1_sensorBaseline[] array with an initial values by scanning 
 273:.\Generated_Source\PSoC4/CapSense_1_CSHL.c **** *  all the sensors. The raw count values are copied into the baseline array for 
 274:.\Generated_Source\PSoC4/CapSense_1_CSHL.c **** *  all the sensors. The raw data filters are initialized if enabled.
 275:.\Generated_Source\PSoC4/CapSense_1_CSHL.c **** *
 276:.\Generated_Source\PSoC4/CapSense_1_CSHL.c **** * Parameters:
 277:.\Generated_Source\PSoC4/CapSense_1_CSHL.c **** *  None
 278:.\Generated_Source\PSoC4/CapSense_1_CSHL.c **** *
 279:.\Generated_Source\PSoC4/CapSense_1_CSHL.c **** * Return:
 280:.\Generated_Source\PSoC4/CapSense_1_CSHL.c **** *  None
 281:.\Generated_Source\PSoC4/CapSense_1_CSHL.c **** *
 282:.\Generated_Source\PSoC4/CapSense_1_CSHL.c **** * Global Variables:
 283:.\Generated_Source\PSoC4/CapSense_1_CSHL.c **** *  None
 284:.\Generated_Source\PSoC4/CapSense_1_CSHL.c **** *
 285:.\Generated_Source\PSoC4/CapSense_1_CSHL.c **** * Side Effects:
 286:.\Generated_Source\PSoC4/CapSense_1_CSHL.c **** *  None
 287:.\Generated_Source\PSoC4/CapSense_1_CSHL.c **** * 
 288:.\Generated_Source\PSoC4/CapSense_1_CSHL.c **** *******************************************************************************/
 289:.\Generated_Source\PSoC4/CapSense_1_CSHL.c **** void CapSense_1_InitializeAllBaselines(void)
 290:.\Generated_Source\PSoC4/CapSense_1_CSHL.c **** {
 223              		.loc 1 290 0
ARM GAS  C:\Users\Jakob\AppData\Local\Temp\cc5GwTcI.s 			page 10


 224              		.cfi_startproc
 225 0000 80B5     		push	{r7, lr}
 226              	.LCFI6:
 227              		.cfi_def_cfa_offset 8
 228              		.cfi_offset 7, -8
 229              		.cfi_offset 14, -4
 230 0002 82B0     		sub	sp, sp, #8
 231              	.LCFI7:
 232              		.cfi_def_cfa_offset 16
 233 0004 00AF     		add	r7, sp, #0
 234              	.LCFI8:
 235              		.cfi_def_cfa_register 7
 291:.\Generated_Source\PSoC4/CapSense_1_CSHL.c ****     uint32 i;
 292:.\Generated_Source\PSoC4/CapSense_1_CSHL.c ****     
 293:.\Generated_Source\PSoC4/CapSense_1_CSHL.c **** 	for(i = 0u; i < CapSense_1_TOTAL_SCANSLOT_COUNT; i++)
 236              		.loc 1 293 0
 237 0006 0023     		mov	r3, #0
 238 0008 7B60     		str	r3, [r7, #4]
 239 000a 06E0     		b	.L7
 240              	.L8:
 294:.\Generated_Source\PSoC4/CapSense_1_CSHL.c **** 	{
 295:.\Generated_Source\PSoC4/CapSense_1_CSHL.c ****     	CapSense_1_InitializeSensorBaseline(i);
 241              		.loc 1 295 0 discriminator 2
 242 000c 7B68     		ldr	r3, [r7, #4]
 243 000e 181C     		mov	r0, r3
 244 0010 FFF7FEFF 		bl	CapSense_1_InitializeSensorBaseline
 293:.\Generated_Source\PSoC4/CapSense_1_CSHL.c **** 	for(i = 0u; i < CapSense_1_TOTAL_SCANSLOT_COUNT; i++)
 245              		.loc 1 293 0 discriminator 2
 246 0014 7B68     		ldr	r3, [r7, #4]
 247 0016 0133     		add	r3, r3, #1
 248 0018 7B60     		str	r3, [r7, #4]
 249              	.L7:
 293:.\Generated_Source\PSoC4/CapSense_1_CSHL.c **** 	for(i = 0u; i < CapSense_1_TOTAL_SCANSLOT_COUNT; i++)
 250              		.loc 1 293 0 is_stmt 0 discriminator 1
 251 001a 7B68     		ldr	r3, [r7, #4]
 252 001c 002B     		cmp	r3, #0
 253 001e F5D0     		beq	.L8
 296:.\Generated_Source\PSoC4/CapSense_1_CSHL.c **** 	}
 297:.\Generated_Source\PSoC4/CapSense_1_CSHL.c **** }
 254              		.loc 1 297 0 is_stmt 1
 255 0020 BD46     		mov	sp, r7
 256 0022 02B0     		add	sp, sp, #8
 257              		@ sp needed for prologue
 258 0024 80BD     		pop	{r7, pc}
 259              		.cfi_endproc
 260              	.LFE35:
 261              		.size	CapSense_1_InitializeAllBaselines, .-CapSense_1_InitializeAllBaselines
 262 0026 C046     		.section	.text.CapSense_1_InitializeEnabledBaselines,"ax",%progbits
 263              		.align	2
 264              		.global	CapSense_1_InitializeEnabledBaselines
 265              		.code	16
 266              		.thumb_func
 267              		.type	CapSense_1_InitializeEnabledBaselines, %function
 268              	CapSense_1_InitializeEnabledBaselines:
 269              	.LFB36:
 298:.\Generated_Source\PSoC4/CapSense_1_CSHL.c **** 
 299:.\Generated_Source\PSoC4/CapSense_1_CSHL.c **** 
ARM GAS  C:\Users\Jakob\AppData\Local\Temp\cc5GwTcI.s 			page 11


 300:.\Generated_Source\PSoC4/CapSense_1_CSHL.c **** /*******************************************************************************
 301:.\Generated_Source\PSoC4/CapSense_1_CSHL.c **** * Function Name: CapSense_1_InitializeEnabledBaselines
 302:.\Generated_Source\PSoC4/CapSense_1_CSHL.c **** ********************************************************************************
 303:.\Generated_Source\PSoC4/CapSense_1_CSHL.c **** *
 304:.\Generated_Source\PSoC4/CapSense_1_CSHL.c **** * Summary:
 305:.\Generated_Source\PSoC4/CapSense_1_CSHL.c **** *  Scans all the enabled widgets and the raw count values are copied into the 
 306:.\Generated_Source\PSoC4/CapSense_1_CSHL.c **** *  baseline array for all the sensors enabled in the scanning process. The baselines 
 307:.\Generated_Source\PSoC4/CapSense_1_CSHL.c **** *  are initialized with zero values for sensors disabled from the scanning process. 
 308:.\Generated_Source\PSoC4/CapSense_1_CSHL.c **** *  The raw data filters are initialized if enabled.
 309:.\Generated_Source\PSoC4/CapSense_1_CSHL.c **** *
 310:.\Generated_Source\PSoC4/CapSense_1_CSHL.c **** * Parameters:
 311:.\Generated_Source\PSoC4/CapSense_1_CSHL.c **** *  None
 312:.\Generated_Source\PSoC4/CapSense_1_CSHL.c **** *
 313:.\Generated_Source\PSoC4/CapSense_1_CSHL.c **** * Return:
 314:.\Generated_Source\PSoC4/CapSense_1_CSHL.c **** *  None
 315:.\Generated_Source\PSoC4/CapSense_1_CSHL.c **** *
 316:.\Generated_Source\PSoC4/CapSense_1_CSHL.c **** * Global Variables:
 317:.\Generated_Source\PSoC4/CapSense_1_CSHL.c **** *  CapSense_1_sensorRaw[] - used to store the sensors raw data.
 318:.\Generated_Source\PSoC4/CapSense_1_CSHL.c **** *  CapSense_1_sensorEnableMask[ ] - used to store bit masks of the enabled sensors.
 319:.\Generated_Source\PSoC4/CapSense_1_CSHL.c **** *
 320:.\Generated_Source\PSoC4/CapSense_1_CSHL.c **** * Side Effects:
 321:.\Generated_Source\PSoC4/CapSense_1_CSHL.c **** *  None
 322:.\Generated_Source\PSoC4/CapSense_1_CSHL.c **** * 
 323:.\Generated_Source\PSoC4/CapSense_1_CSHL.c **** *******************************************************************************/
 324:.\Generated_Source\PSoC4/CapSense_1_CSHL.c **** void CapSense_1_InitializeEnabledBaselines(void)
 325:.\Generated_Source\PSoC4/CapSense_1_CSHL.c **** {
 270              		.loc 1 325 0
 271              		.cfi_startproc
 272 0000 80B5     		push	{r7, lr}
 273              	.LCFI9:
 274              		.cfi_def_cfa_offset 8
 275              		.cfi_offset 7, -8
 276              		.cfi_offset 14, -4
 277 0002 82B0     		sub	sp, sp, #8
 278              	.LCFI10:
 279              		.cfi_def_cfa_offset 16
 280 0004 00AF     		add	r7, sp, #0
 281              	.LCFI11:
 282              		.cfi_def_cfa_register 7
 326:.\Generated_Source\PSoC4/CapSense_1_CSHL.c ****     uint32 i;
 327:.\Generated_Source\PSoC4/CapSense_1_CSHL.c ****     uint32 isSensorEnabled;
 328:.\Generated_Source\PSoC4/CapSense_1_CSHL.c ****     
 329:.\Generated_Source\PSoC4/CapSense_1_CSHL.c ****     CapSense_1_ScanEnabledWidgets();
 283              		.loc 1 329 0
 284 0006 FFF7FEFF 		bl	CapSense_1_ScanEnabledWidgets
 330:.\Generated_Source\PSoC4/CapSense_1_CSHL.c ****     while(CapSense_1_IsBusy() != 0u)
 285              		.loc 1 330 0
 286 000a C046     		mov	r8, r8
 287              	.L10:
 288              		.loc 1 330 0 is_stmt 0 discriminator 1
 289 000c FFF7FEFF 		bl	CapSense_1_IsBusy
 290 0010 031C     		mov	r3, r0
 291 0012 002B     		cmp	r3, #0
 292 0014 FAD1     		bne	.L10
 331:.\Generated_Source\PSoC4/CapSense_1_CSHL.c ****     {
 332:.\Generated_Source\PSoC4/CapSense_1_CSHL.c ****         /* Wait while sensor is busy */
 333:.\Generated_Source\PSoC4/CapSense_1_CSHL.c ****     }
ARM GAS  C:\Users\Jakob\AppData\Local\Temp\cc5GwTcI.s 			page 12


 334:.\Generated_Source\PSoC4/CapSense_1_CSHL.c ****     
 335:.\Generated_Source\PSoC4/CapSense_1_CSHL.c ****     for(i = 0u; i < CapSense_1_TOTAL_SENSOR_COUNT; i++)
 293              		.loc 1 335 0 is_stmt 1
 294 0016 0023     		mov	r3, #0
 295 0018 7B60     		str	r3, [r7, #4]
 296 001a 11E0     		b	.L11
 297              	.L13:
 336:.\Generated_Source\PSoC4/CapSense_1_CSHL.c ****     {
 337:.\Generated_Source\PSoC4/CapSense_1_CSHL.c ****         isSensorEnabled = CapSense_1_GetBitValue(CapSense_1_sensorEnableMask, i);
 298              		.loc 1 337 0
 299 001c 0B4A     		ldr	r2, .L14
 300 001e 7B68     		ldr	r3, [r7, #4]
 301 0020 101C     		mov	r0, r2
 302 0022 191C     		mov	r1, r3
 303 0024 FFF7FEFF 		bl	CapSense_1_GetBitValue
 304 0028 031C     		mov	r3, r0
 305 002a 3B60     		str	r3, [r7]
 338:.\Generated_Source\PSoC4/CapSense_1_CSHL.c ****         
 339:.\Generated_Source\PSoC4/CapSense_1_CSHL.c ****         /* Clear raw data if sensor is disabled from scanning process */
 340:.\Generated_Source\PSoC4/CapSense_1_CSHL.c ****         if(isSensorEnabled != 0u)
 306              		.loc 1 340 0
 307 002c 3B68     		ldr	r3, [r7]
 308 002e 002B     		cmp	r3, #0
 309 0030 03D0     		beq	.L12
 341:.\Generated_Source\PSoC4/CapSense_1_CSHL.c ****         {
 342:.\Generated_Source\PSoC4/CapSense_1_CSHL.c ****             /* Initialize baselines */
 343:.\Generated_Source\PSoC4/CapSense_1_CSHL.c ****             CapSense_1_BaseInit(i);
 310              		.loc 1 343 0
 311 0032 7B68     		ldr	r3, [r7, #4]
 312 0034 181C     		mov	r0, r3
 313 0036 FFF7FEFF 		bl	CapSense_1_BaseInit
 314              	.L12:
 335:.\Generated_Source\PSoC4/CapSense_1_CSHL.c ****     for(i = 0u; i < CapSense_1_TOTAL_SENSOR_COUNT; i++)
 315              		.loc 1 335 0
 316 003a 7B68     		ldr	r3, [r7, #4]
 317 003c 0133     		add	r3, r3, #1
 318 003e 7B60     		str	r3, [r7, #4]
 319              	.L11:
 335:.\Generated_Source\PSoC4/CapSense_1_CSHL.c ****     for(i = 0u; i < CapSense_1_TOTAL_SENSOR_COUNT; i++)
 320              		.loc 1 335 0 is_stmt 0 discriminator 1
 321 0040 7B68     		ldr	r3, [r7, #4]
 322 0042 002B     		cmp	r3, #0
 323 0044 EAD0     		beq	.L13
 344:.\Generated_Source\PSoC4/CapSense_1_CSHL.c ****         }
 345:.\Generated_Source\PSoC4/CapSense_1_CSHL.c ****     }
 346:.\Generated_Source\PSoC4/CapSense_1_CSHL.c **** }  
 324              		.loc 1 346 0 is_stmt 1
 325 0046 BD46     		mov	sp, r7
 326 0048 02B0     		add	sp, sp, #8
 327              		@ sp needed for prologue
 328 004a 80BD     		pop	{r7, pc}
 329              	.L15:
 330              		.align	2
 331              	.L14:
 332 004c 00000000 		.word	CapSense_1_sensorEnableMask
 333              		.cfi_endproc
 334              	.LFE36:
ARM GAS  C:\Users\Jakob\AppData\Local\Temp\cc5GwTcI.s 			page 13


 335              		.size	CapSense_1_InitializeEnabledBaselines, .-CapSense_1_InitializeEnabledBaselines
 336              		.section	.text.CapSense_1_UpdateBaselineNoThreshold,"ax",%progbits
 337              		.align	2
 338              		.global	CapSense_1_UpdateBaselineNoThreshold
 339              		.code	16
 340              		.thumb_func
 341              		.type	CapSense_1_UpdateBaselineNoThreshold, %function
 342              	CapSense_1_UpdateBaselineNoThreshold:
 343              	.LFB37:
 347:.\Generated_Source\PSoC4/CapSense_1_CSHL.c **** 
 348:.\Generated_Source\PSoC4/CapSense_1_CSHL.c **** 
 349:.\Generated_Source\PSoC4/CapSense_1_CSHL.c **** /*******************************************************************************
 350:.\Generated_Source\PSoC4/CapSense_1_CSHL.c **** * Function Name: CapSense_1_UpdateBaselineNoThreshold
 351:.\Generated_Source\PSoC4/CapSense_1_CSHL.c **** ********************************************************************************
 352:.\Generated_Source\PSoC4/CapSense_1_CSHL.c **** *
 353:.\Generated_Source\PSoC4/CapSense_1_CSHL.c **** * Summary:
 354:.\Generated_Source\PSoC4/CapSense_1_CSHL.c **** *  Updates the CapSense_1_sensorBaseline[sensor] array element using the 
 355:.\Generated_Source\PSoC4/CapSense_1_CSHL.c **** *  LP filter with k = 256. The signal calculates the difference of count by 
 356:.\Generated_Source\PSoC4/CapSense_1_CSHL.c **** *  subtracting the previous baseline from the current raw count value and stores
 357:.\Generated_Source\PSoC4/CapSense_1_CSHL.c **** *  it in CapSense_1_sensorSignal[sensor]. 
 358:.\Generated_Source\PSoC4/CapSense_1_CSHL.c **** *  If the auto reset option is enabled, the baseline updated regards the noise threshold. 
 359:.\Generated_Source\PSoC4/CapSense_1_CSHL.c **** *  If the auto reset option is disabled, the baseline stops updating; baseline is loaded 
 360:.\Generated_Source\PSoC4/CapSense_1_CSHL.c **** *  with a raw count value if a signal is greater than zero and if signal is less 
 361:.\Generated_Source\PSoC4/CapSense_1_CSHL.c **** *  than noise threshold.
 362:.\Generated_Source\PSoC4/CapSense_1_CSHL.c **** *  Raw data filters are applied to the values if enabled before baseline 
 363:.\Generated_Source\PSoC4/CapSense_1_CSHL.c **** *  calculation.
 364:.\Generated_Source\PSoC4/CapSense_1_CSHL.c **** *
 365:.\Generated_Source\PSoC4/CapSense_1_CSHL.c **** *  This API does not update the thresholds in the Smartsense Mode.
 366:.\Generated_Source\PSoC4/CapSense_1_CSHL.c **** *
 367:.\Generated_Source\PSoC4/CapSense_1_CSHL.c **** * Parameters:
 368:.\Generated_Source\PSoC4/CapSense_1_CSHL.c **** *  sensor:  Sensor number.
 369:.\Generated_Source\PSoC4/CapSense_1_CSHL.c **** *
 370:.\Generated_Source\PSoC4/CapSense_1_CSHL.c **** * Return:
 371:.\Generated_Source\PSoC4/CapSense_1_CSHL.c **** *  None
 372:.\Generated_Source\PSoC4/CapSense_1_CSHL.c **** *
 373:.\Generated_Source\PSoC4/CapSense_1_CSHL.c **** * Global Variables:
 374:.\Generated_Source\PSoC4/CapSense_1_CSHL.c **** *  CapSense_1_widgetNumber[]  - stores widget numbers.
 375:.\Generated_Source\PSoC4/CapSense_1_CSHL.c **** *  CapSense_1_sensorBaseline[]    - used to store baseline value.
 376:.\Generated_Source\PSoC4/CapSense_1_CSHL.c **** *  CapSense_1_sensorBaselineLow[] - used to store fraction byte of 
 377:.\Generated_Source\PSoC4/CapSense_1_CSHL.c **** *  baseline value.
 378:.\Generated_Source\PSoC4/CapSense_1_CSHL.c **** *  CapSense_1_sensorSignal[]      - used to store difference between 
 379:.\Generated_Source\PSoC4/CapSense_1_CSHL.c **** *  current value of raw data and previous value of baseline.
 380:.\Generated_Source\PSoC4/CapSense_1_CSHL.c **** *  CapSense_1_rawFilterData1[]    - used to store previous sample of 
 381:.\Generated_Source\PSoC4/CapSense_1_CSHL.c **** *  any enabled raw data filter.
 382:.\Generated_Source\PSoC4/CapSense_1_CSHL.c **** *  CapSense_1_rawFilterData2[]    - used to store before previous sample
 383:.\Generated_Source\PSoC4/CapSense_1_CSHL.c **** *  of enabled raw data filter. Only required for median or average filters.
 384:.\Generated_Source\PSoC4/CapSense_1_CSHL.c **** * 
 385:.\Generated_Source\PSoC4/CapSense_1_CSHL.c **** * Side Effects:
 386:.\Generated_Source\PSoC4/CapSense_1_CSHL.c **** *  None
 387:.\Generated_Source\PSoC4/CapSense_1_CSHL.c **** * 
 388:.\Generated_Source\PSoC4/CapSense_1_CSHL.c **** *******************************************************************************/
 389:.\Generated_Source\PSoC4/CapSense_1_CSHL.c **** void CapSense_1_UpdateBaselineNoThreshold(uint32 sensor)
 390:.\Generated_Source\PSoC4/CapSense_1_CSHL.c **** {
 344              		.loc 1 390 0
 345              		.cfi_startproc
 346 0000 90B5     		push	{r4, r7, lr}
 347              	.LCFI12:
ARM GAS  C:\Users\Jakob\AppData\Local\Temp\cc5GwTcI.s 			page 14


 348              		.cfi_def_cfa_offset 12
 349              		.cfi_offset 4, -12
 350              		.cfi_offset 7, -8
 351              		.cfi_offset 14, -4
 352 0002 87B0     		sub	sp, sp, #28
 353              	.LCFI13:
 354              		.cfi_def_cfa_offset 40
 355 0004 00AF     		add	r7, sp, #0
 356              	.LCFI14:
 357              		.cfi_def_cfa_register 7
 358 0006 7860     		str	r0, [r7, #4]
 391:.\Generated_Source\PSoC4/CapSense_1_CSHL.c ****     uint32 calc;
 392:.\Generated_Source\PSoC4/CapSense_1_CSHL.c **** 	uint32 sign;
 393:.\Generated_Source\PSoC4/CapSense_1_CSHL.c ****     uint16 tempRaw;
 394:.\Generated_Source\PSoC4/CapSense_1_CSHL.c ****     uint16 filteredRawData;
 395:.\Generated_Source\PSoC4/CapSense_1_CSHL.c ****     uint8 widget = CapSense_1_widgetNumber[sensor];
 359              		.loc 1 395 0
 360 0008 3B1C     		mov	r3, r7
 361 000a 1133     		add	r3, r3, #17
 362 000c 7649     		ldr	r1, .L28
 363 000e 7A68     		ldr	r2, [r7, #4]
 364 0010 8A18     		add	r2, r1, r2
 365 0012 1278     		ldrb	r2, [r2]
 366 0014 1A70     		strb	r2, [r3]
 396:.\Generated_Source\PSoC4/CapSense_1_CSHL.c ****     uint8 noiseThreshold = CapSense_1_noiseThreshold[widget];
 367              		.loc 1 396 0
 368 0016 3B1C     		mov	r3, r7
 369 0018 1133     		add	r3, r3, #17
 370 001a 1A78     		ldrb	r2, [r3]
 371 001c 3B1C     		mov	r3, r7
 372 001e 1033     		add	r3, r3, #16
 373 0020 7249     		ldr	r1, .L28+4
 374 0022 8A5C     		ldrb	r2, [r1, r2]
 375 0024 1A70     		strb	r2, [r3]
 397:.\Generated_Source\PSoC4/CapSense_1_CSHL.c ****     
 398:.\Generated_Source\PSoC4/CapSense_1_CSHL.c ****     #if (CapSense_1_TOTAL_GENERICS_COUNT)
 399:.\Generated_Source\PSoC4/CapSense_1_CSHL.c ****         /* Exclude generic widget */
 400:.\Generated_Source\PSoC4/CapSense_1_CSHL.c ****         if(widget < CapSense_1_END_OF_WIDGETS_INDEX)
 401:.\Generated_Source\PSoC4/CapSense_1_CSHL.c ****         {
 402:.\Generated_Source\PSoC4/CapSense_1_CSHL.c ****     #endif  /* CapSense_1_TOTAL_GENERICS_COUNT */
 403:.\Generated_Source\PSoC4/CapSense_1_CSHL.c ****     
 404:.\Generated_Source\PSoC4/CapSense_1_CSHL.c ****     filteredRawData = CapSense_1_sensorRaw[sensor];
 376              		.loc 1 404 0
 377 0026 3B1C     		mov	r3, r7
 378 0028 0E33     		add	r3, r3, #14
 379 002a 714A     		ldr	r2, .L28+8
 380 002c 7968     		ldr	r1, [r7, #4]
 381 002e 4900     		lsl	r1, r1, #1
 382 0030 8A5A     		ldrh	r2, [r1, r2]
 383 0032 1A80     		strh	r2, [r3]
 405:.\Generated_Source\PSoC4/CapSense_1_CSHL.c ****     
 406:.\Generated_Source\PSoC4/CapSense_1_CSHL.c ****     #if (CapSense_1_RAW_FILTER_MASK & CapSense_1_MEDIAN_FILTER)
 407:.\Generated_Source\PSoC4/CapSense_1_CSHL.c ****         tempRaw = filteredRawData;
 408:.\Generated_Source\PSoC4/CapSense_1_CSHL.c ****         filteredRawData = CapSense_1_MedianFilter(filteredRawData, CapSense_1_rawFilterData1[sensor
 409:.\Generated_Source\PSoC4/CapSense_1_CSHL.c ****                                                         CapSense_1_rawFilterData2[sensor]);
 410:.\Generated_Source\PSoC4/CapSense_1_CSHL.c ****         CapSense_1_rawFilterData2[sensor] = CapSense_1_rawFilterData1[sensor];
 411:.\Generated_Source\PSoC4/CapSense_1_CSHL.c ****         CapSense_1_rawFilterData1[sensor] = tempRaw;
ARM GAS  C:\Users\Jakob\AppData\Local\Temp\cc5GwTcI.s 			page 15


 412:.\Generated_Source\PSoC4/CapSense_1_CSHL.c ****         
 413:.\Generated_Source\PSoC4/CapSense_1_CSHL.c ****     #elif (CapSense_1_RAW_FILTER_MASK & CapSense_1_AVERAGING_FILTER)
 414:.\Generated_Source\PSoC4/CapSense_1_CSHL.c ****         tempRaw = filteredRawData;
 415:.\Generated_Source\PSoC4/CapSense_1_CSHL.c ****         filteredRawData = CapSense_1_AveragingFilter(filteredRawData, CapSense_1_rawFilterData1[sen
 416:.\Generated_Source\PSoC4/CapSense_1_CSHL.c ****                                                            CapSense_1_rawFilterData2[sensor]);
 417:.\Generated_Source\PSoC4/CapSense_1_CSHL.c ****         CapSense_1_rawFilterData2[sensor] = CapSense_1_rawFilterData1[sensor];
 418:.\Generated_Source\PSoC4/CapSense_1_CSHL.c ****         CapSense_1_rawFilterData1[sensor] = tempRaw;
 419:.\Generated_Source\PSoC4/CapSense_1_CSHL.c ****         
 420:.\Generated_Source\PSoC4/CapSense_1_CSHL.c ****     #elif (CapSense_1_RAW_FILTER_MASK & CapSense_1_IIR2_FILTER)
 421:.\Generated_Source\PSoC4/CapSense_1_CSHL.c ****         filteredRawData = CapSense_1_IIR2Filter(filteredRawData, CapSense_1_rawFilterData1[sensor])
 422:.\Generated_Source\PSoC4/CapSense_1_CSHL.c ****         CapSense_1_rawFilterData1[sensor] = filteredRawData;
 423:.\Generated_Source\PSoC4/CapSense_1_CSHL.c ****         
 424:.\Generated_Source\PSoC4/CapSense_1_CSHL.c ****     #elif (CapSense_1_RAW_FILTER_MASK & CapSense_1_IIR4_FILTER)
 425:.\Generated_Source\PSoC4/CapSense_1_CSHL.c ****         filteredRawData = CapSense_1_IIR4Filter(filteredRawData, CapSense_1_rawFilterData1[sensor])
 384              		.loc 1 425 0
 385 0034 6F4B     		ldr	r3, .L28+12
 386 0036 7A68     		ldr	r2, [r7, #4]
 387 0038 5200     		lsl	r2, r2, #1
 388 003a D35A     		ldrh	r3, [r2, r3]
 389 003c 3C1C     		mov	r4, r7
 390 003e 0E34     		add	r4, r4, #14
 391 0040 3A1C     		mov	r2, r7
 392 0042 0E32     		add	r2, r2, #14
 393 0044 1288     		ldrh	r2, [r2]
 394 0046 101C     		mov	r0, r2
 395 0048 191C     		mov	r1, r3
 396 004a FFF7FEFF 		bl	CapSense_1_IIR4Filter
 397 004e 031C     		mov	r3, r0
 398 0050 2380     		strh	r3, [r4]
 426:.\Generated_Source\PSoC4/CapSense_1_CSHL.c ****         CapSense_1_rawFilterData1[sensor] = filteredRawData;
 399              		.loc 1 426 0
 400 0052 684B     		ldr	r3, .L28+12
 401 0054 7A68     		ldr	r2, [r7, #4]
 402 0056 5200     		lsl	r2, r2, #1
 403 0058 391C     		mov	r1, r7
 404 005a 0E31     		add	r1, r1, #14
 405 005c 0988     		ldrh	r1, [r1]
 406 005e D152     		strh	r1, [r2, r3]
 427:.\Generated_Source\PSoC4/CapSense_1_CSHL.c ****             
 428:.\Generated_Source\PSoC4/CapSense_1_CSHL.c ****     #elif (CapSense_1_RAW_FILTER_MASK & CapSense_1_JITTER_FILTER)
 429:.\Generated_Source\PSoC4/CapSense_1_CSHL.c ****         filteredRawData = CapSense_1_JitterFilter(filteredRawData, CapSense_1_rawFilterData1[sensor
 430:.\Generated_Source\PSoC4/CapSense_1_CSHL.c ****         CapSense_1_rawFilterData1[sensor] = filteredRawData;
 431:.\Generated_Source\PSoC4/CapSense_1_CSHL.c ****         
 432:.\Generated_Source\PSoC4/CapSense_1_CSHL.c ****     #elif (CapSense_1_RAW_FILTER_MASK & CapSense_1_IIR8_FILTER)
 433:.\Generated_Source\PSoC4/CapSense_1_CSHL.c ****         filteredRawData = CapSense_1_IIR8Filter(filteredRawData, CapSense_1_rawFilterData1[sensor])
 434:.\Generated_Source\PSoC4/CapSense_1_CSHL.c ****         CapSense_1_rawFilterData1[sensor] = filteredRawData;
 435:.\Generated_Source\PSoC4/CapSense_1_CSHL.c ****         
 436:.\Generated_Source\PSoC4/CapSense_1_CSHL.c ****     #elif (CapSense_1_RAW_FILTER_MASK & CapSense_1_IIR16_FILTER)
 437:.\Generated_Source\PSoC4/CapSense_1_CSHL.c ****         filteredRawData = CapSense_1_IIR16Filter(filteredRawData, CapSense_1_rawFilterData1[sensor]
 438:.\Generated_Source\PSoC4/CapSense_1_CSHL.c ****         CapSense_1_rawFilterData1[sensor] = filteredRawData;
 439:.\Generated_Source\PSoC4/CapSense_1_CSHL.c ****         
 440:.\Generated_Source\PSoC4/CapSense_1_CSHL.c ****     #else
 441:.\Generated_Source\PSoC4/CapSense_1_CSHL.c ****         /* No Raw filters */
 442:.\Generated_Source\PSoC4/CapSense_1_CSHL.c ****     #endif  /* (CapSense_1_RAW_FILTER_MASK & CapSense_1_MEDIAN_FILTER) */
 443:.\Generated_Source\PSoC4/CapSense_1_CSHL.c **** 
 444:.\Generated_Source\PSoC4/CapSense_1_CSHL.c **** 	#if (CapSense_1_TUNING_METHOD == CapSense_1__TUNING_AUTO)
 445:.\Generated_Source\PSoC4/CapSense_1_CSHL.c **** 	    MeasureNoiseEnvelope_P4_v2_0(&CapSense_1_config, (uint8)sensor, CapSense_1_sensorRaw);
ARM GAS  C:\Users\Jakob\AppData\Local\Temp\cc5GwTcI.s 			page 16


 407              		.loc 1 445 0
 408 0060 7B68     		ldr	r3, [r7, #4]
 409 0062 DAB2     		uxtb	r2, r3
 410 0064 6449     		ldr	r1, .L28+16
 411 0066 624B     		ldr	r3, .L28+8
 412 0068 081C     		mov	r0, r1
 413 006a 111C     		mov	r1, r2
 414 006c 1A1C     		mov	r2, r3
 415 006e FFF7FEFF 		bl	MeasureNoiseEnvelope_P4_v2_0
 446:.\Generated_Source\PSoC4/CapSense_1_CSHL.c **** 	#endif /* (CapSense_1_TUNING_METHOD == CapSense_1__TUNING_AUTO) */
 447:.\Generated_Source\PSoC4/CapSense_1_CSHL.c **** 
 448:.\Generated_Source\PSoC4/CapSense_1_CSHL.c ****     /* Baseline calculation */
 449:.\Generated_Source\PSoC4/CapSense_1_CSHL.c ****     /* Calculate difference RawData[cur] - Baseline[prev] */
 450:.\Generated_Source\PSoC4/CapSense_1_CSHL.c ****     if(filteredRawData >= CapSense_1_sensorBaseline[sensor])
 416              		.loc 1 450 0
 417 0072 624B     		ldr	r3, .L28+20
 418 0074 7A68     		ldr	r2, [r7, #4]
 419 0076 5200     		lsl	r2, r2, #1
 420 0078 D35A     		ldrh	r3, [r2, r3]
 421 007a 3A1C     		mov	r2, r7
 422 007c 0E32     		add	r2, r2, #14
 423 007e 1288     		ldrh	r2, [r2]
 424 0080 9A42     		cmp	r2, r3
 425 0082 12D3     		bcc	.L17
 451:.\Generated_Source\PSoC4/CapSense_1_CSHL.c ****     {
 452:.\Generated_Source\PSoC4/CapSense_1_CSHL.c **** 		CapSense_1_lowBaselineResetCnt[sensor] = 0u;	
 426              		.loc 1 452 0
 427 0084 5E4A     		ldr	r2, .L28+24
 428 0086 7B68     		ldr	r3, [r7, #4]
 429 0088 D318     		add	r3, r2, r3
 430 008a 0022     		mov	r2, #0
 431 008c 1A70     		strb	r2, [r3]
 453:.\Generated_Source\PSoC4/CapSense_1_CSHL.c ****         tempRaw = filteredRawData - CapSense_1_sensorBaseline[sensor];
 432              		.loc 1 453 0
 433 008e 5B4B     		ldr	r3, .L28+20
 434 0090 7A68     		ldr	r2, [r7, #4]
 435 0092 5200     		lsl	r2, r2, #1
 436 0094 D25A     		ldrh	r2, [r2, r3]
 437 0096 3B1C     		mov	r3, r7
 438 0098 1233     		add	r3, r3, #18
 439 009a 391C     		mov	r1, r7
 440 009c 0E31     		add	r1, r1, #14
 441 009e 0988     		ldrh	r1, [r1]
 442 00a0 8A1A     		sub	r2, r1, r2
 443 00a2 1A80     		strh	r2, [r3]
 454:.\Generated_Source\PSoC4/CapSense_1_CSHL.c ****         sign = 1u;    /* Positive difference - Calculate the Signal */
 444              		.loc 1 454 0
 445 00a4 0123     		mov	r3, #1
 446 00a6 7B61     		str	r3, [r7, #20]
 447 00a8 0CE0     		b	.L18
 448              	.L17:
 455:.\Generated_Source\PSoC4/CapSense_1_CSHL.c ****     }
 456:.\Generated_Source\PSoC4/CapSense_1_CSHL.c ****     else
 457:.\Generated_Source\PSoC4/CapSense_1_CSHL.c ****     {
 458:.\Generated_Source\PSoC4/CapSense_1_CSHL.c ****         tempRaw = CapSense_1_sensorBaseline[sensor] - filteredRawData;
 449              		.loc 1 458 0
 450 00aa 544B     		ldr	r3, .L28+20
ARM GAS  C:\Users\Jakob\AppData\Local\Temp\cc5GwTcI.s 			page 17


 451 00ac 7A68     		ldr	r2, [r7, #4]
 452 00ae 5200     		lsl	r2, r2, #1
 453 00b0 D15A     		ldrh	r1, [r2, r3]
 454 00b2 3B1C     		mov	r3, r7
 455 00b4 1233     		add	r3, r3, #18
 456 00b6 3A1C     		mov	r2, r7
 457 00b8 0E32     		add	r2, r2, #14
 458 00ba 1288     		ldrh	r2, [r2]
 459 00bc 8A1A     		sub	r2, r1, r2
 460 00be 1A80     		strh	r2, [r3]
 459:.\Generated_Source\PSoC4/CapSense_1_CSHL.c ****         sign = 0u;    /* Negative difference - Do NOT calculate the Signal */
 461              		.loc 1 459 0
 462 00c0 0023     		mov	r3, #0
 463 00c2 7B61     		str	r3, [r7, #20]
 464              	.L18:
 460:.\Generated_Source\PSoC4/CapSense_1_CSHL.c ****     }
 461:.\Generated_Source\PSoC4/CapSense_1_CSHL.c **** 
 462:.\Generated_Source\PSoC4/CapSense_1_CSHL.c **** 	#if (CapSense_1_TUNING_METHOD != CapSense_1__TUNING_NONE)
 463:.\Generated_Source\PSoC4/CapSense_1_CSHL.c **** 	if((sign == 0u) && (tempRaw > (uint16) CapSense_1_negativeNoiseThreshold[widget]))
 465              		.loc 1 463 0
 466 00c4 7B69     		ldr	r3, [r7, #20]
 467 00c6 002B     		cmp	r3, #0
 468 00c8 24D1     		bne	.L19
 469              		.loc 1 463 0 is_stmt 0 discriminator 1
 470 00ca 3B1C     		mov	r3, r7
 471 00cc 1133     		add	r3, r3, #17
 472 00ce 1B78     		ldrb	r3, [r3]
 473 00d0 4C4A     		ldr	r2, .L28+28
 474 00d2 D35C     		ldrb	r3, [r2, r3]
 475 00d4 3A1C     		mov	r2, r7
 476 00d6 1232     		add	r2, r2, #18
 477 00d8 1288     		ldrh	r2, [r2]
 478 00da 9A42     		cmp	r2, r3
 479 00dc 1AD9     		bls	.L19
 464:.\Generated_Source\PSoC4/CapSense_1_CSHL.c **** 	#else
 465:.\Generated_Source\PSoC4/CapSense_1_CSHL.c **** 	if((sign == 0u) && (tempRaw > (uint16) CapSense_1_NEGATIVE_NOISE_THRESHOLD))
 466:.\Generated_Source\PSoC4/CapSense_1_CSHL.c **** 	#endif /* (CapSense_1_TUNING_METHOD != CapSense_1__TUNING_NONE) */ 
 467:.\Generated_Source\PSoC4/CapSense_1_CSHL.c ****     {
 468:.\Generated_Source\PSoC4/CapSense_1_CSHL.c ****         if(CapSense_1_lowBaselineResetCnt[sensor] >= CapSense_1_LOW_BASELINE_RESET)
 480              		.loc 1 468 0 is_stmt 1
 481 00de 484A     		ldr	r2, .L28+24
 482 00e0 7B68     		ldr	r3, [r7, #4]
 483 00e2 D318     		add	r3, r2, r3
 484 00e4 1B78     		ldrb	r3, [r3]
 485 00e6 042B     		cmp	r3, #4
 486 00e8 09D9     		bls	.L20
 469:.\Generated_Source\PSoC4/CapSense_1_CSHL.c ****         {
 470:.\Generated_Source\PSoC4/CapSense_1_CSHL.c ****             CapSense_1_BaseInit(sensor);
 487              		.loc 1 470 0
 488 00ea 7B68     		ldr	r3, [r7, #4]
 489 00ec 181C     		mov	r0, r3
 490 00ee FFF7FEFF 		bl	CapSense_1_BaseInit
 471:.\Generated_Source\PSoC4/CapSense_1_CSHL.c ****             CapSense_1_lowBaselineResetCnt[sensor] = 0u;
 491              		.loc 1 471 0
 492 00f2 434A     		ldr	r2, .L28+24
 493 00f4 7B68     		ldr	r3, [r7, #4]
 494 00f6 D318     		add	r3, r2, r3
ARM GAS  C:\Users\Jakob\AppData\Local\Temp\cc5GwTcI.s 			page 18


 495 00f8 0022     		mov	r2, #0
 496 00fa 1A70     		strb	r2, [r3]
 468:.\Generated_Source\PSoC4/CapSense_1_CSHL.c ****         if(CapSense_1_lowBaselineResetCnt[sensor] >= CapSense_1_LOW_BASELINE_RESET)
 497              		.loc 1 468 0
 498 00fc 4CE0     		b	.L22
 499              	.L20:
 472:.\Generated_Source\PSoC4/CapSense_1_CSHL.c ****         }
 473:.\Generated_Source\PSoC4/CapSense_1_CSHL.c ****         else
 474:.\Generated_Source\PSoC4/CapSense_1_CSHL.c ****         {
 475:.\Generated_Source\PSoC4/CapSense_1_CSHL.c ****             CapSense_1_lowBaselineResetCnt[sensor]++;
 500              		.loc 1 475 0
 501 00fe 404A     		ldr	r2, .L28+24
 502 0100 7B68     		ldr	r3, [r7, #4]
 503 0102 D318     		add	r3, r2, r3
 504 0104 1B78     		ldrb	r3, [r3]
 505 0106 0133     		add	r3, r3, #1
 506 0108 DAB2     		uxtb	r2, r3
 507 010a 3D49     		ldr	r1, .L28+24
 508 010c 7B68     		ldr	r3, [r7, #4]
 509 010e CB18     		add	r3, r1, r3
 510 0110 1A70     		strb	r2, [r3]
 468:.\Generated_Source\PSoC4/CapSense_1_CSHL.c ****         if(CapSense_1_lowBaselineResetCnt[sensor] >= CapSense_1_LOW_BASELINE_RESET)
 511              		.loc 1 468 0
 512 0112 41E0     		b	.L22
 513              	.L19:
 476:.\Generated_Source\PSoC4/CapSense_1_CSHL.c ****         }
 477:.\Generated_Source\PSoC4/CapSense_1_CSHL.c ****     }
 478:.\Generated_Source\PSoC4/CapSense_1_CSHL.c ****     else
 479:.\Generated_Source\PSoC4/CapSense_1_CSHL.c ****     {
 480:.\Generated_Source\PSoC4/CapSense_1_CSHL.c ****         #if (CapSense_1_AUTO_RESET == CapSense_1_AUTO_RESET_DISABLE)
 481:.\Generated_Source\PSoC4/CapSense_1_CSHL.c **** 		#if (CapSense_1_TUNING_METHOD != CapSense_1__TUNING_NONE)			
 482:.\Generated_Source\PSoC4/CapSense_1_CSHL.c **** 			/* Update Baseline if lower than noiseThreshold */
 483:.\Generated_Source\PSoC4/CapSense_1_CSHL.c **** 			if ( (tempRaw <= noiseThreshold) || 
 514              		.loc 1 483 0
 515 0114 3B1C     		mov	r3, r7
 516 0116 1033     		add	r3, r3, #16
 517 0118 1B78     		ldrb	r3, [r3]
 518 011a 9BB2     		uxth	r3, r3
 519 011c 3A1C     		mov	r2, r7
 520 011e 1232     		add	r2, r2, #18
 521 0120 1288     		ldrh	r2, [r2]
 522 0122 9A42     		cmp	r2, r3
 523 0124 0CD9     		bls	.L23
 484:.\Generated_Source\PSoC4/CapSense_1_CSHL.c **** 			 ((tempRaw < (uint16) CapSense_1_negativeNoiseThreshold[widget])
 524              		.loc 1 484 0 discriminator 1
 525 0126 3B1C     		mov	r3, r7
 526 0128 1133     		add	r3, r3, #17
 527 012a 1B78     		ldrb	r3, [r3]
 528 012c 354A     		ldr	r2, .L28+28
 529 012e D35C     		ldrb	r3, [r2, r3]
 483:.\Generated_Source\PSoC4/CapSense_1_CSHL.c **** 			if ( (tempRaw <= noiseThreshold) || 
 530              		.loc 1 483 0 discriminator 1
 531 0130 3A1C     		mov	r2, r7
 532 0132 1232     		add	r2, r2, #18
 533 0134 1288     		ldrh	r2, [r2]
 534 0136 9A42     		cmp	r2, r3
 535 0138 2ED2     		bcs	.L22
ARM GAS  C:\Users\Jakob\AppData\Local\Temp\cc5GwTcI.s 			page 19


 485:.\Generated_Source\PSoC4/CapSense_1_CSHL.c **** 			   && (sign == 0u)))
 536              		.loc 1 485 0
 537 013a 7B69     		ldr	r3, [r7, #20]
 538 013c 002B     		cmp	r3, #0
 539 013e 2BD1     		bne	.L22
 540              	.L23:
 486:.\Generated_Source\PSoC4/CapSense_1_CSHL.c **** 			{
 487:.\Generated_Source\PSoC4/CapSense_1_CSHL.c **** 		#else
 488:.\Generated_Source\PSoC4/CapSense_1_CSHL.c **** 			/* Update Baseline if lower than noiseThreshold */
 489:.\Generated_Source\PSoC4/CapSense_1_CSHL.c **** 			if ( (tempRaw <= noiseThreshold) || 
 490:.\Generated_Source\PSoC4/CapSense_1_CSHL.c **** 				 ((tempRaw < (uint16) CapSense_1_NEGATIVE_NOISE_THRESHOLD)
 491:.\Generated_Source\PSoC4/CapSense_1_CSHL.c **** 				   && (sign == 0u)))
 492:.\Generated_Source\PSoC4/CapSense_1_CSHL.c **** 			{
 493:.\Generated_Source\PSoC4/CapSense_1_CSHL.c **** 		#endif /* (CapSense_1_TUNING_METHOD != CapSense_1__TUNING_NONE) */ 
 494:.\Generated_Source\PSoC4/CapSense_1_CSHL.c ****         #endif /* (CapSense_1_AUTO_RESET == CapSense_1_AUTO_RESET_DISABLE) */
 495:.\Generated_Source\PSoC4/CapSense_1_CSHL.c ****                 /* Make full Baseline 23 bits */
 496:.\Generated_Source\PSoC4/CapSense_1_CSHL.c ****                 calc = (uint32) CapSense_1_sensorBaseline[sensor] << 8u;
 541              		.loc 1 496 0
 542 0140 2E4B     		ldr	r3, .L28+20
 543 0142 7A68     		ldr	r2, [r7, #4]
 544 0144 5200     		lsl	r2, r2, #1
 545 0146 D35A     		ldrh	r3, [r2, r3]
 546 0148 1B02     		lsl	r3, r3, #8
 547 014a BB60     		str	r3, [r7, #8]
 497:.\Generated_Source\PSoC4/CapSense_1_CSHL.c ****                 calc |= (uint32) CapSense_1_sensorBaselineLow[sensor];
 548              		.loc 1 497 0
 549 014c 2E4A     		ldr	r2, .L28+32
 550 014e 7B68     		ldr	r3, [r7, #4]
 551 0150 D318     		add	r3, r2, r3
 552 0152 1B78     		ldrb	r3, [r3]
 553 0154 BA68     		ldr	r2, [r7, #8]
 554 0156 1343     		orr	r3, r2
 555 0158 BB60     		str	r3, [r7, #8]
 498:.\Generated_Source\PSoC4/CapSense_1_CSHL.c **** 
 499:.\Generated_Source\PSoC4/CapSense_1_CSHL.c ****                 /* Add Raw Data to Baseline */
 500:.\Generated_Source\PSoC4/CapSense_1_CSHL.c ****                 calc += filteredRawData;
 556              		.loc 1 500 0
 557 015a 3B1C     		mov	r3, r7
 558 015c 0E33     		add	r3, r3, #14
 559 015e 1B88     		ldrh	r3, [r3]
 560 0160 BA68     		ldr	r2, [r7, #8]
 561 0162 D318     		add	r3, r2, r3
 562 0164 BB60     		str	r3, [r7, #8]
 501:.\Generated_Source\PSoC4/CapSense_1_CSHL.c **** 
 502:.\Generated_Source\PSoC4/CapSense_1_CSHL.c ****                 /* Sub the high Baseline */
 503:.\Generated_Source\PSoC4/CapSense_1_CSHL.c ****                 calc -= CapSense_1_sensorBaseline[sensor];
 563              		.loc 1 503 0
 564 0166 254B     		ldr	r3, .L28+20
 565 0168 7A68     		ldr	r2, [r7, #4]
 566 016a 5200     		lsl	r2, r2, #1
 567 016c D35A     		ldrh	r3, [r2, r3]
 568 016e BA68     		ldr	r2, [r7, #8]
 569 0170 D31A     		sub	r3, r2, r3
 570 0172 BB60     		str	r3, [r7, #8]
 504:.\Generated_Source\PSoC4/CapSense_1_CSHL.c **** 
 505:.\Generated_Source\PSoC4/CapSense_1_CSHL.c ****                 /* Put Baseline and BaselineLow */
 506:.\Generated_Source\PSoC4/CapSense_1_CSHL.c ****                 CapSense_1_sensorBaseline[sensor] = ((uint16) (calc >> 8u));
ARM GAS  C:\Users\Jakob\AppData\Local\Temp\cc5GwTcI.s 			page 20


 571              		.loc 1 506 0
 572 0174 BB68     		ldr	r3, [r7, #8]
 573 0176 1B0A     		lsr	r3, r3, #8
 574 0178 99B2     		uxth	r1, r3
 575 017a 204B     		ldr	r3, .L28+20
 576 017c 7A68     		ldr	r2, [r7, #4]
 577 017e 5200     		lsl	r2, r2, #1
 578 0180 D152     		strh	r1, [r2, r3]
 507:.\Generated_Source\PSoC4/CapSense_1_CSHL.c ****                 CapSense_1_sensorBaselineLow[sensor] = ((uint8) calc);
 579              		.loc 1 507 0
 580 0182 BB68     		ldr	r3, [r7, #8]
 581 0184 DAB2     		uxtb	r2, r3
 582 0186 2049     		ldr	r1, .L28+32
 583 0188 7B68     		ldr	r3, [r7, #4]
 584 018a CB18     		add	r3, r1, r3
 585 018c 1A70     		strb	r2, [r3]
 508:.\Generated_Source\PSoC4/CapSense_1_CSHL.c **** 
 509:.\Generated_Source\PSoC4/CapSense_1_CSHL.c ****                 CapSense_1_lowBaselineResetCnt[sensor] = 0u;
 586              		.loc 1 509 0
 587 018e 1C4A     		ldr	r2, .L28+24
 588 0190 7B68     		ldr	r3, [r7, #4]
 589 0192 D318     		add	r3, r2, r3
 590 0194 0022     		mov	r2, #0
 591 0196 1A70     		strb	r2, [r3]
 592              	.L22:
 510:.\Generated_Source\PSoC4/CapSense_1_CSHL.c ****         #if (CapSense_1_AUTO_RESET == CapSense_1_AUTO_RESET_DISABLE)
 511:.\Generated_Source\PSoC4/CapSense_1_CSHL.c ****             }
 512:.\Generated_Source\PSoC4/CapSense_1_CSHL.c ****         #endif /* (CapSense_1_AUTO_RESET == CapSense_1_AUTO_RESET_DISABLE) */
 513:.\Generated_Source\PSoC4/CapSense_1_CSHL.c ****     }
 514:.\Generated_Source\PSoC4/CapSense_1_CSHL.c **** 
 515:.\Generated_Source\PSoC4/CapSense_1_CSHL.c ****     /* Calculate Signal if positive difference > noiseThreshold */
 516:.\Generated_Source\PSoC4/CapSense_1_CSHL.c ****     if((tempRaw > (uint16) noiseThreshold) && (sign != 0u))
 593              		.loc 1 516 0
 594 0198 3B1C     		mov	r3, r7
 595 019a 1033     		add	r3, r3, #16
 596 019c 1B78     		ldrb	r3, [r3]
 597 019e 9BB2     		uxth	r3, r3
 598 01a0 3A1C     		mov	r2, r7
 599 01a2 1232     		add	r2, r2, #18
 600 01a4 1288     		ldrh	r2, [r2]
 601 01a6 9A42     		cmp	r2, r3
 602 01a8 16D9     		bls	.L24
 603              		.loc 1 516 0 is_stmt 0 discriminator 1
 604 01aa 7B69     		ldr	r3, [r7, #20]
 605 01ac 002B     		cmp	r3, #0
 606 01ae 13D0     		beq	.L24
 517:.\Generated_Source\PSoC4/CapSense_1_CSHL.c ****     {
 518:.\Generated_Source\PSoC4/CapSense_1_CSHL.c ****         #if (CapSense_1_SIGNAL_SIZE == CapSense_1_SIGNAL_SIZE_UINT8)
 519:.\Generated_Source\PSoC4/CapSense_1_CSHL.c ****             /* Over flow defence for uint8 */
 520:.\Generated_Source\PSoC4/CapSense_1_CSHL.c ****             if (tempRaw > 0xFFu)
 607              		.loc 1 520 0 is_stmt 1
 608 01b0 3B1C     		mov	r3, r7
 609 01b2 1233     		add	r3, r3, #18
 610 01b4 1B88     		ldrh	r3, [r3]
 611 01b6 FF2B     		cmp	r3, #255
 612 01b8 05D9     		bls	.L25
 521:.\Generated_Source\PSoC4/CapSense_1_CSHL.c ****             {
ARM GAS  C:\Users\Jakob\AppData\Local\Temp\cc5GwTcI.s 			page 21


 522:.\Generated_Source\PSoC4/CapSense_1_CSHL.c ****                 CapSense_1_sensorSignal[sensor] = 0xFFu;
 613              		.loc 1 522 0
 614 01ba 144A     		ldr	r2, .L28+36
 615 01bc 7B68     		ldr	r3, [r7, #4]
 616 01be D318     		add	r3, r2, r3
 617 01c0 FF22     		mov	r2, #255
 618 01c2 1A70     		strb	r2, [r3]
 520:.\Generated_Source\PSoC4/CapSense_1_CSHL.c ****             if (tempRaw > 0xFFu)
 619              		.loc 1 520 0
 620 01c4 0DE0     		b	.L16
 621              	.L25:
 523:.\Generated_Source\PSoC4/CapSense_1_CSHL.c ****             }    
 524:.\Generated_Source\PSoC4/CapSense_1_CSHL.c ****             else 
 525:.\Generated_Source\PSoC4/CapSense_1_CSHL.c ****             {
 526:.\Generated_Source\PSoC4/CapSense_1_CSHL.c ****                 CapSense_1_sensorSignal[sensor] = ((uint8) tempRaw);
 622              		.loc 1 526 0
 623 01c6 3B1C     		mov	r3, r7
 624 01c8 1233     		add	r3, r3, #18
 625 01ca 1B88     		ldrh	r3, [r3]
 626 01cc DAB2     		uxtb	r2, r3
 627 01ce 0F49     		ldr	r1, .L28+36
 628 01d0 7B68     		ldr	r3, [r7, #4]
 629 01d2 CB18     		add	r3, r1, r3
 630 01d4 1A70     		strb	r2, [r3]
 520:.\Generated_Source\PSoC4/CapSense_1_CSHL.c ****             if (tempRaw > 0xFFu)
 631              		.loc 1 520 0
 632 01d6 04E0     		b	.L16
 633              	.L24:
 527:.\Generated_Source\PSoC4/CapSense_1_CSHL.c ****             }
 528:.\Generated_Source\PSoC4/CapSense_1_CSHL.c ****         #else
 529:.\Generated_Source\PSoC4/CapSense_1_CSHL.c ****             CapSense_1_sensorSignal[sensor] = ((uint16) tempRaw);
 530:.\Generated_Source\PSoC4/CapSense_1_CSHL.c ****         #endif  /* (CapSense_1_SIGNAL_SIZE == CapSense_1_SIGNAL_SIZE_UINT8) */
 531:.\Generated_Source\PSoC4/CapSense_1_CSHL.c ****     }
 532:.\Generated_Source\PSoC4/CapSense_1_CSHL.c ****     else
 533:.\Generated_Source\PSoC4/CapSense_1_CSHL.c ****     {
 534:.\Generated_Source\PSoC4/CapSense_1_CSHL.c ****         /* Signal is zero */
 535:.\Generated_Source\PSoC4/CapSense_1_CSHL.c ****         CapSense_1_sensorSignal[sensor] = 0u;
 634              		.loc 1 535 0
 635 01d8 0C4A     		ldr	r2, .L28+36
 636 01da 7B68     		ldr	r3, [r7, #4]
 637 01dc D318     		add	r3, r2, r3
 638 01de 0022     		mov	r2, #0
 639 01e0 1A70     		strb	r2, [r3]
 640              	.L16:
 536:.\Generated_Source\PSoC4/CapSense_1_CSHL.c ****     }
 537:.\Generated_Source\PSoC4/CapSense_1_CSHL.c **** 
 538:.\Generated_Source\PSoC4/CapSense_1_CSHL.c ****     #if (CapSense_1_TOTAL_GENERICS_COUNT)
 539:.\Generated_Source\PSoC4/CapSense_1_CSHL.c ****         /* Exclude generic widget */
 540:.\Generated_Source\PSoC4/CapSense_1_CSHL.c ****         }
 541:.\Generated_Source\PSoC4/CapSense_1_CSHL.c ****     #endif  /* CapSense_1_TOTAL_GENERICS_COUNT */
 542:.\Generated_Source\PSoC4/CapSense_1_CSHL.c **** }
 641              		.loc 1 542 0
 642 01e2 BD46     		mov	sp, r7
 643 01e4 07B0     		add	sp, sp, #28
 644              		@ sp needed for prologue
 645 01e6 90BD     		pop	{r4, r7, pc}
 646              	.L29:
ARM GAS  C:\Users\Jakob\AppData\Local\Temp\cc5GwTcI.s 			page 22


 647              		.align	2
 648              	.L28:
 649 01e8 00000000 		.word	CapSense_1_widgetNumber
 650 01ec 00000000 		.word	CapSense_1_noiseThreshold
 651 01f0 00000000 		.word	CapSense_1_sensorRaw
 652 01f4 00000000 		.word	CapSense_1_rawFilterData1
 653 01f8 00000000 		.word	CapSense_1_config
 654 01fc 00000000 		.word	CapSense_1_sensorBaseline
 655 0200 00000000 		.word	CapSense_1_lowBaselineResetCnt
 656 0204 00000000 		.word	CapSense_1_negativeNoiseThreshold
 657 0208 00000000 		.word	CapSense_1_sensorBaselineLow
 658 020c 00000000 		.word	CapSense_1_sensorSignal
 659              		.cfi_endproc
 660              	.LFE37:
 661              		.size	CapSense_1_UpdateBaselineNoThreshold, .-CapSense_1_UpdateBaselineNoThreshold
 662              		.section	.text.CapSense_1_UpdateSensorBaseline,"ax",%progbits
 663              		.align	2
 664              		.global	CapSense_1_UpdateSensorBaseline
 665              		.code	16
 666              		.thumb_func
 667              		.type	CapSense_1_UpdateSensorBaseline, %function
 668              	CapSense_1_UpdateSensorBaseline:
 669              	.LFB38:
 543:.\Generated_Source\PSoC4/CapSense_1_CSHL.c **** 
 544:.\Generated_Source\PSoC4/CapSense_1_CSHL.c **** 
 545:.\Generated_Source\PSoC4/CapSense_1_CSHL.c **** /*******************************************************************************
 546:.\Generated_Source\PSoC4/CapSense_1_CSHL.c **** * Function Name: CapSense_1_UpdateSensorBaseline
 547:.\Generated_Source\PSoC4/CapSense_1_CSHL.c **** ********************************************************************************
 548:.\Generated_Source\PSoC4/CapSense_1_CSHL.c **** *
 549:.\Generated_Source\PSoC4/CapSense_1_CSHL.c **** * Summary:
 550:.\Generated_Source\PSoC4/CapSense_1_CSHL.c **** *  Updates the CapSense_1_sensorBaseline[sensor] array element using the 
 551:.\Generated_Source\PSoC4/CapSense_1_CSHL.c **** *  LP filter with k = 256. The signal calculates the difference of count by 
 552:.\Generated_Source\PSoC4/CapSense_1_CSHL.c **** *  subtracting the previous baseline from the current raw count value and stores
 553:.\Generated_Source\PSoC4/CapSense_1_CSHL.c **** *  it in CapSense_1_sensorSignal[sensor]. 
 554:.\Generated_Source\PSoC4/CapSense_1_CSHL.c **** *  If the auto reset option is enabled, the baseline updated regards the noise threshold. 
 555:.\Generated_Source\PSoC4/CapSense_1_CSHL.c **** *  If the auto reset option is disabled, the baseline stops updating. 
 556:.\Generated_Source\PSoC4/CapSense_1_CSHL.c **** *  Baseline is loaded with raw count value if a signal is greater than zero and  
 557:.\Generated_Source\PSoC4/CapSense_1_CSHL.c **** *  if signal is less than noise threshold.
 558:.\Generated_Source\PSoC4/CapSense_1_CSHL.c **** *  Raw data filters are applied to the values if enabled before baseline 
 559:.\Generated_Source\PSoC4/CapSense_1_CSHL.c **** *  calculation.
 560:.\Generated_Source\PSoC4/CapSense_1_CSHL.c **** *  This API updates the thresholds in the Smartsense Mode.
 561:.\Generated_Source\PSoC4/CapSense_1_CSHL.c **** *
 562:.\Generated_Source\PSoC4/CapSense_1_CSHL.c **** * Parameters:
 563:.\Generated_Source\PSoC4/CapSense_1_CSHL.c **** *  sensor:  Sensor number.
 564:.\Generated_Source\PSoC4/CapSense_1_CSHL.c **** *
 565:.\Generated_Source\PSoC4/CapSense_1_CSHL.c **** * Return:
 566:.\Generated_Source\PSoC4/CapSense_1_CSHL.c **** *  None
 567:.\Generated_Source\PSoC4/CapSense_1_CSHL.c **** *
 568:.\Generated_Source\PSoC4/CapSense_1_CSHL.c **** * Global Variables:
 569:.\Generated_Source\PSoC4/CapSense_1_CSHL.c **** *  CapSense_1_widgetNumber[]  - stores widget numbers.
 570:.\Generated_Source\PSoC4/CapSense_1_CSHL.c **** * 
 571:.\Generated_Source\PSoC4/CapSense_1_CSHL.c **** * Side Effects:
 572:.\Generated_Source\PSoC4/CapSense_1_CSHL.c **** *  None
 573:.\Generated_Source\PSoC4/CapSense_1_CSHL.c **** * 
 574:.\Generated_Source\PSoC4/CapSense_1_CSHL.c **** *******************************************************************************/
 575:.\Generated_Source\PSoC4/CapSense_1_CSHL.c ****  void CapSense_1_UpdateSensorBaseline(uint32 sensor)
 576:.\Generated_Source\PSoC4/CapSense_1_CSHL.c **** {
ARM GAS  C:\Users\Jakob\AppData\Local\Temp\cc5GwTcI.s 			page 23


 670              		.loc 1 576 0
 671              		.cfi_startproc
 672 0000 80B5     		push	{r7, lr}
 673              	.LCFI15:
 674              		.cfi_def_cfa_offset 8
 675              		.cfi_offset 7, -8
 676              		.cfi_offset 14, -4
 677 0002 82B0     		sub	sp, sp, #8
 678              	.LCFI16:
 679              		.cfi_def_cfa_offset 16
 680 0004 00AF     		add	r7, sp, #0
 681              	.LCFI17:
 682              		.cfi_def_cfa_register 7
 683 0006 7860     		str	r0, [r7, #4]
 577:.\Generated_Source\PSoC4/CapSense_1_CSHL.c ****     #if (CapSense_1_TOTAL_GENERICS_COUNT)
 578:.\Generated_Source\PSoC4/CapSense_1_CSHL.c **** 		uint32 widget;
 579:.\Generated_Source\PSoC4/CapSense_1_CSHL.c **** 		
 580:.\Generated_Source\PSoC4/CapSense_1_CSHL.c **** 		widget = CapSense_1_widgetNumber[sensor];
 581:.\Generated_Source\PSoC4/CapSense_1_CSHL.c **** 	
 582:.\Generated_Source\PSoC4/CapSense_1_CSHL.c ****         /* Exclude generic widget */
 583:.\Generated_Source\PSoC4/CapSense_1_CSHL.c ****         if(widget < CapSense_1_END_OF_WIDGETS_INDEX)
 584:.\Generated_Source\PSoC4/CapSense_1_CSHL.c ****         {
 585:.\Generated_Source\PSoC4/CapSense_1_CSHL.c ****     #endif  /* CapSense_1_TOTAL_GENERICS_COUNT */
 586:.\Generated_Source\PSoC4/CapSense_1_CSHL.c **** 
 587:.\Generated_Source\PSoC4/CapSense_1_CSHL.c ****     #if (CapSense_1_TUNING_METHOD == CapSense_1__TUNING_AUTO)
 588:.\Generated_Source\PSoC4/CapSense_1_CSHL.c ****     	CapSense_1_UpdateThresholds(sensor);
 684              		.loc 1 588 0
 685 0008 7B68     		ldr	r3, [r7, #4]
 686 000a 181C     		mov	r0, r3
 687 000c FFF7FEFF 		bl	CapSense_1_UpdateThresholds
 589:.\Generated_Source\PSoC4/CapSense_1_CSHL.c ****     #endif /* (CapSense_1_TUNING_METHOD == CapSense_1__TUNING_AUTO) */
 590:.\Generated_Source\PSoC4/CapSense_1_CSHL.c **** 
 591:.\Generated_Source\PSoC4/CapSense_1_CSHL.c ****     CapSense_1_UpdateBaselineNoThreshold(sensor);
 688              		.loc 1 591 0
 689 0010 7B68     		ldr	r3, [r7, #4]
 690 0012 181C     		mov	r0, r3
 691 0014 FFF7FEFF 		bl	CapSense_1_UpdateBaselineNoThreshold
 592:.\Generated_Source\PSoC4/CapSense_1_CSHL.c ****     
 593:.\Generated_Source\PSoC4/CapSense_1_CSHL.c ****     #if (CapSense_1_TOTAL_GENERICS_COUNT)
 594:.\Generated_Source\PSoC4/CapSense_1_CSHL.c ****         /* Exclude generic widget */
 595:.\Generated_Source\PSoC4/CapSense_1_CSHL.c ****         }
 596:.\Generated_Source\PSoC4/CapSense_1_CSHL.c ****     #endif  /* CapSense_1_TOTAL_GENERICS_COUNT */
 597:.\Generated_Source\PSoC4/CapSense_1_CSHL.c **** }
 692              		.loc 1 597 0
 693 0018 BD46     		mov	sp, r7
 694 001a 02B0     		add	sp, sp, #8
 695              		@ sp needed for prologue
 696 001c 80BD     		pop	{r7, pc}
 697              		.cfi_endproc
 698              	.LFE38:
 699              		.size	CapSense_1_UpdateSensorBaseline, .-CapSense_1_UpdateSensorBaseline
 700 001e C046     		.section	.text.CapSense_1_UpdateEnabledBaselines,"ax",%progbits
 701              		.align	2
 702              		.global	CapSense_1_UpdateEnabledBaselines
 703              		.code	16
 704              		.thumb_func
 705              		.type	CapSense_1_UpdateEnabledBaselines, %function
ARM GAS  C:\Users\Jakob\AppData\Local\Temp\cc5GwTcI.s 			page 24


 706              	CapSense_1_UpdateEnabledBaselines:
 707              	.LFB39:
 598:.\Generated_Source\PSoC4/CapSense_1_CSHL.c **** 
 599:.\Generated_Source\PSoC4/CapSense_1_CSHL.c **** 
 600:.\Generated_Source\PSoC4/CapSense_1_CSHL.c **** /*******************************************************************************
 601:.\Generated_Source\PSoC4/CapSense_1_CSHL.c **** * Function Name: CapSense_1_UpdateEnabledBaselines
 602:.\Generated_Source\PSoC4/CapSense_1_CSHL.c **** ********************************************************************************
 603:.\Generated_Source\PSoC4/CapSense_1_CSHL.c **** *
 604:.\Generated_Source\PSoC4/CapSense_1_CSHL.c **** * Summary:
 605:.\Generated_Source\PSoC4/CapSense_1_CSHL.c **** *  Checks CapSense_1_sensorEnableMask[] array and calls the 
 606:.\Generated_Source\PSoC4/CapSense_1_CSHL.c **** *  CapSense_1_UpdateSensorBaseline function to update the baselines 
 607:.\Generated_Source\PSoC4/CapSense_1_CSHL.c **** *  for the enabled sensors.
 608:.\Generated_Source\PSoC4/CapSense_1_CSHL.c **** *
 609:.\Generated_Source\PSoC4/CapSense_1_CSHL.c **** * Parameters:
 610:.\Generated_Source\PSoC4/CapSense_1_CSHL.c **** *  None
 611:.\Generated_Source\PSoC4/CapSense_1_CSHL.c **** *
 612:.\Generated_Source\PSoC4/CapSense_1_CSHL.c **** * Return:
 613:.\Generated_Source\PSoC4/CapSense_1_CSHL.c **** *  None
 614:.\Generated_Source\PSoC4/CapSense_1_CSHL.c **** *
 615:.\Generated_Source\PSoC4/CapSense_1_CSHL.c **** * Global Variables:
 616:.\Generated_Source\PSoC4/CapSense_1_CSHL.c **** *  CapSense_1_sensorEnableMask[] - used to store the sensor scanning 
 617:.\Generated_Source\PSoC4/CapSense_1_CSHL.c **** *  state.
 618:.\Generated_Source\PSoC4/CapSense_1_CSHL.c **** *  CapSense_1_sensorEnableMask[0] contains the masked bits for sensors 
 619:.\Generated_Source\PSoC4/CapSense_1_CSHL.c **** *   0 through 7 (sensor 0 is bit 0, sensor 1 is bit 1).
 620:.\Generated_Source\PSoC4/CapSense_1_CSHL.c **** *  CapSense_1_sensorEnableMask[1] contains the masked bits for 
 621:.\Generated_Source\PSoC4/CapSense_1_CSHL.c **** *  sensors 8 through 15 (if needed), and so on.
 622:.\Generated_Source\PSoC4/CapSense_1_CSHL.c **** *  0 - sensor doesn't scan by CapSense_1_ScanEnabledWidgets().
 623:.\Generated_Source\PSoC4/CapSense_1_CSHL.c **** *  1 - sensor scans by CapSense_1_ScanEnabledWidgets().
 624:.\Generated_Source\PSoC4/CapSense_1_CSHL.c **** * 
 625:.\Generated_Source\PSoC4/CapSense_1_CSHL.c **** * Side Effects:
 626:.\Generated_Source\PSoC4/CapSense_1_CSHL.c **** *  None
 627:.\Generated_Source\PSoC4/CapSense_1_CSHL.c **** * 
 628:.\Generated_Source\PSoC4/CapSense_1_CSHL.c **** *******************************************************************************/
 629:.\Generated_Source\PSoC4/CapSense_1_CSHL.c ****  void CapSense_1_UpdateEnabledBaselines(void)
 630:.\Generated_Source\PSoC4/CapSense_1_CSHL.c **** {
 708              		.loc 1 630 0
 709              		.cfi_startproc
 710 0000 80B5     		push	{r7, lr}
 711              	.LCFI18:
 712              		.cfi_def_cfa_offset 8
 713              		.cfi_offset 7, -8
 714              		.cfi_offset 14, -4
 715 0002 82B0     		sub	sp, sp, #8
 716              	.LCFI19:
 717              		.cfi_def_cfa_offset 16
 718 0004 00AF     		add	r7, sp, #0
 719              	.LCFI20:
 720              		.cfi_def_cfa_register 7
 631:.\Generated_Source\PSoC4/CapSense_1_CSHL.c ****     uint32 i;
 632:.\Generated_Source\PSoC4/CapSense_1_CSHL.c ****     uint32 isSensorEnabled;
 633:.\Generated_Source\PSoC4/CapSense_1_CSHL.c ****     
 634:.\Generated_Source\PSoC4/CapSense_1_CSHL.c ****     for(i = 0u; i < CapSense_1_TOTAL_SENSOR_COUNT; i++)
 721              		.loc 1 634 0
 722 0006 0023     		mov	r3, #0
 723 0008 7B60     		str	r3, [r7, #4]
 724 000a 11E0     		b	.L32
 725              	.L34:
ARM GAS  C:\Users\Jakob\AppData\Local\Temp\cc5GwTcI.s 			page 25


 635:.\Generated_Source\PSoC4/CapSense_1_CSHL.c ****     {
 636:.\Generated_Source\PSoC4/CapSense_1_CSHL.c ****         isSensorEnabled = CapSense_1_GetBitValue(CapSense_1_sensorEnableMask, i);
 726              		.loc 1 636 0
 727 000c 0B4A     		ldr	r2, .L35
 728 000e 7B68     		ldr	r3, [r7, #4]
 729 0010 101C     		mov	r0, r2
 730 0012 191C     		mov	r1, r3
 731 0014 FFF7FEFF 		bl	CapSense_1_GetBitValue
 732 0018 031C     		mov	r3, r0
 733 001a 3B60     		str	r3, [r7]
 637:.\Generated_Source\PSoC4/CapSense_1_CSHL.c ****         
 638:.\Generated_Source\PSoC4/CapSense_1_CSHL.c ****         if(0u != isSensorEnabled)
 734              		.loc 1 638 0
 735 001c 3B68     		ldr	r3, [r7]
 736 001e 002B     		cmp	r3, #0
 737 0020 03D0     		beq	.L33
 639:.\Generated_Source\PSoC4/CapSense_1_CSHL.c ****         {
 640:.\Generated_Source\PSoC4/CapSense_1_CSHL.c ****             CapSense_1_UpdateSensorBaseline(i);
 738              		.loc 1 640 0
 739 0022 7B68     		ldr	r3, [r7, #4]
 740 0024 181C     		mov	r0, r3
 741 0026 FFF7FEFF 		bl	CapSense_1_UpdateSensorBaseline
 742              	.L33:
 634:.\Generated_Source\PSoC4/CapSense_1_CSHL.c ****     for(i = 0u; i < CapSense_1_TOTAL_SENSOR_COUNT; i++)
 743              		.loc 1 634 0
 744 002a 7B68     		ldr	r3, [r7, #4]
 745 002c 0133     		add	r3, r3, #1
 746 002e 7B60     		str	r3, [r7, #4]
 747              	.L32:
 634:.\Generated_Source\PSoC4/CapSense_1_CSHL.c ****     for(i = 0u; i < CapSense_1_TOTAL_SENSOR_COUNT; i++)
 748              		.loc 1 634 0 is_stmt 0 discriminator 1
 749 0030 7B68     		ldr	r3, [r7, #4]
 750 0032 002B     		cmp	r3, #0
 751 0034 EAD0     		beq	.L34
 641:.\Generated_Source\PSoC4/CapSense_1_CSHL.c ****         }
 642:.\Generated_Source\PSoC4/CapSense_1_CSHL.c ****     }
 643:.\Generated_Source\PSoC4/CapSense_1_CSHL.c **** }
 752              		.loc 1 643 0 is_stmt 1
 753 0036 BD46     		mov	sp, r7
 754 0038 02B0     		add	sp, sp, #8
 755              		@ sp needed for prologue
 756 003a 80BD     		pop	{r7, pc}
 757              	.L36:
 758              		.align	2
 759              	.L35:
 760 003c 00000000 		.word	CapSense_1_sensorEnableMask
 761              		.cfi_endproc
 762              	.LFE39:
 763              		.size	CapSense_1_UpdateEnabledBaselines, .-CapSense_1_UpdateEnabledBaselines
 764              		.section	.text.CapSense_1_GetBaselineData,"ax",%progbits
 765              		.align	2
 766              		.global	CapSense_1_GetBaselineData
 767              		.code	16
 768              		.thumb_func
 769              		.type	CapSense_1_GetBaselineData, %function
 770              	CapSense_1_GetBaselineData:
 771              	.LFB40:
ARM GAS  C:\Users\Jakob\AppData\Local\Temp\cc5GwTcI.s 			page 26


 644:.\Generated_Source\PSoC4/CapSense_1_CSHL.c **** 
 645:.\Generated_Source\PSoC4/CapSense_1_CSHL.c **** 
 646:.\Generated_Source\PSoC4/CapSense_1_CSHL.c **** /*******************************************************************************
 647:.\Generated_Source\PSoC4/CapSense_1_CSHL.c **** * Function Name: CapSense_1_GetBaselineData
 648:.\Generated_Source\PSoC4/CapSense_1_CSHL.c **** ********************************************************************************
 649:.\Generated_Source\PSoC4/CapSense_1_CSHL.c **** *
 650:.\Generated_Source\PSoC4/CapSense_1_CSHL.c **** * Summary:
 651:.\Generated_Source\PSoC4/CapSense_1_CSHL.c **** *  This function reads the sensor baseline from the component.
 652:.\Generated_Source\PSoC4/CapSense_1_CSHL.c **** *
 653:.\Generated_Source\PSoC4/CapSense_1_CSHL.c **** * Parameters:
 654:.\Generated_Source\PSoC4/CapSense_1_CSHL.c **** *  sensor:  Sensor number.
 655:.\Generated_Source\PSoC4/CapSense_1_CSHL.c **** *
 656:.\Generated_Source\PSoC4/CapSense_1_CSHL.c **** * Return:
 657:.\Generated_Source\PSoC4/CapSense_1_CSHL.c **** *  This API returns the baseline value of the sensor indicated by an argument.
 658:.\Generated_Source\PSoC4/CapSense_1_CSHL.c **** *
 659:.\Generated_Source\PSoC4/CapSense_1_CSHL.c **** * Global Variables:
 660:.\Generated_Source\PSoC4/CapSense_1_CSHL.c **** *  CapSense_1_sensorBaseline[] - the array with an initial values by scanning
 661:.\Generated_Source\PSoC4/CapSense_1_CSHL.c **** * 
 662:.\Generated_Source\PSoC4/CapSense_1_CSHL.c **** * Side Effects:
 663:.\Generated_Source\PSoC4/CapSense_1_CSHL.c **** *  None
 664:.\Generated_Source\PSoC4/CapSense_1_CSHL.c **** *
 665:.\Generated_Source\PSoC4/CapSense_1_CSHL.c **** *******************************************************************************/
 666:.\Generated_Source\PSoC4/CapSense_1_CSHL.c **** uint16 CapSense_1_GetBaselineData(uint32 sensor)
 667:.\Generated_Source\PSoC4/CapSense_1_CSHL.c **** {
 772              		.loc 1 667 0
 773              		.cfi_startproc
 774 0000 80B5     		push	{r7, lr}
 775              	.LCFI21:
 776              		.cfi_def_cfa_offset 8
 777              		.cfi_offset 7, -8
 778              		.cfi_offset 14, -4
 779 0002 82B0     		sub	sp, sp, #8
 780              	.LCFI22:
 781              		.cfi_def_cfa_offset 16
 782 0004 00AF     		add	r7, sp, #0
 783              	.LCFI23:
 784              		.cfi_def_cfa_register 7
 785 0006 7860     		str	r0, [r7, #4]
 668:.\Generated_Source\PSoC4/CapSense_1_CSHL.c **** 	return (CapSense_1_sensorBaseline[sensor]);
 786              		.loc 1 668 0
 787 0008 034B     		ldr	r3, .L39
 788 000a 7A68     		ldr	r2, [r7, #4]
 789 000c 5200     		lsl	r2, r2, #1
 790 000e D35A     		ldrh	r3, [r2, r3]
 669:.\Generated_Source\PSoC4/CapSense_1_CSHL.c **** }
 791              		.loc 1 669 0
 792 0010 181C     		mov	r0, r3
 793 0012 BD46     		mov	sp, r7
 794 0014 02B0     		add	sp, sp, #8
 795              		@ sp needed for prologue
 796 0016 80BD     		pop	{r7, pc}
 797              	.L40:
 798              		.align	2
 799              	.L39:
 800 0018 00000000 		.word	CapSense_1_sensorBaseline
 801              		.cfi_endproc
 802              	.LFE40:
ARM GAS  C:\Users\Jakob\AppData\Local\Temp\cc5GwTcI.s 			page 27


 803              		.size	CapSense_1_GetBaselineData, .-CapSense_1_GetBaselineData
 804              		.section	.text.CapSense_1_SetBaselineData,"ax",%progbits
 805              		.align	2
 806              		.global	CapSense_1_SetBaselineData
 807              		.code	16
 808              		.thumb_func
 809              		.type	CapSense_1_SetBaselineData, %function
 810              	CapSense_1_SetBaselineData:
 811              	.LFB41:
 670:.\Generated_Source\PSoC4/CapSense_1_CSHL.c **** 
 671:.\Generated_Source\PSoC4/CapSense_1_CSHL.c **** 
 672:.\Generated_Source\PSoC4/CapSense_1_CSHL.c **** /*******************************************************************************
 673:.\Generated_Source\PSoC4/CapSense_1_CSHL.c **** * Function Name: CapSense_1_SetBaselineData
 674:.\Generated_Source\PSoC4/CapSense_1_CSHL.c **** ********************************************************************************
 675:.\Generated_Source\PSoC4/CapSense_1_CSHL.c **** *
 676:.\Generated_Source\PSoC4/CapSense_1_CSHL.c **** * Summary:
 677:.\Generated_Source\PSoC4/CapSense_1_CSHL.c **** *  This API writes the data value passed as an argument to the sensor baseline array.
 678:.\Generated_Source\PSoC4/CapSense_1_CSHL.c **** *
 679:.\Generated_Source\PSoC4/CapSense_1_CSHL.c **** * Parameters:
 680:.\Generated_Source\PSoC4/CapSense_1_CSHL.c **** *  sensor:  Sensor number.
 681:.\Generated_Source\PSoC4/CapSense_1_CSHL.c **** *  data:    Sensor baseline.
 682:.\Generated_Source\PSoC4/CapSense_1_CSHL.c **** *
 683:.\Generated_Source\PSoC4/CapSense_1_CSHL.c **** * Return:
 684:.\Generated_Source\PSoC4/CapSense_1_CSHL.c **** *  None.
 685:.\Generated_Source\PSoC4/CapSense_1_CSHL.c **** *
 686:.\Generated_Source\PSoC4/CapSense_1_CSHL.c **** * Global Variables:
 687:.\Generated_Source\PSoC4/CapSense_1_CSHL.c **** *  CapSense_1_sensorBaseline[] - the array with initial values by scanning
 688:.\Generated_Source\PSoC4/CapSense_1_CSHL.c **** * 
 689:.\Generated_Source\PSoC4/CapSense_1_CSHL.c **** * Side Effects:
 690:.\Generated_Source\PSoC4/CapSense_1_CSHL.c **** *  None
 691:.\Generated_Source\PSoC4/CapSense_1_CSHL.c **** *
 692:.\Generated_Source\PSoC4/CapSense_1_CSHL.c **** *******************************************************************************/
 693:.\Generated_Source\PSoC4/CapSense_1_CSHL.c **** void CapSense_1_SetBaselineData(uint32 sensor, uint16 data)
 694:.\Generated_Source\PSoC4/CapSense_1_CSHL.c **** {
 812              		.loc 1 694 0
 813              		.cfi_startproc
 814 0000 80B5     		push	{r7, lr}
 815              	.LCFI24:
 816              		.cfi_def_cfa_offset 8
 817              		.cfi_offset 7, -8
 818              		.cfi_offset 14, -4
 819 0002 82B0     		sub	sp, sp, #8
 820              	.LCFI25:
 821              		.cfi_def_cfa_offset 16
 822 0004 00AF     		add	r7, sp, #0
 823              	.LCFI26:
 824              		.cfi_def_cfa_register 7
 825 0006 7860     		str	r0, [r7, #4]
 826 0008 0A1C     		mov	r2, r1
 827 000a BB1C     		add	r3, r7, #2
 828 000c 1A80     		strh	r2, [r3]
 695:.\Generated_Source\PSoC4/CapSense_1_CSHL.c **** 	CapSense_1_sensorBaseline[sensor] = data;
 829              		.loc 1 695 0
 830 000e 044B     		ldr	r3, .L42
 831 0010 7A68     		ldr	r2, [r7, #4]
 832 0012 5200     		lsl	r2, r2, #1
 833 0014 B91C     		add	r1, r7, #2
ARM GAS  C:\Users\Jakob\AppData\Local\Temp\cc5GwTcI.s 			page 28


 834 0016 0988     		ldrh	r1, [r1]
 835 0018 D152     		strh	r1, [r2, r3]
 696:.\Generated_Source\PSoC4/CapSense_1_CSHL.c **** }
 836              		.loc 1 696 0
 837 001a BD46     		mov	sp, r7
 838 001c 02B0     		add	sp, sp, #8
 839              		@ sp needed for prologue
 840 001e 80BD     		pop	{r7, pc}
 841              	.L43:
 842              		.align	2
 843              	.L42:
 844 0020 00000000 		.word	CapSense_1_sensorBaseline
 845              		.cfi_endproc
 846              	.LFE41:
 847              		.size	CapSense_1_SetBaselineData, .-CapSense_1_SetBaselineData
 848              		.section	.text.CapSense_1_GetDiffCountData,"ax",%progbits
 849              		.align	2
 850              		.global	CapSense_1_GetDiffCountData
 851              		.code	16
 852              		.thumb_func
 853              		.type	CapSense_1_GetDiffCountData, %function
 854              	CapSense_1_GetDiffCountData:
 855              	.LFB42:
 697:.\Generated_Source\PSoC4/CapSense_1_CSHL.c **** 
 698:.\Generated_Source\PSoC4/CapSense_1_CSHL.c **** 
 699:.\Generated_Source\PSoC4/CapSense_1_CSHL.c **** /*******************************************************************************
 700:.\Generated_Source\PSoC4/CapSense_1_CSHL.c **** * Function Name: CapSense_1_GetDiffCountData
 701:.\Generated_Source\PSoC4/CapSense_1_CSHL.c **** ********************************************************************************
 702:.\Generated_Source\PSoC4/CapSense_1_CSHL.c **** *
 703:.\Generated_Source\PSoC4/CapSense_1_CSHL.c **** * Summary:
 704:.\Generated_Source\PSoC4/CapSense_1_CSHL.c **** *  This function returns the Sensor Signal from the component.
 705:.\Generated_Source\PSoC4/CapSense_1_CSHL.c **** *
 706:.\Generated_Source\PSoC4/CapSense_1_CSHL.c **** * Parameters:
 707:.\Generated_Source\PSoC4/CapSense_1_CSHL.c **** *  sensor:  Sensor number.
 708:.\Generated_Source\PSoC4/CapSense_1_CSHL.c **** *
 709:.\Generated_Source\PSoC4/CapSense_1_CSHL.c **** * Return:
 710:.\Generated_Source\PSoC4/CapSense_1_CSHL.c **** *  This API returns the difference count value of the sensor indicated by the 
 711:.\Generated_Source\PSoC4/CapSense_1_CSHL.c **** *  argument. 
 712:.\Generated_Source\PSoC4/CapSense_1_CSHL.c **** *
 713:.\Generated_Source\PSoC4/CapSense_1_CSHL.c **** * Global Variables:
 714:.\Generated_Source\PSoC4/CapSense_1_CSHL.c **** *  CapSense_1_sensorSignal[] - the array with difference counts for sensors
 715:.\Generated_Source\PSoC4/CapSense_1_CSHL.c **** * 
 716:.\Generated_Source\PSoC4/CapSense_1_CSHL.c **** * Side Effects:
 717:.\Generated_Source\PSoC4/CapSense_1_CSHL.c **** *  None
 718:.\Generated_Source\PSoC4/CapSense_1_CSHL.c **** *
 719:.\Generated_Source\PSoC4/CapSense_1_CSHL.c **** *******************************************************************************/
 720:.\Generated_Source\PSoC4/CapSense_1_CSHL.c **** uint8 CapSense_1_GetDiffCountData(uint32 sensor)
 721:.\Generated_Source\PSoC4/CapSense_1_CSHL.c **** {
 856              		.loc 1 721 0
 857              		.cfi_startproc
 858 0000 80B5     		push	{r7, lr}
 859              	.LCFI27:
 860              		.cfi_def_cfa_offset 8
 861              		.cfi_offset 7, -8
 862              		.cfi_offset 14, -4
 863 0002 82B0     		sub	sp, sp, #8
 864              	.LCFI28:
ARM GAS  C:\Users\Jakob\AppData\Local\Temp\cc5GwTcI.s 			page 29


 865              		.cfi_def_cfa_offset 16
 866 0004 00AF     		add	r7, sp, #0
 867              	.LCFI29:
 868              		.cfi_def_cfa_register 7
 869 0006 7860     		str	r0, [r7, #4]
 722:.\Generated_Source\PSoC4/CapSense_1_CSHL.c **** 	return (CapSense_1_sensorSignal[sensor]);
 870              		.loc 1 722 0
 871 0008 034A     		ldr	r2, .L46
 872 000a 7B68     		ldr	r3, [r7, #4]
 873 000c D318     		add	r3, r2, r3
 874 000e 1B78     		ldrb	r3, [r3]
 723:.\Generated_Source\PSoC4/CapSense_1_CSHL.c **** }
 875              		.loc 1 723 0
 876 0010 181C     		mov	r0, r3
 877 0012 BD46     		mov	sp, r7
 878 0014 02B0     		add	sp, sp, #8
 879              		@ sp needed for prologue
 880 0016 80BD     		pop	{r7, pc}
 881              	.L47:
 882              		.align	2
 883              	.L46:
 884 0018 00000000 		.word	CapSense_1_sensorSignal
 885              		.cfi_endproc
 886              	.LFE42:
 887              		.size	CapSense_1_GetDiffCountData, .-CapSense_1_GetDiffCountData
 888              		.section	.text.CapSense_1_SetDiffCountData,"ax",%progbits
 889              		.align	2
 890              		.global	CapSense_1_SetDiffCountData
 891              		.code	16
 892              		.thumb_func
 893              		.type	CapSense_1_SetDiffCountData, %function
 894              	CapSense_1_SetDiffCountData:
 895              	.LFB43:
 724:.\Generated_Source\PSoC4/CapSense_1_CSHL.c **** 
 725:.\Generated_Source\PSoC4/CapSense_1_CSHL.c **** 
 726:.\Generated_Source\PSoC4/CapSense_1_CSHL.c **** /*******************************************************************************
 727:.\Generated_Source\PSoC4/CapSense_1_CSHL.c **** * Function Name: CapSense_1_SetDiffCountData
 728:.\Generated_Source\PSoC4/CapSense_1_CSHL.c **** ********************************************************************************
 729:.\Generated_Source\PSoC4/CapSense_1_CSHL.c **** *
 730:.\Generated_Source\PSoC4/CapSense_1_CSHL.c **** * Summary:
 731:.\Generated_Source\PSoC4/CapSense_1_CSHL.c **** *  This API writes the data value passed as an argument to the sensor signal array.
 732:.\Generated_Source\PSoC4/CapSense_1_CSHL.c **** *
 733:.\Generated_Source\PSoC4/CapSense_1_CSHL.c **** * Parameters:
 734:.\Generated_Source\PSoC4/CapSense_1_CSHL.c **** *  sensor:  Sensor number.
 735:.\Generated_Source\PSoC4/CapSense_1_CSHL.c **** *  value:   Sensor signal.
 736:.\Generated_Source\PSoC4/CapSense_1_CSHL.c **** *
 737:.\Generated_Source\PSoC4/CapSense_1_CSHL.c **** * Return:
 738:.\Generated_Source\PSoC4/CapSense_1_CSHL.c **** *  None. 
 739:.\Generated_Source\PSoC4/CapSense_1_CSHL.c **** *
 740:.\Generated_Source\PSoC4/CapSense_1_CSHL.c **** * Global Variables:
 741:.\Generated_Source\PSoC4/CapSense_1_CSHL.c **** *  CapSense_1_sensorSignal[] - the array with difference counts for sensors
 742:.\Generated_Source\PSoC4/CapSense_1_CSHL.c **** * 
 743:.\Generated_Source\PSoC4/CapSense_1_CSHL.c **** * Side Effects:
 744:.\Generated_Source\PSoC4/CapSense_1_CSHL.c **** *  None
 745:.\Generated_Source\PSoC4/CapSense_1_CSHL.c **** *
 746:.\Generated_Source\PSoC4/CapSense_1_CSHL.c **** *******************************************************************************/
 747:.\Generated_Source\PSoC4/CapSense_1_CSHL.c **** void CapSense_1_SetDiffCountData(uint32 sensor, uint8 value)
ARM GAS  C:\Users\Jakob\AppData\Local\Temp\cc5GwTcI.s 			page 30


 748:.\Generated_Source\PSoC4/CapSense_1_CSHL.c **** {
 896              		.loc 1 748 0
 897              		.cfi_startproc
 898 0000 80B5     		push	{r7, lr}
 899              	.LCFI30:
 900              		.cfi_def_cfa_offset 8
 901              		.cfi_offset 7, -8
 902              		.cfi_offset 14, -4
 903 0002 82B0     		sub	sp, sp, #8
 904              	.LCFI31:
 905              		.cfi_def_cfa_offset 16
 906 0004 00AF     		add	r7, sp, #0
 907              	.LCFI32:
 908              		.cfi_def_cfa_register 7
 909 0006 7860     		str	r0, [r7, #4]
 910 0008 0A1C     		mov	r2, r1
 911 000a FB1C     		add	r3, r7, #3
 912 000c 1A70     		strb	r2, [r3]
 749:.\Generated_Source\PSoC4/CapSense_1_CSHL.c ****     CapSense_1_sensorSignal[sensor] = value;
 913              		.loc 1 749 0
 914 000e 044A     		ldr	r2, .L49
 915 0010 7B68     		ldr	r3, [r7, #4]
 916 0012 D318     		add	r3, r2, r3
 917 0014 FA1C     		add	r2, r7, #3
 918 0016 1278     		ldrb	r2, [r2]
 919 0018 1A70     		strb	r2, [r3]
 750:.\Generated_Source\PSoC4/CapSense_1_CSHL.c **** }
 920              		.loc 1 750 0
 921 001a BD46     		mov	sp, r7
 922 001c 02B0     		add	sp, sp, #8
 923              		@ sp needed for prologue
 924 001e 80BD     		pop	{r7, pc}
 925              	.L50:
 926              		.align	2
 927              	.L49:
 928 0020 00000000 		.word	CapSense_1_sensorSignal
 929              		.cfi_endproc
 930              	.LFE43:
 931              		.size	CapSense_1_SetDiffCountData, .-CapSense_1_SetDiffCountData
 932              		.section	.text.CapSense_1_GetFingerThreshold,"ax",%progbits
 933              		.align	2
 934              		.global	CapSense_1_GetFingerThreshold
 935              		.code	16
 936              		.thumb_func
 937              		.type	CapSense_1_GetFingerThreshold, %function
 938              	CapSense_1_GetFingerThreshold:
 939              	.LFB44:
 751:.\Generated_Source\PSoC4/CapSense_1_CSHL.c **** 
 752:.\Generated_Source\PSoC4/CapSense_1_CSHL.c **** 
 753:.\Generated_Source\PSoC4/CapSense_1_CSHL.c **** /*******************************************************************************
 754:.\Generated_Source\PSoC4/CapSense_1_CSHL.c **** * Function Name: CapSense_1_GetFingerThreshold
 755:.\Generated_Source\PSoC4/CapSense_1_CSHL.c **** ********************************************************************************
 756:.\Generated_Source\PSoC4/CapSense_1_CSHL.c **** *
 757:.\Generated_Source\PSoC4/CapSense_1_CSHL.c **** * Summary:
 758:.\Generated_Source\PSoC4/CapSense_1_CSHL.c **** *  This function reads the finger threshold from the component.
 759:.\Generated_Source\PSoC4/CapSense_1_CSHL.c **** *
 760:.\Generated_Source\PSoC4/CapSense_1_CSHL.c **** * Parameters:
ARM GAS  C:\Users\Jakob\AppData\Local\Temp\cc5GwTcI.s 			page 31


 761:.\Generated_Source\PSoC4/CapSense_1_CSHL.c **** *  widget:  widget number.
 762:.\Generated_Source\PSoC4/CapSense_1_CSHL.c **** *
 763:.\Generated_Source\PSoC4/CapSense_1_CSHL.c **** * Return:
 764:.\Generated_Source\PSoC4/CapSense_1_CSHL.c **** *  This API returns the finger threshold of the widget indicated by the argument. 
 765:.\Generated_Source\PSoC4/CapSense_1_CSHL.c **** *
 766:.\Generated_Source\PSoC4/CapSense_1_CSHL.c **** * Global Variables:
 767:.\Generated_Source\PSoC4/CapSense_1_CSHL.c **** *  CapSense_1_fingerThreshold[] - This array contains the level of signal 
 768:.\Generated_Source\PSoC4/CapSense_1_CSHL.c **** *  for each widget that is determined if a finger is present on the widget.
 769:.\Generated_Source\PSoC4/CapSense_1_CSHL.c **** *
 770:.\Generated_Source\PSoC4/CapSense_1_CSHL.c **** * Side Effects:
 771:.\Generated_Source\PSoC4/CapSense_1_CSHL.c **** *  None
 772:.\Generated_Source\PSoC4/CapSense_1_CSHL.c **** *
 773:.\Generated_Source\PSoC4/CapSense_1_CSHL.c **** *******************************************************************************/
 774:.\Generated_Source\PSoC4/CapSense_1_CSHL.c **** uint8 CapSense_1_GetFingerThreshold(uint32 widget)
 775:.\Generated_Source\PSoC4/CapSense_1_CSHL.c **** {
 940              		.loc 1 775 0
 941              		.cfi_startproc
 942 0000 80B5     		push	{r7, lr}
 943              	.LCFI33:
 944              		.cfi_def_cfa_offset 8
 945              		.cfi_offset 7, -8
 946              		.cfi_offset 14, -4
 947 0002 82B0     		sub	sp, sp, #8
 948              	.LCFI34:
 949              		.cfi_def_cfa_offset 16
 950 0004 00AF     		add	r7, sp, #0
 951              	.LCFI35:
 952              		.cfi_def_cfa_register 7
 953 0006 7860     		str	r0, [r7, #4]
 776:.\Generated_Source\PSoC4/CapSense_1_CSHL.c **** 	return(CapSense_1_fingerThreshold[widget]);
 954              		.loc 1 776 0
 955 0008 034A     		ldr	r2, .L53
 956 000a 7B68     		ldr	r3, [r7, #4]
 957 000c D318     		add	r3, r2, r3
 958 000e 1B78     		ldrb	r3, [r3]
 777:.\Generated_Source\PSoC4/CapSense_1_CSHL.c **** }
 959              		.loc 1 777 0
 960 0010 181C     		mov	r0, r3
 961 0012 BD46     		mov	sp, r7
 962 0014 02B0     		add	sp, sp, #8
 963              		@ sp needed for prologue
 964 0016 80BD     		pop	{r7, pc}
 965              	.L54:
 966              		.align	2
 967              	.L53:
 968 0018 00000000 		.word	CapSense_1_fingerThreshold
 969              		.cfi_endproc
 970              	.LFE44:
 971              		.size	CapSense_1_GetFingerThreshold, .-CapSense_1_GetFingerThreshold
 972              		.section	.text.CapSense_1_GetNoiseThreshold,"ax",%progbits
 973              		.align	2
 974              		.global	CapSense_1_GetNoiseThreshold
 975              		.code	16
 976              		.thumb_func
 977              		.type	CapSense_1_GetNoiseThreshold, %function
 978              	CapSense_1_GetNoiseThreshold:
 979              	.LFB45:
ARM GAS  C:\Users\Jakob\AppData\Local\Temp\cc5GwTcI.s 			page 32


 778:.\Generated_Source\PSoC4/CapSense_1_CSHL.c **** 
 779:.\Generated_Source\PSoC4/CapSense_1_CSHL.c **** 
 780:.\Generated_Source\PSoC4/CapSense_1_CSHL.c **** /*******************************************************************************
 781:.\Generated_Source\PSoC4/CapSense_1_CSHL.c **** * Function Name: CapSense_1_GetNoiseThreshold
 782:.\Generated_Source\PSoC4/CapSense_1_CSHL.c **** ********************************************************************************
 783:.\Generated_Source\PSoC4/CapSense_1_CSHL.c **** *
 784:.\Generated_Source\PSoC4/CapSense_1_CSHL.c **** * Summary:
 785:.\Generated_Source\PSoC4/CapSense_1_CSHL.c **** *  This function reads the noise threshold from the component.
 786:.\Generated_Source\PSoC4/CapSense_1_CSHL.c **** *
 787:.\Generated_Source\PSoC4/CapSense_1_CSHL.c **** * Parameters:
 788:.\Generated_Source\PSoC4/CapSense_1_CSHL.c **** *  widget:  widget number.
 789:.\Generated_Source\PSoC4/CapSense_1_CSHL.c **** *
 790:.\Generated_Source\PSoC4/CapSense_1_CSHL.c **** * Return:
 791:.\Generated_Source\PSoC4/CapSense_1_CSHL.c **** *  This API returns the noise threshold of the widget indicated by the argument. 
 792:.\Generated_Source\PSoC4/CapSense_1_CSHL.c **** *
 793:.\Generated_Source\PSoC4/CapSense_1_CSHL.c **** * Global Variables:
 794:.\Generated_Source\PSoC4/CapSense_1_CSHL.c **** *  CapSense_1_noiseThreshold[] - This array contains the level of signal 
 795:.\Generated_Source\PSoC4/CapSense_1_CSHL.c **** *  for each widget that determines the level of noise in the capacitive scan.
 796:.\Generated_Source\PSoC4/CapSense_1_CSHL.c **** * 
 797:.\Generated_Source\PSoC4/CapSense_1_CSHL.c **** * Side Effects:
 798:.\Generated_Source\PSoC4/CapSense_1_CSHL.c **** *  None
 799:.\Generated_Source\PSoC4/CapSense_1_CSHL.c **** *
 800:.\Generated_Source\PSoC4/CapSense_1_CSHL.c **** *******************************************************************************/
 801:.\Generated_Source\PSoC4/CapSense_1_CSHL.c **** uint8 CapSense_1_GetNoiseThreshold(uint32 widget)
 802:.\Generated_Source\PSoC4/CapSense_1_CSHL.c **** {
 980              		.loc 1 802 0
 981              		.cfi_startproc
 982 0000 80B5     		push	{r7, lr}
 983              	.LCFI36:
 984              		.cfi_def_cfa_offset 8
 985              		.cfi_offset 7, -8
 986              		.cfi_offset 14, -4
 987 0002 82B0     		sub	sp, sp, #8
 988              	.LCFI37:
 989              		.cfi_def_cfa_offset 16
 990 0004 00AF     		add	r7, sp, #0
 991              	.LCFI38:
 992              		.cfi_def_cfa_register 7
 993 0006 7860     		str	r0, [r7, #4]
 803:.\Generated_Source\PSoC4/CapSense_1_CSHL.c **** 	return (CapSense_1_noiseThreshold[widget]);
 994              		.loc 1 803 0
 995 0008 034A     		ldr	r2, .L57
 996 000a 7B68     		ldr	r3, [r7, #4]
 997 000c D318     		add	r3, r2, r3
 998 000e 1B78     		ldrb	r3, [r3]
 804:.\Generated_Source\PSoC4/CapSense_1_CSHL.c **** }
 999              		.loc 1 804 0
 1000 0010 181C     		mov	r0, r3
 1001 0012 BD46     		mov	sp, r7
 1002 0014 02B0     		add	sp, sp, #8
 1003              		@ sp needed for prologue
 1004 0016 80BD     		pop	{r7, pc}
 1005              	.L58:
 1006              		.align	2
 1007              	.L57:
 1008 0018 00000000 		.word	CapSense_1_noiseThreshold
 1009              		.cfi_endproc
ARM GAS  C:\Users\Jakob\AppData\Local\Temp\cc5GwTcI.s 			page 33


 1010              	.LFE45:
 1011              		.size	CapSense_1_GetNoiseThreshold, .-CapSense_1_GetNoiseThreshold
 1012              		.section	.text.CapSense_1_GetFingerHysteresis,"ax",%progbits
 1013              		.align	2
 1014              		.global	CapSense_1_GetFingerHysteresis
 1015              		.code	16
 1016              		.thumb_func
 1017              		.type	CapSense_1_GetFingerHysteresis, %function
 1018              	CapSense_1_GetFingerHysteresis:
 1019              	.LFB46:
 805:.\Generated_Source\PSoC4/CapSense_1_CSHL.c **** 
 806:.\Generated_Source\PSoC4/CapSense_1_CSHL.c **** 
 807:.\Generated_Source\PSoC4/CapSense_1_CSHL.c **** /*******************************************************************************
 808:.\Generated_Source\PSoC4/CapSense_1_CSHL.c **** * Function Name: CapSense_1_GetFingerHysteresis
 809:.\Generated_Source\PSoC4/CapSense_1_CSHL.c **** ********************************************************************************
 810:.\Generated_Source\PSoC4/CapSense_1_CSHL.c **** *
 811:.\Generated_Source\PSoC4/CapSense_1_CSHL.c **** * Summary:
 812:.\Generated_Source\PSoC4/CapSense_1_CSHL.c **** *  This function reads the Hysteresis value from the component.
 813:.\Generated_Source\PSoC4/CapSense_1_CSHL.c **** *
 814:.\Generated_Source\PSoC4/CapSense_1_CSHL.c **** * Parameters:
 815:.\Generated_Source\PSoC4/CapSense_1_CSHL.c **** *  widget:  widget number.
 816:.\Generated_Source\PSoC4/CapSense_1_CSHL.c **** *
 817:.\Generated_Source\PSoC4/CapSense_1_CSHL.c **** * Return:
 818:.\Generated_Source\PSoC4/CapSense_1_CSHL.c **** *  This API returns the Hysteresis of the widget indicated by the argument. 
 819:.\Generated_Source\PSoC4/CapSense_1_CSHL.c **** *
 820:.\Generated_Source\PSoC4/CapSense_1_CSHL.c **** * Global Variables:
 821:.\Generated_Source\PSoC4/CapSense_1_CSHL.c **** *  CapSense_1_hysteresis[] - This array contains the hysteresis value 
 822:.\Generated_Source\PSoC4/CapSense_1_CSHL.c **** *   for each widget.
 823:.\Generated_Source\PSoC4/CapSense_1_CSHL.c **** *  CapSense_1_widgetNumberSld - structure with dynamic sliders' parameters.
 824:.\Generated_Source\PSoC4/CapSense_1_CSHL.c **** *
 825:.\Generated_Source\PSoC4/CapSense_1_CSHL.c **** * Side Effects:
 826:.\Generated_Source\PSoC4/CapSense_1_CSHL.c **** *  None
 827:.\Generated_Source\PSoC4/CapSense_1_CSHL.c **** *
 828:.\Generated_Source\PSoC4/CapSense_1_CSHL.c **** *******************************************************************************/
 829:.\Generated_Source\PSoC4/CapSense_1_CSHL.c **** uint8 CapSense_1_GetFingerHysteresis(uint32 widget)
 830:.\Generated_Source\PSoC4/CapSense_1_CSHL.c **** {
 1020              		.loc 1 830 0
 1021              		.cfi_startproc
 1022 0000 80B5     		push	{r7, lr}
 1023              	.LCFI39:
 1024              		.cfi_def_cfa_offset 8
 1025              		.cfi_offset 7, -8
 1026              		.cfi_offset 14, -4
 1027 0002 82B0     		sub	sp, sp, #8
 1028              	.LCFI40:
 1029              		.cfi_def_cfa_offset 16
 1030 0004 00AF     		add	r7, sp, #0
 1031              	.LCFI41:
 1032              		.cfi_def_cfa_register 7
 1033 0006 7860     		str	r0, [r7, #4]
 831:.\Generated_Source\PSoC4/CapSense_1_CSHL.c **** 	return(CapSense_1_hysteresis[widget]);
 1034              		.loc 1 831 0
 1035 0008 034A     		ldr	r2, .L61
 1036 000a 7B68     		ldr	r3, [r7, #4]
 1037 000c D318     		add	r3, r2, r3
 1038 000e 1B78     		ldrb	r3, [r3]
 832:.\Generated_Source\PSoC4/CapSense_1_CSHL.c **** }
ARM GAS  C:\Users\Jakob\AppData\Local\Temp\cc5GwTcI.s 			page 34


 1039              		.loc 1 832 0
 1040 0010 181C     		mov	r0, r3
 1041 0012 BD46     		mov	sp, r7
 1042 0014 02B0     		add	sp, sp, #8
 1043              		@ sp needed for prologue
 1044 0016 80BD     		pop	{r7, pc}
 1045              	.L62:
 1046              		.align	2
 1047              	.L61:
 1048 0018 00000000 		.word	CapSense_1_hysteresis
 1049              		.cfi_endproc
 1050              	.LFE46:
 1051              		.size	CapSense_1_GetFingerHysteresis, .-CapSense_1_GetFingerHysteresis
 1052              		.section	.text.CapSense_1_GetNegativeNoiseThreshold,"ax",%progbits
 1053              		.align	2
 1054              		.global	CapSense_1_GetNegativeNoiseThreshold
 1055              		.code	16
 1056              		.thumb_func
 1057              		.type	CapSense_1_GetNegativeNoiseThreshold, %function
 1058              	CapSense_1_GetNegativeNoiseThreshold:
 1059              	.LFB47:
 833:.\Generated_Source\PSoC4/CapSense_1_CSHL.c **** 
 834:.\Generated_Source\PSoC4/CapSense_1_CSHL.c **** 
 835:.\Generated_Source\PSoC4/CapSense_1_CSHL.c **** /*******************************************************************************
 836:.\Generated_Source\PSoC4/CapSense_1_CSHL.c **** * Function Name: CapSense_1_GetNegativeNoiseThreshold
 837:.\Generated_Source\PSoC4/CapSense_1_CSHL.c **** ********************************************************************************
 838:.\Generated_Source\PSoC4/CapSense_1_CSHL.c **** *
 839:.\Generated_Source\PSoC4/CapSense_1_CSHL.c **** * Summary:
 840:.\Generated_Source\PSoC4/CapSense_1_CSHL.c **** *  This function reads the negative noise threshold from the component.
 841:.\Generated_Source\PSoC4/CapSense_1_CSHL.c **** *
 842:.\Generated_Source\PSoC4/CapSense_1_CSHL.c **** * Parameters: 
 843:.\Generated_Source\PSoC4/CapSense_1_CSHL.c **** *  None.
 844:.\Generated_Source\PSoC4/CapSense_1_CSHL.c **** *
 845:.\Generated_Source\PSoC4/CapSense_1_CSHL.c **** * Return Value: 
 846:.\Generated_Source\PSoC4/CapSense_1_CSHL.c **** *  This API returns the negative noise threshold
 847:.\Generated_Source\PSoC4/CapSense_1_CSHL.c **** *
 848:.\Generated_Source\PSoC4/CapSense_1_CSHL.c **** * Global Variables:
 849:.\Generated_Source\PSoC4/CapSense_1_CSHL.c **** *  CapSense_1_negativeNoiseThreshold - This variable specifies the negative 
 850:.\Generated_Source\PSoC4/CapSense_1_CSHL.c **** *   difference between the raw count and baseline levels for Baseline resetting
 851:.\Generated_Source\PSoC4/CapSense_1_CSHL.c **** *   to the raw count level.
 852:.\Generated_Source\PSoC4/CapSense_1_CSHL.c **** * 
 853:.\Generated_Source\PSoC4/CapSense_1_CSHL.c **** * Side Effects:
 854:.\Generated_Source\PSoC4/CapSense_1_CSHL.c **** *  None
 855:.\Generated_Source\PSoC4/CapSense_1_CSHL.c **** *
 856:.\Generated_Source\PSoC4/CapSense_1_CSHL.c **** *******************************************************************************/
 857:.\Generated_Source\PSoC4/CapSense_1_CSHL.c **** uint8 CapSense_1_GetNegativeNoiseThreshold(uint32 widget)
 858:.\Generated_Source\PSoC4/CapSense_1_CSHL.c **** {
 1060              		.loc 1 858 0
 1061              		.cfi_startproc
 1062 0000 80B5     		push	{r7, lr}
 1063              	.LCFI42:
 1064              		.cfi_def_cfa_offset 8
 1065              		.cfi_offset 7, -8
 1066              		.cfi_offset 14, -4
 1067 0002 82B0     		sub	sp, sp, #8
 1068              	.LCFI43:
 1069              		.cfi_def_cfa_offset 16
ARM GAS  C:\Users\Jakob\AppData\Local\Temp\cc5GwTcI.s 			page 35


 1070 0004 00AF     		add	r7, sp, #0
 1071              	.LCFI44:
 1072              		.cfi_def_cfa_register 7
 1073 0006 7860     		str	r0, [r7, #4]
 859:.\Generated_Source\PSoC4/CapSense_1_CSHL.c **** #if (CapSense_1_TUNING_METHOD != CapSense_1__TUNING_NONE)
 860:.\Generated_Source\PSoC4/CapSense_1_CSHL.c **** 	return(CapSense_1_negativeNoiseThreshold[widget]);
 1074              		.loc 1 860 0
 1075 0008 034A     		ldr	r2, .L65
 1076 000a 7B68     		ldr	r3, [r7, #4]
 1077 000c D318     		add	r3, r2, r3
 1078 000e 1B78     		ldrb	r3, [r3]
 861:.\Generated_Source\PSoC4/CapSense_1_CSHL.c **** #else
 862:.\Generated_Source\PSoC4/CapSense_1_CSHL.c **** 	return(CapSense_1_NEGATIVE_NOISE_THRESHOLD);
 863:.\Generated_Source\PSoC4/CapSense_1_CSHL.c **** #endif /* (CapSense_1_TUNING_METHOD != CapSense_1__TUNING_NONE) */ 
 864:.\Generated_Source\PSoC4/CapSense_1_CSHL.c **** }
 1079              		.loc 1 864 0
 1080 0010 181C     		mov	r0, r3
 1081 0012 BD46     		mov	sp, r7
 1082 0014 02B0     		add	sp, sp, #8
 1083              		@ sp needed for prologue
 1084 0016 80BD     		pop	{r7, pc}
 1085              	.L66:
 1086              		.align	2
 1087              	.L65:
 1088 0018 00000000 		.word	CapSense_1_negativeNoiseThreshold
 1089              		.cfi_endproc
 1090              	.LFE47:
 1091              		.size	CapSense_1_GetNegativeNoiseThreshold, .-CapSense_1_GetNegativeNoiseThreshold
 1092              		.section	.text.CapSense_1_SetFingerThreshold,"ax",%progbits
 1093              		.align	2
 1094              		.global	CapSense_1_SetFingerThreshold
 1095              		.code	16
 1096              		.thumb_func
 1097              		.type	CapSense_1_SetFingerThreshold, %function
 1098              	CapSense_1_SetFingerThreshold:
 1099              	.LFB48:
 865:.\Generated_Source\PSoC4/CapSense_1_CSHL.c **** 
 866:.\Generated_Source\PSoC4/CapSense_1_CSHL.c **** 
 867:.\Generated_Source\PSoC4/CapSense_1_CSHL.c **** #if(CapSense_1_TUNING_METHOD != CapSense_1__TUNING_NONE)
 868:.\Generated_Source\PSoC4/CapSense_1_CSHL.c **** 	/*******************************************************************************
 869:.\Generated_Source\PSoC4/CapSense_1_CSHL.c **** 	* Function Name: CapSense_1_SetFingerThreshold
 870:.\Generated_Source\PSoC4/CapSense_1_CSHL.c **** 	********************************************************************************
 871:.\Generated_Source\PSoC4/CapSense_1_CSHL.c **** 	*
 872:.\Generated_Source\PSoC4/CapSense_1_CSHL.c **** 	* Summary:
 873:.\Generated_Source\PSoC4/CapSense_1_CSHL.c **** 	*  This API sets the finger threshold value for a widget. 
 874:.\Generated_Source\PSoC4/CapSense_1_CSHL.c **** 	*
 875:.\Generated_Source\PSoC4/CapSense_1_CSHL.c **** 	* Parameters: 
 876:.\Generated_Source\PSoC4/CapSense_1_CSHL.c **** 	*  sensorNumber:  widget index. 
 877:.\Generated_Source\PSoC4/CapSense_1_CSHL.c **** 	*  value:  Finger threshold value for the widget.
 878:.\Generated_Source\PSoC4/CapSense_1_CSHL.c **** 	*
 879:.\Generated_Source\PSoC4/CapSense_1_CSHL.c **** 	* Return Value: 
 880:.\Generated_Source\PSoC4/CapSense_1_CSHL.c **** 	*  None
 881:.\Generated_Source\PSoC4/CapSense_1_CSHL.c **** 	*
 882:.\Generated_Source\PSoC4/CapSense_1_CSHL.c **** 	* Global Variables:
 883:.\Generated_Source\PSoC4/CapSense_1_CSHL.c **** 	*  CapSense_1_fingerThreshold[] - This array contains the level of signal 
 884:.\Generated_Source\PSoC4/CapSense_1_CSHL.c **** 	*   for each widget that determines if a finger is present on the widget.
 885:.\Generated_Source\PSoC4/CapSense_1_CSHL.c **** 	* 
ARM GAS  C:\Users\Jakob\AppData\Local\Temp\cc5GwTcI.s 			page 36


 886:.\Generated_Source\PSoC4/CapSense_1_CSHL.c **** 	* Side Effects:
 887:.\Generated_Source\PSoC4/CapSense_1_CSHL.c **** 	*  None
 888:.\Generated_Source\PSoC4/CapSense_1_CSHL.c **** 	*
 889:.\Generated_Source\PSoC4/CapSense_1_CSHL.c **** 	*******************************************************************************/
 890:.\Generated_Source\PSoC4/CapSense_1_CSHL.c **** 	void CapSense_1_SetFingerThreshold(uint32 widget, uint8 value)
 891:.\Generated_Source\PSoC4/CapSense_1_CSHL.c **** 	{	
 1100              		.loc 1 891 0
 1101              		.cfi_startproc
 1102 0000 80B5     		push	{r7, lr}
 1103              	.LCFI45:
 1104              		.cfi_def_cfa_offset 8
 1105              		.cfi_offset 7, -8
 1106              		.cfi_offset 14, -4
 1107 0002 82B0     		sub	sp, sp, #8
 1108              	.LCFI46:
 1109              		.cfi_def_cfa_offset 16
 1110 0004 00AF     		add	r7, sp, #0
 1111              	.LCFI47:
 1112              		.cfi_def_cfa_register 7
 1113 0006 7860     		str	r0, [r7, #4]
 1114 0008 0A1C     		mov	r2, r1
 1115 000a FB1C     		add	r3, r7, #3
 1116 000c 1A70     		strb	r2, [r3]
 892:.\Generated_Source\PSoC4/CapSense_1_CSHL.c **** 		CapSense_1_fingerThreshold[widget] = value;
 1117              		.loc 1 892 0
 1118 000e 044A     		ldr	r2, .L68
 1119 0010 7B68     		ldr	r3, [r7, #4]
 1120 0012 D318     		add	r3, r2, r3
 1121 0014 FA1C     		add	r2, r7, #3
 1122 0016 1278     		ldrb	r2, [r2]
 1123 0018 1A70     		strb	r2, [r3]
 893:.\Generated_Source\PSoC4/CapSense_1_CSHL.c **** 	}
 1124              		.loc 1 893 0
 1125 001a BD46     		mov	sp, r7
 1126 001c 02B0     		add	sp, sp, #8
 1127              		@ sp needed for prologue
 1128 001e 80BD     		pop	{r7, pc}
 1129              	.L69:
 1130              		.align	2
 1131              	.L68:
 1132 0020 00000000 		.word	CapSense_1_fingerThreshold
 1133              		.cfi_endproc
 1134              	.LFE48:
 1135              		.size	CapSense_1_SetFingerThreshold, .-CapSense_1_SetFingerThreshold
 1136              		.section	.text.CapSense_1_SetNoiseThreshold,"ax",%progbits
 1137              		.align	2
 1138              		.global	CapSense_1_SetNoiseThreshold
 1139              		.code	16
 1140              		.thumb_func
 1141              		.type	CapSense_1_SetNoiseThreshold, %function
 1142              	CapSense_1_SetNoiseThreshold:
 1143              	.LFB49:
 894:.\Generated_Source\PSoC4/CapSense_1_CSHL.c **** 
 895:.\Generated_Source\PSoC4/CapSense_1_CSHL.c **** 
 896:.\Generated_Source\PSoC4/CapSense_1_CSHL.c **** 	/*******************************************************************************
 897:.\Generated_Source\PSoC4/CapSense_1_CSHL.c **** 	* Function Name: CapSense_1_SetNoiseThreshold
 898:.\Generated_Source\PSoC4/CapSense_1_CSHL.c **** 	********************************************************************************
ARM GAS  C:\Users\Jakob\AppData\Local\Temp\cc5GwTcI.s 			page 37


 899:.\Generated_Source\PSoC4/CapSense_1_CSHL.c **** 	*
 900:.\Generated_Source\PSoC4/CapSense_1_CSHL.c **** 	* Summary:
 901:.\Generated_Source\PSoC4/CapSense_1_CSHL.c **** 	*  This API sets the Noise Threshold value for each widget.
 902:.\Generated_Source\PSoC4/CapSense_1_CSHL.c **** 	*
 903:.\Generated_Source\PSoC4/CapSense_1_CSHL.c **** 	* Parameters:
 904:.\Generated_Source\PSoC4/CapSense_1_CSHL.c **** 	*  widget:  Sensor index number.
 905:.\Generated_Source\PSoC4/CapSense_1_CSHL.c **** 	*  value:   Noise Threshold value for widget.
 906:.\Generated_Source\PSoC4/CapSense_1_CSHL.c **** 	*
 907:.\Generated_Source\PSoC4/CapSense_1_CSHL.c **** 	* Return Value: 
 908:.\Generated_Source\PSoC4/CapSense_1_CSHL.c **** 	*  None
 909:.\Generated_Source\PSoC4/CapSense_1_CSHL.c **** 	*
 910:.\Generated_Source\PSoC4/CapSense_1_CSHL.c **** 	* Global Variables:
 911:.\Generated_Source\PSoC4/CapSense_1_CSHL.c **** 	*  CapSense_1_noiseThreshold[] - This array contains the level of signal 
 912:.\Generated_Source\PSoC4/CapSense_1_CSHL.c **** 	*   for each widget that determines the level of noise in the capacitive scan.
 913:.\Generated_Source\PSoC4/CapSense_1_CSHL.c **** 	* 
 914:.\Generated_Source\PSoC4/CapSense_1_CSHL.c **** 	* Side Effects:
 915:.\Generated_Source\PSoC4/CapSense_1_CSHL.c **** 	*  None
 916:.\Generated_Source\PSoC4/CapSense_1_CSHL.c **** 	*
 917:.\Generated_Source\PSoC4/CapSense_1_CSHL.c **** 	*******************************************************************************/
 918:.\Generated_Source\PSoC4/CapSense_1_CSHL.c **** 	void CapSense_1_SetNoiseThreshold(uint32 widget, uint8 value)
 919:.\Generated_Source\PSoC4/CapSense_1_CSHL.c **** 	{
 1144              		.loc 1 919 0
 1145              		.cfi_startproc
 1146 0000 80B5     		push	{r7, lr}
 1147              	.LCFI48:
 1148              		.cfi_def_cfa_offset 8
 1149              		.cfi_offset 7, -8
 1150              		.cfi_offset 14, -4
 1151 0002 82B0     		sub	sp, sp, #8
 1152              	.LCFI49:
 1153              		.cfi_def_cfa_offset 16
 1154 0004 00AF     		add	r7, sp, #0
 1155              	.LCFI50:
 1156              		.cfi_def_cfa_register 7
 1157 0006 7860     		str	r0, [r7, #4]
 1158 0008 0A1C     		mov	r2, r1
 1159 000a FB1C     		add	r3, r7, #3
 1160 000c 1A70     		strb	r2, [r3]
 920:.\Generated_Source\PSoC4/CapSense_1_CSHL.c **** 		CapSense_1_noiseThreshold[widget] = value;
 1161              		.loc 1 920 0
 1162 000e 044A     		ldr	r2, .L71
 1163 0010 7B68     		ldr	r3, [r7, #4]
 1164 0012 D318     		add	r3, r2, r3
 1165 0014 FA1C     		add	r2, r7, #3
 1166 0016 1278     		ldrb	r2, [r2]
 1167 0018 1A70     		strb	r2, [r3]
 921:.\Generated_Source\PSoC4/CapSense_1_CSHL.c **** 	}
 1168              		.loc 1 921 0
 1169 001a BD46     		mov	sp, r7
 1170 001c 02B0     		add	sp, sp, #8
 1171              		@ sp needed for prologue
 1172 001e 80BD     		pop	{r7, pc}
 1173              	.L72:
 1174              		.align	2
 1175              	.L71:
 1176 0020 00000000 		.word	CapSense_1_noiseThreshold
 1177              		.cfi_endproc
ARM GAS  C:\Users\Jakob\AppData\Local\Temp\cc5GwTcI.s 			page 38


 1178              	.LFE49:
 1179              		.size	CapSense_1_SetNoiseThreshold, .-CapSense_1_SetNoiseThreshold
 1180              		.section	.text.CapSense_1_SetFingerHysteresis,"ax",%progbits
 1181              		.align	2
 1182              		.global	CapSense_1_SetFingerHysteresis
 1183              		.code	16
 1184              		.thumb_func
 1185              		.type	CapSense_1_SetFingerHysteresis, %function
 1186              	CapSense_1_SetFingerHysteresis:
 1187              	.LFB50:
 922:.\Generated_Source\PSoC4/CapSense_1_CSHL.c **** 
 923:.\Generated_Source\PSoC4/CapSense_1_CSHL.c **** 
 924:.\Generated_Source\PSoC4/CapSense_1_CSHL.c **** 	/*******************************************************************************
 925:.\Generated_Source\PSoC4/CapSense_1_CSHL.c **** 	* Function Name: CapSense_1_SetFingerHysteresis
 926:.\Generated_Source\PSoC4/CapSense_1_CSHL.c **** 	********************************************************************************
 927:.\Generated_Source\PSoC4/CapSense_1_CSHL.c **** 	*
 928:.\Generated_Source\PSoC4/CapSense_1_CSHL.c **** 	* Summary:
 929:.\Generated_Source\PSoC4/CapSense_1_CSHL.c **** 	*  This API sets the Hysteresis value of a widget
 930:.\Generated_Source\PSoC4/CapSense_1_CSHL.c **** 	*
 931:.\Generated_Source\PSoC4/CapSense_1_CSHL.c **** 	* Parameters: 
 932:.\Generated_Source\PSoC4/CapSense_1_CSHL.c **** 	*  value:  Hysteresis value for widgets.
 933:.\Generated_Source\PSoC4/CapSense_1_CSHL.c **** 	*  widget:  widget number
 934:.\Generated_Source\PSoC4/CapSense_1_CSHL.c **** 	*
 935:.\Generated_Source\PSoC4/CapSense_1_CSHL.c **** 	* Return Value: 
 936:.\Generated_Source\PSoC4/CapSense_1_CSHL.c **** 	*  None
 937:.\Generated_Source\PSoC4/CapSense_1_CSHL.c **** 	*
 938:.\Generated_Source\PSoC4/CapSense_1_CSHL.c **** 	* Global Variables:
 939:.\Generated_Source\PSoC4/CapSense_1_CSHL.c **** 	*  CapSense_1_hysteresis[] - This array contains the hysteresis value for each widget.
 940:.\Generated_Source\PSoC4/CapSense_1_CSHL.c **** 	*  CapSense_1_widgetNumberSld - structure with dynamic sliders' parameters.
 941:.\Generated_Source\PSoC4/CapSense_1_CSHL.c **** 	*
 942:.\Generated_Source\PSoC4/CapSense_1_CSHL.c **** 	* Side Effects:
 943:.\Generated_Source\PSoC4/CapSense_1_CSHL.c **** 	*  None
 944:.\Generated_Source\PSoC4/CapSense_1_CSHL.c **** 	*
 945:.\Generated_Source\PSoC4/CapSense_1_CSHL.c **** 	*******************************************************************************/
 946:.\Generated_Source\PSoC4/CapSense_1_CSHL.c **** 	void CapSense_1_SetFingerHysteresis(uint32 widget, uint8 value)
 947:.\Generated_Source\PSoC4/CapSense_1_CSHL.c **** 	{
 1188              		.loc 1 947 0
 1189              		.cfi_startproc
 1190 0000 80B5     		push	{r7, lr}
 1191              	.LCFI51:
 1192              		.cfi_def_cfa_offset 8
 1193              		.cfi_offset 7, -8
 1194              		.cfi_offset 14, -4
 1195 0002 82B0     		sub	sp, sp, #8
 1196              	.LCFI52:
 1197              		.cfi_def_cfa_offset 16
 1198 0004 00AF     		add	r7, sp, #0
 1199              	.LCFI53:
 1200              		.cfi_def_cfa_register 7
 1201 0006 7860     		str	r0, [r7, #4]
 1202 0008 0A1C     		mov	r2, r1
 1203 000a FB1C     		add	r3, r7, #3
 1204 000c 1A70     		strb	r2, [r3]
 948:.\Generated_Source\PSoC4/CapSense_1_CSHL.c **** 		CapSense_1_hysteresis[widget] = value;
 1205              		.loc 1 948 0
 1206 000e 044A     		ldr	r2, .L74
 1207 0010 7B68     		ldr	r3, [r7, #4]
ARM GAS  C:\Users\Jakob\AppData\Local\Temp\cc5GwTcI.s 			page 39


 1208 0012 D318     		add	r3, r2, r3
 1209 0014 FA1C     		add	r2, r7, #3
 1210 0016 1278     		ldrb	r2, [r2]
 1211 0018 1A70     		strb	r2, [r3]
 949:.\Generated_Source\PSoC4/CapSense_1_CSHL.c **** 	}
 1212              		.loc 1 949 0
 1213 001a BD46     		mov	sp, r7
 1214 001c 02B0     		add	sp, sp, #8
 1215              		@ sp needed for prologue
 1216 001e 80BD     		pop	{r7, pc}
 1217              	.L75:
 1218              		.align	2
 1219              	.L74:
 1220 0020 00000000 		.word	CapSense_1_hysteresis
 1221              		.cfi_endproc
 1222              	.LFE50:
 1223              		.size	CapSense_1_SetFingerHysteresis, .-CapSense_1_SetFingerHysteresis
 1224              		.section	.text.CapSense_1_SetNegativeNoiseThreshold,"ax",%progbits
 1225              		.align	2
 1226              		.global	CapSense_1_SetNegativeNoiseThreshold
 1227              		.code	16
 1228              		.thumb_func
 1229              		.type	CapSense_1_SetNegativeNoiseThreshold, %function
 1230              	CapSense_1_SetNegativeNoiseThreshold:
 1231              	.LFB51:
 950:.\Generated_Source\PSoC4/CapSense_1_CSHL.c **** 
 951:.\Generated_Source\PSoC4/CapSense_1_CSHL.c **** 
 952:.\Generated_Source\PSoC4/CapSense_1_CSHL.c **** 	/*******************************************************************************
 953:.\Generated_Source\PSoC4/CapSense_1_CSHL.c **** 	* Function Name: CapSense_1_SetNegativeNoiseThreshold
 954:.\Generated_Source\PSoC4/CapSense_1_CSHL.c **** 	********************************************************************************
 955:.\Generated_Source\PSoC4/CapSense_1_CSHL.c **** 	*
 956:.\Generated_Source\PSoC4/CapSense_1_CSHL.c **** 	* Summary:
 957:.\Generated_Source\PSoC4/CapSense_1_CSHL.c **** 	*  This API sets the Negative Noise Threshold value of a widget
 958:.\Generated_Source\PSoC4/CapSense_1_CSHL.c **** 	*
 959:.\Generated_Source\PSoC4/CapSense_1_CSHL.c **** 	* Parameters: 
 960:.\Generated_Source\PSoC4/CapSense_1_CSHL.c **** 	*  value:  Negative Noise Threshold value for widgets.
 961:.\Generated_Source\PSoC4/CapSense_1_CSHL.c **** 	*  widget: widget number
 962:.\Generated_Source\PSoC4/CapSense_1_CSHL.c **** 	*
 963:.\Generated_Source\PSoC4/CapSense_1_CSHL.c **** 	* Return Value: 
 964:.\Generated_Source\PSoC4/CapSense_1_CSHL.c **** 	*  None
 965:.\Generated_Source\PSoC4/CapSense_1_CSHL.c **** 	*
 966:.\Generated_Source\PSoC4/CapSense_1_CSHL.c **** 	* Global Variables:
 967:.\Generated_Source\PSoC4/CapSense_1_CSHL.c **** 	*  CapSense_1_negativeNoiseThreshold  - This parameter specifies the negative 
 968:.\Generated_Source\PSoC4/CapSense_1_CSHL.c **** 	*   difference between the raw count and baseline levels for Baseline resetting to 
 969:.\Generated_Source\PSoC4/CapSense_1_CSHL.c **** 	*   the raw count level.
 970:.\Generated_Source\PSoC4/CapSense_1_CSHL.c **** 	* 
 971:.\Generated_Source\PSoC4/CapSense_1_CSHL.c **** 	* Side Effects:
 972:.\Generated_Source\PSoC4/CapSense_1_CSHL.c **** 	*  None
 973:.\Generated_Source\PSoC4/CapSense_1_CSHL.c **** 	*
 974:.\Generated_Source\PSoC4/CapSense_1_CSHL.c **** 	*******************************************************************************/
 975:.\Generated_Source\PSoC4/CapSense_1_CSHL.c **** 	void CapSense_1_SetNegativeNoiseThreshold(uint32 widget, uint8 value)
 976:.\Generated_Source\PSoC4/CapSense_1_CSHL.c **** 	{
 1232              		.loc 1 976 0
 1233              		.cfi_startproc
 1234 0000 80B5     		push	{r7, lr}
 1235              	.LCFI54:
 1236              		.cfi_def_cfa_offset 8
ARM GAS  C:\Users\Jakob\AppData\Local\Temp\cc5GwTcI.s 			page 40


 1237              		.cfi_offset 7, -8
 1238              		.cfi_offset 14, -4
 1239 0002 82B0     		sub	sp, sp, #8
 1240              	.LCFI55:
 1241              		.cfi_def_cfa_offset 16
 1242 0004 00AF     		add	r7, sp, #0
 1243              	.LCFI56:
 1244              		.cfi_def_cfa_register 7
 1245 0006 7860     		str	r0, [r7, #4]
 1246 0008 0A1C     		mov	r2, r1
 1247 000a FB1C     		add	r3, r7, #3
 1248 000c 1A70     		strb	r2, [r3]
 977:.\Generated_Source\PSoC4/CapSense_1_CSHL.c **** 		CapSense_1_negativeNoiseThreshold[widget] = value;
 1249              		.loc 1 977 0
 1250 000e 044A     		ldr	r2, .L77
 1251 0010 7B68     		ldr	r3, [r7, #4]
 1252 0012 D318     		add	r3, r2, r3
 1253 0014 FA1C     		add	r2, r7, #3
 1254 0016 1278     		ldrb	r2, [r2]
 1255 0018 1A70     		strb	r2, [r3]
 978:.\Generated_Source\PSoC4/CapSense_1_CSHL.c **** 	}
 1256              		.loc 1 978 0
 1257 001a BD46     		mov	sp, r7
 1258 001c 02B0     		add	sp, sp, #8
 1259              		@ sp needed for prologue
 1260 001e 80BD     		pop	{r7, pc}
 1261              	.L78:
 1262              		.align	2
 1263              	.L77:
 1264 0020 00000000 		.word	CapSense_1_negativeNoiseThreshold
 1265              		.cfi_endproc
 1266              	.LFE51:
 1267              		.size	CapSense_1_SetNegativeNoiseThreshold, .-CapSense_1_SetNegativeNoiseThreshold
 1268              		.section	.text.CapSense_1_SetDebounce,"ax",%progbits
 1269              		.align	2
 1270              		.global	CapSense_1_SetDebounce
 1271              		.code	16
 1272              		.thumb_func
 1273              		.type	CapSense_1_SetDebounce, %function
 1274              	CapSense_1_SetDebounce:
 1275              	.LFB52:
 979:.\Generated_Source\PSoC4/CapSense_1_CSHL.c **** 
 980:.\Generated_Source\PSoC4/CapSense_1_CSHL.c **** 
 981:.\Generated_Source\PSoC4/CapSense_1_CSHL.c **** 	/*******************************************************************************
 982:.\Generated_Source\PSoC4/CapSense_1_CSHL.c **** 	* Function Name: CapSense_1_SetDebounce
 983:.\Generated_Source\PSoC4/CapSense_1_CSHL.c **** 	********************************************************************************
 984:.\Generated_Source\PSoC4/CapSense_1_CSHL.c **** 	*
 985:.\Generated_Source\PSoC4/CapSense_1_CSHL.c **** 	* Summary:
 986:.\Generated_Source\PSoC4/CapSense_1_CSHL.c **** 	*  This API sets the debounce value for a widget.
 987:.\Generated_Source\PSoC4/CapSense_1_CSHL.c **** 	*
 988:.\Generated_Source\PSoC4/CapSense_1_CSHL.c **** 	* Parameters: 
 989:.\Generated_Source\PSoC4/CapSense_1_CSHL.c **** 	*  value:  Debounce value for widget.
 990:.\Generated_Source\PSoC4/CapSense_1_CSHL.c **** 	*  widget: widget index.
 991:.\Generated_Source\PSoC4/CapSense_1_CSHL.c **** 	*
 992:.\Generated_Source\PSoC4/CapSense_1_CSHL.c **** 	* Return Value: 
 993:.\Generated_Source\PSoC4/CapSense_1_CSHL.c **** 	*  None
 994:.\Generated_Source\PSoC4/CapSense_1_CSHL.c **** 	*
ARM GAS  C:\Users\Jakob\AppData\Local\Temp\cc5GwTcI.s 			page 41


 995:.\Generated_Source\PSoC4/CapSense_1_CSHL.c **** 	* Global Variables:
 996:.\Generated_Source\PSoC4/CapSense_1_CSHL.c **** 	*  CapSense_1_debounce[] - This array contains the debounce value for each widget.
 997:.\Generated_Source\PSoC4/CapSense_1_CSHL.c **** 	*  CapSense_1_widgetNumberSld - structure with dynamic sliders' parameters.
 998:.\Generated_Source\PSoC4/CapSense_1_CSHL.c **** 	*
 999:.\Generated_Source\PSoC4/CapSense_1_CSHL.c **** 	* Side Effects:
1000:.\Generated_Source\PSoC4/CapSense_1_CSHL.c **** 	*  None
1001:.\Generated_Source\PSoC4/CapSense_1_CSHL.c **** 	*
1002:.\Generated_Source\PSoC4/CapSense_1_CSHL.c **** 	*******************************************************************************/
1003:.\Generated_Source\PSoC4/CapSense_1_CSHL.c **** 	void CapSense_1_SetDebounce(uint32 widget, uint8 value)
1004:.\Generated_Source\PSoC4/CapSense_1_CSHL.c **** 	{
 1276              		.loc 1 1004 0
 1277              		.cfi_startproc
 1278 0000 80B5     		push	{r7, lr}
 1279              	.LCFI57:
 1280              		.cfi_def_cfa_offset 8
 1281              		.cfi_offset 7, -8
 1282              		.cfi_offset 14, -4
 1283 0002 82B0     		sub	sp, sp, #8
 1284              	.LCFI58:
 1285              		.cfi_def_cfa_offset 16
 1286 0004 00AF     		add	r7, sp, #0
 1287              	.LCFI59:
 1288              		.cfi_def_cfa_register 7
 1289 0006 7860     		str	r0, [r7, #4]
 1290 0008 0A1C     		mov	r2, r1
 1291 000a FB1C     		add	r3, r7, #3
 1292 000c 1A70     		strb	r2, [r3]
1005:.\Generated_Source\PSoC4/CapSense_1_CSHL.c **** 		CapSense_1_debounce[widget] = value;
 1293              		.loc 1 1005 0
 1294 000e 044A     		ldr	r2, .L80
 1295 0010 7B68     		ldr	r3, [r7, #4]
 1296 0012 D318     		add	r3, r2, r3
 1297 0014 FA1C     		add	r2, r7, #3
 1298 0016 1278     		ldrb	r2, [r2]
 1299 0018 1A70     		strb	r2, [r3]
1006:.\Generated_Source\PSoC4/CapSense_1_CSHL.c **** 	}
 1300              		.loc 1 1006 0
 1301 001a BD46     		mov	sp, r7
 1302 001c 02B0     		add	sp, sp, #8
 1303              		@ sp needed for prologue
 1304 001e 80BD     		pop	{r7, pc}
 1305              	.L81:
 1306              		.align	2
 1307              	.L80:
 1308 0020 00000000 		.word	CapSense_1_debounce
 1309              		.cfi_endproc
 1310              	.LFE52:
 1311              		.size	CapSense_1_SetDebounce, .-CapSense_1_SetDebounce
 1312              		.section	.text.CapSense_1_SetLowBaselineReset,"ax",%progbits
 1313              		.align	2
 1314              		.global	CapSense_1_SetLowBaselineReset
 1315              		.code	16
 1316              		.thumb_func
 1317              		.type	CapSense_1_SetLowBaselineReset, %function
 1318              	CapSense_1_SetLowBaselineReset:
 1319              	.LFB53:
1007:.\Generated_Source\PSoC4/CapSense_1_CSHL.c **** 
ARM GAS  C:\Users\Jakob\AppData\Local\Temp\cc5GwTcI.s 			page 42


1008:.\Generated_Source\PSoC4/CapSense_1_CSHL.c **** 
1009:.\Generated_Source\PSoC4/CapSense_1_CSHL.c **** 	/*******************************************************************************
1010:.\Generated_Source\PSoC4/CapSense_1_CSHL.c **** 	* Function Name: CapSense_1_SetLowBaselineReset
1011:.\Generated_Source\PSoC4/CapSense_1_CSHL.c **** 	********************************************************************************
1012:.\Generated_Source\PSoC4/CapSense_1_CSHL.c **** 	*
1013:.\Generated_Source\PSoC4/CapSense_1_CSHL.c **** 	* Summary:
1014:.\Generated_Source\PSoC4/CapSense_1_CSHL.c **** 	*  This API sets the low baseline reset threshold value for the sensor.
1015:.\Generated_Source\PSoC4/CapSense_1_CSHL.c **** 	*
1016:.\Generated_Source\PSoC4/CapSense_1_CSHL.c **** 	* Parameters: 
1017:.\Generated_Source\PSoC4/CapSense_1_CSHL.c **** 	*  value: low baseline reset threshold value.
1018:.\Generated_Source\PSoC4/CapSense_1_CSHL.c **** 	*  sensor: Sensor index.
1019:.\Generated_Source\PSoC4/CapSense_1_CSHL.c **** 	*
1020:.\Generated_Source\PSoC4/CapSense_1_CSHL.c **** 	* Return Value: 
1021:.\Generated_Source\PSoC4/CapSense_1_CSHL.c **** 	*  None
1022:.\Generated_Source\PSoC4/CapSense_1_CSHL.c **** 	*
1023:.\Generated_Source\PSoC4/CapSense_1_CSHL.c **** 	* Global Variables:
1024:.\Generated_Source\PSoC4/CapSense_1_CSHL.c **** 	*  CapSense_1_lowBaselineReset[] - This array contains the Baseline update 
1025:.\Generated_Source\PSoC4/CapSense_1_CSHL.c **** 	*  threshold value for each sensor.
1026:.\Generated_Source\PSoC4/CapSense_1_CSHL.c **** 	* 
1027:.\Generated_Source\PSoC4/CapSense_1_CSHL.c **** 	* Side Effects:
1028:.\Generated_Source\PSoC4/CapSense_1_CSHL.c **** 	*  None
1029:.\Generated_Source\PSoC4/CapSense_1_CSHL.c **** 	*
1030:.\Generated_Source\PSoC4/CapSense_1_CSHL.c **** 	*******************************************************************************/
1031:.\Generated_Source\PSoC4/CapSense_1_CSHL.c **** 	void CapSense_1_SetLowBaselineReset(uint32 sensor, uint8 value)
1032:.\Generated_Source\PSoC4/CapSense_1_CSHL.c **** 	{
 1320              		.loc 1 1032 0
 1321              		.cfi_startproc
 1322 0000 80B5     		push	{r7, lr}
 1323              	.LCFI60:
 1324              		.cfi_def_cfa_offset 8
 1325              		.cfi_offset 7, -8
 1326              		.cfi_offset 14, -4
 1327 0002 82B0     		sub	sp, sp, #8
 1328              	.LCFI61:
 1329              		.cfi_def_cfa_offset 16
 1330 0004 00AF     		add	r7, sp, #0
 1331              	.LCFI62:
 1332              		.cfi_def_cfa_register 7
 1333 0006 7860     		str	r0, [r7, #4]
 1334 0008 0A1C     		mov	r2, r1
 1335 000a FB1C     		add	r3, r7, #3
 1336 000c 1A70     		strb	r2, [r3]
1033:.\Generated_Source\PSoC4/CapSense_1_CSHL.c **** 		CapSense_1_lowBaselineReset[sensor] = value;
 1337              		.loc 1 1033 0
 1338 000e 044A     		ldr	r2, .L83
 1339 0010 7B68     		ldr	r3, [r7, #4]
 1340 0012 D318     		add	r3, r2, r3
 1341 0014 FA1C     		add	r2, r7, #3
 1342 0016 1278     		ldrb	r2, [r2]
 1343 0018 1A70     		strb	r2, [r3]
1034:.\Generated_Source\PSoC4/CapSense_1_CSHL.c **** 	}
 1344              		.loc 1 1034 0
 1345 001a BD46     		mov	sp, r7
 1346 001c 02B0     		add	sp, sp, #8
 1347              		@ sp needed for prologue
 1348 001e 80BD     		pop	{r7, pc}
 1349              	.L84:
ARM GAS  C:\Users\Jakob\AppData\Local\Temp\cc5GwTcI.s 			page 43


 1350              		.align	2
 1351              	.L83:
 1352 0020 00000000 		.word	CapSense_1_lowBaselineReset
 1353              		.cfi_endproc
 1354              	.LFE53:
 1355              		.size	CapSense_1_SetLowBaselineReset, .-CapSense_1_SetLowBaselineReset
 1356              		.section	.text.CapSense_1_CheckIsSensorActive,"ax",%progbits
 1357              		.align	2
 1358              		.global	CapSense_1_CheckIsSensorActive
 1359              		.code	16
 1360              		.thumb_func
 1361              		.type	CapSense_1_CheckIsSensorActive, %function
 1362              	CapSense_1_CheckIsSensorActive:
 1363              	.LFB54:
1035:.\Generated_Source\PSoC4/CapSense_1_CSHL.c **** #endif /* (CapSense_1_TUNING_METHOD != CapSense_1__TUNING_NONE) */
1036:.\Generated_Source\PSoC4/CapSense_1_CSHL.c **** 
1037:.\Generated_Source\PSoC4/CapSense_1_CSHL.c **** 
1038:.\Generated_Source\PSoC4/CapSense_1_CSHL.c **** /*******************************************************************************
1039:.\Generated_Source\PSoC4/CapSense_1_CSHL.c **** * Function Name: CapSense_1_CheckIsSensorActive
1040:.\Generated_Source\PSoC4/CapSense_1_CSHL.c **** ********************************************************************************
1041:.\Generated_Source\PSoC4/CapSense_1_CSHL.c **** *
1042:.\Generated_Source\PSoC4/CapSense_1_CSHL.c **** * Summary:
1043:.\Generated_Source\PSoC4/CapSense_1_CSHL.c **** *  Compares the CapSense_1_sensorSignal[sensor] array element to the finger
1044:.\Generated_Source\PSoC4/CapSense_1_CSHL.c **** *  threshold of the widget it belongs to. The hysteresis and debounce are taken into 
1045:.\Generated_Source\PSoC4/CapSense_1_CSHL.c **** *  account. The hysteresis is added or subtracted from the finger threshold 
1046:.\Generated_Source\PSoC4/CapSense_1_CSHL.c **** *  based on whether the sensor is currently active. 
1047:.\Generated_Source\PSoC4/CapSense_1_CSHL.c **** *  If the sensor is active, the threshold is lowered by the hysteresis amount.
1048:.\Generated_Source\PSoC4/CapSense_1_CSHL.c **** *  If the sensor is inactive, the threshold is raised by the hysteresis amount.
1049:.\Generated_Source\PSoC4/CapSense_1_CSHL.c **** *  The debounce counter is added to the sensor active transition.
1050:.\Generated_Source\PSoC4/CapSense_1_CSHL.c **** *  This function updates the CapSense_1_sensorOnMask[] array element.
1051:.\Generated_Source\PSoC4/CapSense_1_CSHL.c **** *
1052:.\Generated_Source\PSoC4/CapSense_1_CSHL.c **** * Parameters:
1053:.\Generated_Source\PSoC4/CapSense_1_CSHL.c **** *  sensor:  Sensor number.
1054:.\Generated_Source\PSoC4/CapSense_1_CSHL.c **** *
1055:.\Generated_Source\PSoC4/CapSense_1_CSHL.c **** * Return:
1056:.\Generated_Source\PSoC4/CapSense_1_CSHL.c **** *  Returns sensor state 1 if active, 0 if not active.
1057:.\Generated_Source\PSoC4/CapSense_1_CSHL.c **** *
1058:.\Generated_Source\PSoC4/CapSense_1_CSHL.c **** * Global Variables:
1059:.\Generated_Source\PSoC4/CapSense_1_CSHL.c **** *  CapSense_1_sensorSignal[] - used to store the difference between 
1060:.\Generated_Source\PSoC4/CapSense_1_CSHL.c **** *  the current value of raw data and a previous value of the baseline.
1061:.\Generated_Source\PSoC4/CapSense_1_CSHL.c **** *  CapSense_1_debounceCounter[]   - used to store the current debounce 
1062:.\Generated_Source\PSoC4/CapSense_1_CSHL.c **** *  counter of the sensor. the widget which have this parameter are buttons, matrix 
1063:.\Generated_Source\PSoC4/CapSense_1_CSHL.c **** *  buttons, proximity, and guard. All other widgets don't have the  debounce parameter
1064:.\Generated_Source\PSoC4/CapSense_1_CSHL.c **** *  and use the last element of this array with value 0 (it means no debounce).
1065:.\Generated_Source\PSoC4/CapSense_1_CSHL.c **** *  CapSense_1_sensorOnMask[] - used to store the sensors on/off state.
1066:.\Generated_Source\PSoC4/CapSense_1_CSHL.c **** *  CapSense_1_sensorOnMask[0] contains the masked bits for sensors 
1067:.\Generated_Source\PSoC4/CapSense_1_CSHL.c **** *   0 through 7 (sensor 0 is bit 0, sensor 1 is bit 1).
1068:.\Generated_Source\PSoC4/CapSense_1_CSHL.c **** *  CapSense_1_sensorEnableMask[1] contains the masked bits for 
1069:.\Generated_Source\PSoC4/CapSense_1_CSHL.c **** *  sensors 8 through 15 (if needed), and so on.
1070:.\Generated_Source\PSoC4/CapSense_1_CSHL.c **** *  0 - sensor is inactive.
1071:.\Generated_Source\PSoC4/CapSense_1_CSHL.c **** *  1 - sensor is active.
1072:.\Generated_Source\PSoC4/CapSense_1_CSHL.c **** * 
1073:.\Generated_Source\PSoC4/CapSense_1_CSHL.c **** * Side Effects:
1074:.\Generated_Source\PSoC4/CapSense_1_CSHL.c **** *  None
1075:.\Generated_Source\PSoC4/CapSense_1_CSHL.c **** *
1076:.\Generated_Source\PSoC4/CapSense_1_CSHL.c **** *******************************************************************************/
1077:.\Generated_Source\PSoC4/CapSense_1_CSHL.c **** uint32 CapSense_1_CheckIsSensorActive(uint32 sensor)
ARM GAS  C:\Users\Jakob\AppData\Local\Temp\cc5GwTcI.s 			page 44


1078:.\Generated_Source\PSoC4/CapSense_1_CSHL.c **** {	
 1364              		.loc 1 1078 0
 1365              		.cfi_startproc
 1366 0000 80B5     		push	{r7, lr}
 1367              	.LCFI63:
 1368              		.cfi_def_cfa_offset 8
 1369              		.cfi_offset 7, -8
 1370              		.cfi_offset 14, -4
 1371 0002 84B0     		sub	sp, sp, #16
 1372              	.LCFI64:
 1373              		.cfi_def_cfa_offset 24
 1374 0004 00AF     		add	r7, sp, #0
 1375              	.LCFI65:
 1376              		.cfi_def_cfa_register 7
 1377 0006 7860     		str	r0, [r7, #4]
1079:.\Generated_Source\PSoC4/CapSense_1_CSHL.c **** 	uint8 widget;
1080:.\Generated_Source\PSoC4/CapSense_1_CSHL.c **** 	uint8 debounce;
1081:.\Generated_Source\PSoC4/CapSense_1_CSHL.c **** 	uint8 debounceIndex;
1082:.\Generated_Source\PSoC4/CapSense_1_CSHL.c ****     
1083:.\Generated_Source\PSoC4/CapSense_1_CSHL.c **** 	uint8 fingerThreshold;
1084:.\Generated_Source\PSoC4/CapSense_1_CSHL.c **** 	uint8 hysteresis;
1085:.\Generated_Source\PSoC4/CapSense_1_CSHL.c **** 	
1086:.\Generated_Source\PSoC4/CapSense_1_CSHL.c ****     /* Prepare to find debounce counter index */
1087:.\Generated_Source\PSoC4/CapSense_1_CSHL.c ****     widget = CapSense_1_widgetNumber[sensor];
 1378              		.loc 1 1087 0
 1379 0008 3B1C     		mov	r3, r7
 1380 000a 0F33     		add	r3, r3, #15
 1381 000c 4349     		ldr	r1, .L92
 1382 000e 7A68     		ldr	r2, [r7, #4]
 1383 0010 8A18     		add	r2, r1, r2
 1384 0012 1278     		ldrb	r2, [r2]
 1385 0014 1A70     		strb	r2, [r3]
1088:.\Generated_Source\PSoC4/CapSense_1_CSHL.c **** 	
1089:.\Generated_Source\PSoC4/CapSense_1_CSHL.c ****     fingerThreshold = CapSense_1_fingerThreshold[widget];
 1386              		.loc 1 1089 0
 1387 0016 3B1C     		mov	r3, r7
 1388 0018 0F33     		add	r3, r3, #15
 1389 001a 1A78     		ldrb	r2, [r3]
 1390 001c 3B1C     		mov	r3, r7
 1391 001e 0E33     		add	r3, r3, #14
 1392 0020 3F49     		ldr	r1, .L92+4
 1393 0022 8A5C     		ldrb	r2, [r1, r2]
 1394 0024 1A70     		strb	r2, [r3]
1090:.\Generated_Source\PSoC4/CapSense_1_CSHL.c **** 	hysteresis = CapSense_1_hysteresis[widget];
 1395              		.loc 1 1090 0
 1396 0026 3B1C     		mov	r3, r7
 1397 0028 0F33     		add	r3, r3, #15
 1398 002a 1A78     		ldrb	r2, [r3]
 1399 002c 3B1C     		mov	r3, r7
 1400 002e 0D33     		add	r3, r3, #13
 1401 0030 3C49     		ldr	r1, .L92+8
 1402 0032 8A5C     		ldrb	r2, [r1, r2]
 1403 0034 1A70     		strb	r2, [r3]
1091:.\Generated_Source\PSoC4/CapSense_1_CSHL.c **** 	debounce = CapSense_1_debounce[widget];	
 1404              		.loc 1 1091 0
 1405 0036 3B1C     		mov	r3, r7
 1406 0038 0F33     		add	r3, r3, #15
ARM GAS  C:\Users\Jakob\AppData\Local\Temp\cc5GwTcI.s 			page 45


 1407 003a 1A78     		ldrb	r2, [r3]
 1408 003c 3B1C     		mov	r3, r7
 1409 003e 0C33     		add	r3, r3, #12
 1410 0040 3949     		ldr	r1, .L92+12
 1411 0042 8A5C     		ldrb	r2, [r1, r2]
 1412 0044 1A70     		strb	r2, [r3]
1092:.\Generated_Source\PSoC4/CapSense_1_CSHL.c **** 	
1093:.\Generated_Source\PSoC4/CapSense_1_CSHL.c **** 	    debounceIndex = widget;
 1413              		.loc 1 1093 0
 1414 0046 3B1C     		mov	r3, r7
 1415 0048 0B33     		add	r3, r3, #11
 1416 004a 3A1C     		mov	r2, r7
 1417 004c 0F32     		add	r2, r2, #15
 1418 004e 1278     		ldrb	r2, [r2]
 1419 0050 1A70     		strb	r2, [r3]
1094:.\Generated_Source\PSoC4/CapSense_1_CSHL.c **** 
1095:.\Generated_Source\PSoC4/CapSense_1_CSHL.c **** 	
1096:.\Generated_Source\PSoC4/CapSense_1_CSHL.c ****     /* Was on */
1097:.\Generated_Source\PSoC4/CapSense_1_CSHL.c ****     if (0u != CapSense_1_GetBitValue(CapSense_1_sensorOnMask, sensor))
 1420              		.loc 1 1097 0
 1421 0052 364A     		ldr	r2, .L92+16
 1422 0054 7B68     		ldr	r3, [r7, #4]
 1423 0056 101C     		mov	r0, r2
 1424 0058 191C     		mov	r1, r3
 1425 005a FFF7FEFF 		bl	CapSense_1_GetBitValue
 1426 005e 031C     		mov	r3, r0
 1427 0060 002B     		cmp	r3, #0
 1428 0062 1DD0     		beq	.L86
1098:.\Generated_Source\PSoC4/CapSense_1_CSHL.c ****     {
1099:.\Generated_Source\PSoC4/CapSense_1_CSHL.c ****         /* Hysteresis minus */
1100:.\Generated_Source\PSoC4/CapSense_1_CSHL.c ****         if (CapSense_1_sensorSignal[sensor] < (fingerThreshold - hysteresis))
 1429              		.loc 1 1100 0
 1430 0064 324A     		ldr	r2, .L92+20
 1431 0066 7B68     		ldr	r3, [r7, #4]
 1432 0068 D318     		add	r3, r2, r3
 1433 006a 1B78     		ldrb	r3, [r3]
 1434 006c 1A1C     		mov	r2, r3
 1435 006e 3B1C     		mov	r3, r7
 1436 0070 0E33     		add	r3, r3, #14
 1437 0072 1978     		ldrb	r1, [r3]
 1438 0074 3B1C     		mov	r3, r7
 1439 0076 0D33     		add	r3, r3, #13
 1440 0078 1B78     		ldrb	r3, [r3]
 1441 007a CB1A     		sub	r3, r1, r3
 1442 007c 9A42     		cmp	r2, r3
 1443 007e 3DDA     		bge	.L87
1101:.\Generated_Source\PSoC4/CapSense_1_CSHL.c ****         {
1102:.\Generated_Source\PSoC4/CapSense_1_CSHL.c **** 	   		CapSense_1_SetBitValue(CapSense_1_sensorOnMask, sensor, 0u);
 1444              		.loc 1 1102 0
 1445 0080 2A4A     		ldr	r2, .L92+16
 1446 0082 7B68     		ldr	r3, [r7, #4]
 1447 0084 101C     		mov	r0, r2
 1448 0086 191C     		mov	r1, r3
 1449 0088 0022     		mov	r2, #0
 1450 008a FFF7FEFF 		bl	CapSense_1_SetBitValue
1103:.\Generated_Source\PSoC4/CapSense_1_CSHL.c **** 			/* Sensor inactive - reset Debounce counter */
1104:.\Generated_Source\PSoC4/CapSense_1_CSHL.c ****             CapSense_1_debounceCounter[debounceIndex] = debounce;
ARM GAS  C:\Users\Jakob\AppData\Local\Temp\cc5GwTcI.s 			page 46


 1451              		.loc 1 1104 0
 1452 008e 3B1C     		mov	r3, r7
 1453 0090 0B33     		add	r3, r3, #11
 1454 0092 1B78     		ldrb	r3, [r3]
 1455 0094 274A     		ldr	r2, .L92+24
 1456 0096 391C     		mov	r1, r7
 1457 0098 0C31     		add	r1, r1, #12
 1458 009a 0978     		ldrb	r1, [r1]
 1459 009c D154     		strb	r1, [r2, r3]
 1460 009e 2DE0     		b	.L87
 1461              	.L86:
1105:.\Generated_Source\PSoC4/CapSense_1_CSHL.c ****         }
1106:.\Generated_Source\PSoC4/CapSense_1_CSHL.c ****     }
1107:.\Generated_Source\PSoC4/CapSense_1_CSHL.c ****     else    /* Was off */
1108:.\Generated_Source\PSoC4/CapSense_1_CSHL.c ****     {
1109:.\Generated_Source\PSoC4/CapSense_1_CSHL.c ****         /* Hysteresis plus */
1110:.\Generated_Source\PSoC4/CapSense_1_CSHL.c ****         if (CapSense_1_sensorSignal[sensor] >= (fingerThreshold + hysteresis))
 1462              		.loc 1 1110 0
 1463 00a0 234A     		ldr	r2, .L92+20
 1464 00a2 7B68     		ldr	r3, [r7, #4]
 1465 00a4 D318     		add	r3, r2, r3
 1466 00a6 1B78     		ldrb	r3, [r3]
 1467 00a8 1A1C     		mov	r2, r3
 1468 00aa 3B1C     		mov	r3, r7
 1469 00ac 0E33     		add	r3, r3, #14
 1470 00ae 1978     		ldrb	r1, [r3]
 1471 00b0 3B1C     		mov	r3, r7
 1472 00b2 0D33     		add	r3, r3, #13
 1473 00b4 1B78     		ldrb	r3, [r3]
 1474 00b6 CB18     		add	r3, r1, r3
 1475 00b8 9A42     		cmp	r2, r3
 1476 00ba 17DB     		blt	.L88
1111:.\Generated_Source\PSoC4/CapSense_1_CSHL.c ****         {
1112:.\Generated_Source\PSoC4/CapSense_1_CSHL.c **** 			CapSense_1_debounceCounter[debounceIndex]--;
 1477              		.loc 1 1112 0
 1478 00bc 3B1C     		mov	r3, r7
 1479 00be 0B33     		add	r3, r3, #11
 1480 00c0 1B78     		ldrb	r3, [r3]
 1481 00c2 1C4A     		ldr	r2, .L92+24
 1482 00c4 D25C     		ldrb	r2, [r2, r3]
 1483 00c6 013A     		sub	r2, r2, #1
 1484 00c8 D1B2     		uxtb	r1, r2
 1485 00ca 1A4A     		ldr	r2, .L92+24
 1486 00cc D154     		strb	r1, [r2, r3]
1113:.\Generated_Source\PSoC4/CapSense_1_CSHL.c ****             /* Sensor active, decrement debounce counter */
1114:.\Generated_Source\PSoC4/CapSense_1_CSHL.c ****             if(CapSense_1_debounceCounter[debounceIndex] == 0u)
 1487              		.loc 1 1114 0
 1488 00ce 3B1C     		mov	r3, r7
 1489 00d0 0B33     		add	r3, r3, #11
 1490 00d2 1B78     		ldrb	r3, [r3]
 1491 00d4 174A     		ldr	r2, .L92+24
 1492 00d6 D35C     		ldrb	r3, [r2, r3]
 1493 00d8 002B     		cmp	r3, #0
 1494 00da 0FD1     		bne	.L87
1115:.\Generated_Source\PSoC4/CapSense_1_CSHL.c ****             {
1116:.\Generated_Source\PSoC4/CapSense_1_CSHL.c ****                 CapSense_1_SetBitValue(CapSense_1_sensorOnMask, sensor, 1u); 
 1495              		.loc 1 1116 0
ARM GAS  C:\Users\Jakob\AppData\Local\Temp\cc5GwTcI.s 			page 47


 1496 00dc 134A     		ldr	r2, .L92+16
 1497 00de 7B68     		ldr	r3, [r7, #4]
 1498 00e0 101C     		mov	r0, r2
 1499 00e2 191C     		mov	r1, r3
 1500 00e4 0122     		mov	r2, #1
 1501 00e6 FFF7FEFF 		bl	CapSense_1_SetBitValue
 1502 00ea 07E0     		b	.L87
 1503              	.L88:
1117:.\Generated_Source\PSoC4/CapSense_1_CSHL.c ****             }
1118:.\Generated_Source\PSoC4/CapSense_1_CSHL.c ****         }
1119:.\Generated_Source\PSoC4/CapSense_1_CSHL.c ****         else
1120:.\Generated_Source\PSoC4/CapSense_1_CSHL.c ****         {
1121:.\Generated_Source\PSoC4/CapSense_1_CSHL.c ****             /* Sensor inactive - reset Debounce counter */
1122:.\Generated_Source\PSoC4/CapSense_1_CSHL.c ****             CapSense_1_debounceCounter[debounceIndex] = debounce;
 1504              		.loc 1 1122 0
 1505 00ec 3B1C     		mov	r3, r7
 1506 00ee 0B33     		add	r3, r3, #11
 1507 00f0 1B78     		ldrb	r3, [r3]
 1508 00f2 104A     		ldr	r2, .L92+24
 1509 00f4 391C     		mov	r1, r7
 1510 00f6 0C31     		add	r1, r1, #12
 1511 00f8 0978     		ldrb	r1, [r1]
 1512 00fa D154     		strb	r1, [r2, r3]
 1513              	.L87:
1123:.\Generated_Source\PSoC4/CapSense_1_CSHL.c ****         }
1124:.\Generated_Source\PSoC4/CapSense_1_CSHL.c ****     }
1125:.\Generated_Source\PSoC4/CapSense_1_CSHL.c ****     
1126:.\Generated_Source\PSoC4/CapSense_1_CSHL.c ****     return ((uint32)((0u != CapSense_1_GetBitValue(CapSense_1_sensorOnMask, sensor)) ? 1u : 0u));
 1514              		.loc 1 1126 0
 1515 00fc 0B4A     		ldr	r2, .L92+16
 1516 00fe 7B68     		ldr	r3, [r7, #4]
 1517 0100 101C     		mov	r0, r2
 1518 0102 191C     		mov	r1, r3
 1519 0104 FFF7FEFF 		bl	CapSense_1_GetBitValue
 1520 0108 031C     		mov	r3, r0
 1521 010a 002B     		cmp	r3, #0
 1522 010c 01D0     		beq	.L89
 1523              		.loc 1 1126 0 is_stmt 0 discriminator 1
 1524 010e 0123     		mov	r3, #1
 1525 0110 00E0     		b	.L90
 1526              	.L89:
 1527              		.loc 1 1126 0 discriminator 2
 1528 0112 0023     		mov	r3, #0
 1529              	.L90:
1127:.\Generated_Source\PSoC4/CapSense_1_CSHL.c **** }
 1530              		.loc 1 1127 0 is_stmt 1 discriminator 3
 1531 0114 181C     		mov	r0, r3
 1532 0116 BD46     		mov	sp, r7
 1533 0118 04B0     		add	sp, sp, #16
 1534              		@ sp needed for prologue
 1535 011a 80BD     		pop	{r7, pc}
 1536              	.L93:
 1537              		.align	2
 1538              	.L92:
 1539 011c 00000000 		.word	CapSense_1_widgetNumber
 1540 0120 00000000 		.word	CapSense_1_fingerThreshold
 1541 0124 00000000 		.word	CapSense_1_hysteresis
ARM GAS  C:\Users\Jakob\AppData\Local\Temp\cc5GwTcI.s 			page 48


 1542 0128 00000000 		.word	CapSense_1_debounce
 1543 012c 00000000 		.word	CapSense_1_sensorOnMask
 1544 0130 00000000 		.word	CapSense_1_sensorSignal
 1545 0134 10000000 		.word	CapSense_1_debounceCounter
 1546              		.cfi_endproc
 1547              	.LFE54:
 1548              		.size	CapSense_1_CheckIsSensorActive, .-CapSense_1_CheckIsSensorActive
 1549              		.section	.text.CapSense_1_CheckIsWidgetActive,"ax",%progbits
 1550              		.align	2
 1551              		.global	CapSense_1_CheckIsWidgetActive
 1552              		.code	16
 1553              		.thumb_func
 1554              		.type	CapSense_1_CheckIsWidgetActive, %function
 1555              	CapSense_1_CheckIsWidgetActive:
 1556              	.LFB55:
1128:.\Generated_Source\PSoC4/CapSense_1_CSHL.c **** 
1129:.\Generated_Source\PSoC4/CapSense_1_CSHL.c **** 
1130:.\Generated_Source\PSoC4/CapSense_1_CSHL.c **** /*******************************************************************************
1131:.\Generated_Source\PSoC4/CapSense_1_CSHL.c **** * Function Name: CapSense_1_CheckIsWidgetActive
1132:.\Generated_Source\PSoC4/CapSense_1_CSHL.c **** ********************************************************************************
1133:.\Generated_Source\PSoC4/CapSense_1_CSHL.c **** *
1134:.\Generated_Source\PSoC4/CapSense_1_CSHL.c **** * Summary:
1135:.\Generated_Source\PSoC4/CapSense_1_CSHL.c **** *  Compares the CapSense_sensorSignal[] array element to the finger threshold of 
1136:.\Generated_Source\PSoC4/CapSense_1_CSHL.c **** * the widget it belongs to. The hysteresis and debounce are taken into account. 
1137:.\Generated_Source\PSoC4/CapSense_1_CSHL.c **** * The hysteresis is added or subtracted from the finger threshold based on whether
1138:.\Generated_Source\PSoC4/CapSense_1_CSHL.c **** *  the sensor is currently active. If the sensor is active, the threshold is 
1139:.\Generated_Source\PSoC4/CapSense_1_CSHL.c **** *  lowered by the hysteresis amount. If the sensor is inactive, the threshold 
1140:.\Generated_Source\PSoC4/CapSense_1_CSHL.c **** *  is raised by the hysteresis amount. 
1141:.\Generated_Source\PSoC4/CapSense_1_CSHL.c **** * The debounce counter added to the sensor active transition. 
1142:.\Generated_Source\PSoC4/CapSense_1_CSHL.c **** * This function updates CapSense_sensorOnMask[] array element
1143:.\Generated_Source\PSoC4/CapSense_1_CSHL.c **** *
1144:.\Generated_Source\PSoC4/CapSense_1_CSHL.c **** * Parameters:
1145:.\Generated_Source\PSoC4/CapSense_1_CSHL.c **** *  widget:  widget number.
1146:.\Generated_Source\PSoC4/CapSense_1_CSHL.c **** *
1147:.\Generated_Source\PSoC4/CapSense_1_CSHL.c **** * Return:
1148:.\Generated_Source\PSoC4/CapSense_1_CSHL.c **** *  Returns widget sensor state 1 if one or more sensors within widget is/are 
1149:.\Generated_Source\PSoC4/CapSense_1_CSHL.c **** *  active, 0 if all sensors within widget are inactive.
1150:.\Generated_Source\PSoC4/CapSense_1_CSHL.c **** *
1151:.\Generated_Source\PSoC4/CapSense_1_CSHL.c **** * Global Variables:
1152:.\Generated_Source\PSoC4/CapSense_1_CSHL.c **** *  rawDataIndex[]  Contains the  1st sensor position in the widget
1153:.\Generated_Source\PSoC4/CapSense_1_CSHL.c **** * 
1154:.\Generated_Source\PSoC4/CapSense_1_CSHL.c **** * Side Effects:
1155:.\Generated_Source\PSoC4/CapSense_1_CSHL.c **** *  None
1156:.\Generated_Source\PSoC4/CapSense_1_CSHL.c **** *
1157:.\Generated_Source\PSoC4/CapSense_1_CSHL.c **** *******************************************************************************/
1158:.\Generated_Source\PSoC4/CapSense_1_CSHL.c **** uint32 CapSense_1_CheckIsWidgetActive(uint32 widget)
1159:.\Generated_Source\PSoC4/CapSense_1_CSHL.c **** {
 1557              		.loc 1 1159 0
 1558              		.cfi_startproc
 1559 0000 80B5     		push	{r7, lr}
 1560              	.LCFI66:
 1561              		.cfi_def_cfa_offset 8
 1562              		.cfi_offset 7, -8
 1563              		.cfi_offset 14, -4
 1564 0002 86B0     		sub	sp, sp, #24
 1565              	.LCFI67:
 1566              		.cfi_def_cfa_offset 32
ARM GAS  C:\Users\Jakob\AppData\Local\Temp\cc5GwTcI.s 			page 49


 1567 0004 00AF     		add	r7, sp, #0
 1568              	.LCFI68:
 1569              		.cfi_def_cfa_register 7
 1570 0006 7860     		str	r0, [r7, #4]
1160:.\Generated_Source\PSoC4/CapSense_1_CSHL.c ****     uint32 rawIndex = (uint32)CapSense_1_rawDataIndex[widget];
 1571              		.loc 1 1160 0
 1572 0008 114A     		ldr	r2, .L98
 1573 000a 7B68     		ldr	r3, [r7, #4]
 1574 000c D318     		add	r3, r2, r3
 1575 000e 1B78     		ldrb	r3, [r3]
 1576 0010 7B61     		str	r3, [r7, #20]
1161:.\Generated_Source\PSoC4/CapSense_1_CSHL.c ****     uint32 numOfSensors = (uint32)CapSense_1_numberOfSensors[widget] + rawIndex;
 1577              		.loc 1 1161 0
 1578 0012 104A     		ldr	r2, .L98+4
 1579 0014 7B68     		ldr	r3, [r7, #4]
 1580 0016 D318     		add	r3, r2, r3
 1581 0018 1B78     		ldrb	r3, [r3]
 1582 001a 1A1C     		mov	r2, r3
 1583 001c 7B69     		ldr	r3, [r7, #20]
 1584 001e D318     		add	r3, r2, r3
 1585 0020 FB60     		str	r3, [r7, #12]
1162:.\Generated_Source\PSoC4/CapSense_1_CSHL.c ****     uint32 state = 0u;
 1586              		.loc 1 1162 0
 1587 0022 0023     		mov	r3, #0
 1588 0024 3B61     		str	r3, [r7, #16]
 1589              	.L96:
1163:.\Generated_Source\PSoC4/CapSense_1_CSHL.c **** 
1164:.\Generated_Source\PSoC4/CapSense_1_CSHL.c ****     /* Check all sensors of widget */
1165:.\Generated_Source\PSoC4/CapSense_1_CSHL.c ****     do
1166:.\Generated_Source\PSoC4/CapSense_1_CSHL.c ****     {
1167:.\Generated_Source\PSoC4/CapSense_1_CSHL.c ****         if(CapSense_1_CheckIsSensorActive((uint32)rawIndex) != 0u)
 1590              		.loc 1 1167 0
 1591 0026 7B69     		ldr	r3, [r7, #20]
 1592 0028 181C     		mov	r0, r3
 1593 002a FFF7FEFF 		bl	CapSense_1_CheckIsSensorActive
 1594 002e 031C     		mov	r3, r0
 1595 0030 002B     		cmp	r3, #0
 1596 0032 01D0     		beq	.L95
1168:.\Generated_Source\PSoC4/CapSense_1_CSHL.c ****         {
1169:.\Generated_Source\PSoC4/CapSense_1_CSHL.c ****             state = CapSense_1_SENSOR_IS_ACTIVE;
 1597              		.loc 1 1169 0
 1598 0034 0123     		mov	r3, #1
 1599 0036 3B61     		str	r3, [r7, #16]
 1600              	.L95:
1170:.\Generated_Source\PSoC4/CapSense_1_CSHL.c ****         }
1171:.\Generated_Source\PSoC4/CapSense_1_CSHL.c ****         rawIndex++;
 1601              		.loc 1 1171 0
 1602 0038 7B69     		ldr	r3, [r7, #20]
 1603 003a 0133     		add	r3, r3, #1
 1604 003c 7B61     		str	r3, [r7, #20]
1172:.\Generated_Source\PSoC4/CapSense_1_CSHL.c ****     }
1173:.\Generated_Source\PSoC4/CapSense_1_CSHL.c ****     while(rawIndex < numOfSensors);
 1605              		.loc 1 1173 0
 1606 003e 7A69     		ldr	r2, [r7, #20]
 1607 0040 FB68     		ldr	r3, [r7, #12]
 1608 0042 9A42     		cmp	r2, r3
 1609 0044 EFD3     		bcc	.L96
ARM GAS  C:\Users\Jakob\AppData\Local\Temp\cc5GwTcI.s 			page 50


1174:.\Generated_Source\PSoC4/CapSense_1_CSHL.c ****     
1175:.\Generated_Source\PSoC4/CapSense_1_CSHL.c **** 
1176:.\Generated_Source\PSoC4/CapSense_1_CSHL.c ****     
1177:.\Generated_Source\PSoC4/CapSense_1_CSHL.c ****     return state;
 1610              		.loc 1 1177 0
 1611 0046 3B69     		ldr	r3, [r7, #16]
1178:.\Generated_Source\PSoC4/CapSense_1_CSHL.c **** }
 1612              		.loc 1 1178 0
 1613 0048 181C     		mov	r0, r3
 1614 004a BD46     		mov	sp, r7
 1615 004c 06B0     		add	sp, sp, #24
 1616              		@ sp needed for prologue
 1617 004e 80BD     		pop	{r7, pc}
 1618              	.L99:
 1619              		.align	2
 1620              	.L98:
 1621 0050 00000000 		.word	CapSense_1_rawDataIndex
 1622 0054 00000000 		.word	CapSense_1_numberOfSensors
 1623              		.cfi_endproc
 1624              	.LFE55:
 1625              		.size	CapSense_1_CheckIsWidgetActive, .-CapSense_1_CheckIsWidgetActive
 1626              		.section	.text.CapSense_1_CheckIsAnyWidgetActive,"ax",%progbits
 1627              		.align	2
 1628              		.global	CapSense_1_CheckIsAnyWidgetActive
 1629              		.code	16
 1630              		.thumb_func
 1631              		.type	CapSense_1_CheckIsAnyWidgetActive, %function
 1632              	CapSense_1_CheckIsAnyWidgetActive:
 1633              	.LFB56:
1179:.\Generated_Source\PSoC4/CapSense_1_CSHL.c **** 
1180:.\Generated_Source\PSoC4/CapSense_1_CSHL.c **** 
1181:.\Generated_Source\PSoC4/CapSense_1_CSHL.c **** /*******************************************************************************
1182:.\Generated_Source\PSoC4/CapSense_1_CSHL.c **** * Function Name: CapSense_1_CheckIsAnyWidgetActive
1183:.\Generated_Source\PSoC4/CapSense_1_CSHL.c **** ********************************************************************************
1184:.\Generated_Source\PSoC4/CapSense_1_CSHL.c **** *
1185:.\Generated_Source\PSoC4/CapSense_1_CSHL.c **** * Summary:
1186:.\Generated_Source\PSoC4/CapSense_1_CSHL.c **** *  Compares all the sensors of the CapSense_1_Signal[] array to their finger 
1187:.\Generated_Source\PSoC4/CapSense_1_CSHL.c **** *  threshold. Calls CapSense_1_CheckIsWidgetActive() for each widget so 
1188:.\Generated_Source\PSoC4/CapSense_1_CSHL.c **** *  the CapSense_1_sensorOnMask[] array is up to date after calling this 
1189:.\Generated_Source\PSoC4/CapSense_1_CSHL.c **** *  function.
1190:.\Generated_Source\PSoC4/CapSense_1_CSHL.c **** *
1191:.\Generated_Source\PSoC4/CapSense_1_CSHL.c **** * Parameters:
1192:.\Generated_Source\PSoC4/CapSense_1_CSHL.c **** *  widget:  widget number.
1193:.\Generated_Source\PSoC4/CapSense_1_CSHL.c **** *
1194:.\Generated_Source\PSoC4/CapSense_1_CSHL.c **** * Return:
1195:.\Generated_Source\PSoC4/CapSense_1_CSHL.c **** *  Returns 1 if any widget is active, 0 none of widgets are active.
1196:.\Generated_Source\PSoC4/CapSense_1_CSHL.c **** *
1197:.\Generated_Source\PSoC4/CapSense_1_CSHL.c **** * Global Variables:
1198:.\Generated_Source\PSoC4/CapSense_1_CSHL.c **** *  None
1199:.\Generated_Source\PSoC4/CapSense_1_CSHL.c **** * 
1200:.\Generated_Source\PSoC4/CapSense_1_CSHL.c **** * Side Effects:
1201:.\Generated_Source\PSoC4/CapSense_1_CSHL.c **** *  None
1202:.\Generated_Source\PSoC4/CapSense_1_CSHL.c **** *
1203:.\Generated_Source\PSoC4/CapSense_1_CSHL.c **** *******************************************************************************/
1204:.\Generated_Source\PSoC4/CapSense_1_CSHL.c **** uint32 CapSense_1_CheckIsAnyWidgetActive(void)
1205:.\Generated_Source\PSoC4/CapSense_1_CSHL.c **** {
 1634              		.loc 1 1205 0
ARM GAS  C:\Users\Jakob\AppData\Local\Temp\cc5GwTcI.s 			page 51


 1635              		.cfi_startproc
 1636 0000 80B5     		push	{r7, lr}
 1637              	.LCFI69:
 1638              		.cfi_def_cfa_offset 8
 1639              		.cfi_offset 7, -8
 1640              		.cfi_offset 14, -4
 1641 0002 82B0     		sub	sp, sp, #8
 1642              	.LCFI70:
 1643              		.cfi_def_cfa_offset 16
 1644 0004 00AF     		add	r7, sp, #0
 1645              	.LCFI71:
 1646              		.cfi_def_cfa_register 7
1206:.\Generated_Source\PSoC4/CapSense_1_CSHL.c **** 
1207:.\Generated_Source\PSoC4/CapSense_1_CSHL.c **** 	    uint32 i;
1208:.\Generated_Source\PSoC4/CapSense_1_CSHL.c ****     uint32 state = 0u;
 1647              		.loc 1 1208 0
 1648 0006 0023     		mov	r3, #0
 1649 0008 3B60     		str	r3, [r7]
1209:.\Generated_Source\PSoC4/CapSense_1_CSHL.c ****     
1210:.\Generated_Source\PSoC4/CapSense_1_CSHL.c ****     for(i = 0u; i < CapSense_1_TOTAL_WIDGET_COUNT; i++)
 1650              		.loc 1 1210 0
 1651 000a 0023     		mov	r3, #0
 1652 000c 7B60     		str	r3, [r7, #4]
 1653 000e 0BE0     		b	.L101
 1654              	.L103:
1211:.\Generated_Source\PSoC4/CapSense_1_CSHL.c ****     {
1212:.\Generated_Source\PSoC4/CapSense_1_CSHL.c ****         if (CapSense_1_CheckIsWidgetActive(i) != 0u)
 1655              		.loc 1 1212 0
 1656 0010 7B68     		ldr	r3, [r7, #4]
 1657 0012 181C     		mov	r0, r3
 1658 0014 FFF7FEFF 		bl	CapSense_1_CheckIsWidgetActive
 1659 0018 031C     		mov	r3, r0
 1660 001a 002B     		cmp	r3, #0
 1661 001c 01D0     		beq	.L102
1213:.\Generated_Source\PSoC4/CapSense_1_CSHL.c ****         {
1214:.\Generated_Source\PSoC4/CapSense_1_CSHL.c ****             state = CapSense_1_WIDGET_IS_ACTIVE;
 1662              		.loc 1 1214 0
 1663 001e 0123     		mov	r3, #1
 1664 0020 3B60     		str	r3, [r7]
 1665              	.L102:
1210:.\Generated_Source\PSoC4/CapSense_1_CSHL.c ****     for(i = 0u; i < CapSense_1_TOTAL_WIDGET_COUNT; i++)
 1666              		.loc 1 1210 0
 1667 0022 7B68     		ldr	r3, [r7, #4]
 1668 0024 0133     		add	r3, r3, #1
 1669 0026 7B60     		str	r3, [r7, #4]
 1670              	.L101:
1210:.\Generated_Source\PSoC4/CapSense_1_CSHL.c ****     for(i = 0u; i < CapSense_1_TOTAL_WIDGET_COUNT; i++)
 1671              		.loc 1 1210 0 is_stmt 0 discriminator 1
 1672 0028 7B68     		ldr	r3, [r7, #4]
 1673 002a 002B     		cmp	r3, #0
 1674 002c F0D0     		beq	.L103
1215:.\Generated_Source\PSoC4/CapSense_1_CSHL.c ****         }
1216:.\Generated_Source\PSoC4/CapSense_1_CSHL.c ****     }
1217:.\Generated_Source\PSoC4/CapSense_1_CSHL.c ****     
1218:.\Generated_Source\PSoC4/CapSense_1_CSHL.c **** 
1219:.\Generated_Source\PSoC4/CapSense_1_CSHL.c **** 
1220:.\Generated_Source\PSoC4/CapSense_1_CSHL.c ****     return state;
ARM GAS  C:\Users\Jakob\AppData\Local\Temp\cc5GwTcI.s 			page 52


 1675              		.loc 1 1220 0 is_stmt 1
 1676 002e 3B68     		ldr	r3, [r7]
1221:.\Generated_Source\PSoC4/CapSense_1_CSHL.c **** }
 1677              		.loc 1 1221 0
 1678 0030 181C     		mov	r0, r3
 1679 0032 BD46     		mov	sp, r7
 1680 0034 02B0     		add	sp, sp, #8
 1681              		@ sp needed for prologue
 1682 0036 80BD     		pop	{r7, pc}
 1683              		.cfi_endproc
 1684              	.LFE56:
 1685              		.size	CapSense_1_CheckIsAnyWidgetActive, .-CapSense_1_CheckIsAnyWidgetActive
 1686              		.section	.text.CapSense_1_EnableWidget,"ax",%progbits
 1687              		.align	2
 1688              		.global	CapSense_1_EnableWidget
 1689              		.code	16
 1690              		.thumb_func
 1691              		.type	CapSense_1_EnableWidget, %function
 1692              	CapSense_1_EnableWidget:
 1693              	.LFB57:
1222:.\Generated_Source\PSoC4/CapSense_1_CSHL.c **** 
1223:.\Generated_Source\PSoC4/CapSense_1_CSHL.c **** 
1224:.\Generated_Source\PSoC4/CapSense_1_CSHL.c **** /*******************************************************************************
1225:.\Generated_Source\PSoC4/CapSense_1_CSHL.c **** * Function Name: CapSense_1_EnableWidget
1226:.\Generated_Source\PSoC4/CapSense_1_CSHL.c **** ********************************************************************************
1227:.\Generated_Source\PSoC4/CapSense_1_CSHL.c **** *
1228:.\Generated_Source\PSoC4/CapSense_1_CSHL.c **** * Summary:
1229:.\Generated_Source\PSoC4/CapSense_1_CSHL.c **** *  Enables all the widget elements (sensors) to the scanning process.
1230:.\Generated_Source\PSoC4/CapSense_1_CSHL.c **** *
1231:.\Generated_Source\PSoC4/CapSense_1_CSHL.c **** * Parameters:
1232:.\Generated_Source\PSoC4/CapSense_1_CSHL.c **** *  widget:  widget number.
1233:.\Generated_Source\PSoC4/CapSense_1_CSHL.c **** *
1234:.\Generated_Source\PSoC4/CapSense_1_CSHL.c **** * Return:
1235:.\Generated_Source\PSoC4/CapSense_1_CSHL.c **** *  None
1236:.\Generated_Source\PSoC4/CapSense_1_CSHL.c **** *
1237:.\Generated_Source\PSoC4/CapSense_1_CSHL.c **** * Global Variables:
1238:.\Generated_Source\PSoC4/CapSense_1_CSHL.c **** *  CapSense_1_sensorEnableMask[] - used to store the sensor scanning 
1239:.\Generated_Source\PSoC4/CapSense_1_CSHL.c **** *  state.
1240:.\Generated_Source\PSoC4/CapSense_1_CSHL.c **** *  CapSense_1_sensorEnableMask[0] contains the masked bits for sensors 
1241:.\Generated_Source\PSoC4/CapSense_1_CSHL.c **** *  0 through 7 (sensor 0 is bit 0, sensor 1 is bit 1).
1242:.\Generated_Source\PSoC4/CapSense_1_CSHL.c **** *  CapSense_1_sensorEnableMask[1] contains the masked bits for 
1243:.\Generated_Source\PSoC4/CapSense_1_CSHL.c **** *  sensors 8 through 15 (if needed), and so on.
1244:.\Generated_Source\PSoC4/CapSense_1_CSHL.c **** *  0 - sensor doesn't scan by CapSense_1_ScanEnabledWidgets().
1245:.\Generated_Source\PSoC4/CapSense_1_CSHL.c **** *  1 - sensor scans by CapSense_1_ScanEnabledWidgets().
1246:.\Generated_Source\PSoC4/CapSense_1_CSHL.c **** * 
1247:.\Generated_Source\PSoC4/CapSense_1_CSHL.c **** * Side Effects:
1248:.\Generated_Source\PSoC4/CapSense_1_CSHL.c **** *  None
1249:.\Generated_Source\PSoC4/CapSense_1_CSHL.c **** *
1250:.\Generated_Source\PSoC4/CapSense_1_CSHL.c **** *******************************************************************************/
1251:.\Generated_Source\PSoC4/CapSense_1_CSHL.c **** void CapSense_1_EnableWidget(uint32 widget)
1252:.\Generated_Source\PSoC4/CapSense_1_CSHL.c **** {
 1694              		.loc 1 1252 0
 1695              		.cfi_startproc
 1696 0000 80B5     		push	{r7, lr}
 1697              	.LCFI72:
 1698              		.cfi_def_cfa_offset 8
 1699              		.cfi_offset 7, -8
ARM GAS  C:\Users\Jakob\AppData\Local\Temp\cc5GwTcI.s 			page 53


 1700              		.cfi_offset 14, -4
 1701 0002 84B0     		sub	sp, sp, #16
 1702              	.LCFI73:
 1703              		.cfi_def_cfa_offset 24
 1704 0004 00AF     		add	r7, sp, #0
 1705              	.LCFI74:
 1706              		.cfi_def_cfa_register 7
 1707 0006 7860     		str	r0, [r7, #4]
1253:.\Generated_Source\PSoC4/CapSense_1_CSHL.c **** 
1254:.\Generated_Source\PSoC4/CapSense_1_CSHL.c ****     uint8 rawIndex = CapSense_1_rawDataIndex[widget];
 1708              		.loc 1 1254 0
 1709 0008 3B1C     		mov	r3, r7
 1710 000a 0F33     		add	r3, r3, #15
 1711 000c 1549     		ldr	r1, .L107
 1712 000e 7A68     		ldr	r2, [r7, #4]
 1713 0010 8A18     		add	r2, r1, r2
 1714 0012 1278     		ldrb	r2, [r2]
 1715 0014 1A70     		strb	r2, [r3]
1255:.\Generated_Source\PSoC4/CapSense_1_CSHL.c ****     uint8 numOfSensors = CapSense_1_numberOfSensors[widget] + rawIndex;
 1716              		.loc 1 1255 0
 1717 0016 144A     		ldr	r2, .L107+4
 1718 0018 7B68     		ldr	r3, [r7, #4]
 1719 001a D318     		add	r3, r2, r3
 1720 001c 1978     		ldrb	r1, [r3]
 1721 001e 3B1C     		mov	r3, r7
 1722 0020 0E33     		add	r3, r3, #14
 1723 0022 3A1C     		mov	r2, r7
 1724 0024 0F32     		add	r2, r2, #15
 1725 0026 1278     		ldrb	r2, [r2]
 1726 0028 8A18     		add	r2, r1, r2
 1727 002a 1A70     		strb	r2, [r3]
 1728              	.L106:
1256:.\Generated_Source\PSoC4/CapSense_1_CSHL.c ****     
1257:.\Generated_Source\PSoC4/CapSense_1_CSHL.c ****     /* Enable all sensors of widget */
1258:.\Generated_Source\PSoC4/CapSense_1_CSHL.c ****     do
1259:.\Generated_Source\PSoC4/CapSense_1_CSHL.c ****     {
1260:.\Generated_Source\PSoC4/CapSense_1_CSHL.c ****         CapSense_1_SetBitValue(CapSense_1_sensorEnableMask, (uint32)rawIndex, 1u);
 1729              		.loc 1 1260 0 discriminator 1
 1730 002c 3B1C     		mov	r3, r7
 1731 002e 0F33     		add	r3, r3, #15
 1732 0030 1B78     		ldrb	r3, [r3]
 1733 0032 0E4A     		ldr	r2, .L107+8
 1734 0034 101C     		mov	r0, r2
 1735 0036 191C     		mov	r1, r3
 1736 0038 0122     		mov	r2, #1
 1737 003a FFF7FEFF 		bl	CapSense_1_SetBitValue
1261:.\Generated_Source\PSoC4/CapSense_1_CSHL.c ****         rawIndex++;
 1738              		.loc 1 1261 0 discriminator 1
 1739 003e 3B1C     		mov	r3, r7
 1740 0040 0F33     		add	r3, r3, #15
 1741 0042 3A1C     		mov	r2, r7
 1742 0044 0F32     		add	r2, r2, #15
 1743 0046 1278     		ldrb	r2, [r2]
 1744 0048 0132     		add	r2, r2, #1
 1745 004a 1A70     		strb	r2, [r3]
1262:.\Generated_Source\PSoC4/CapSense_1_CSHL.c ****     }
1263:.\Generated_Source\PSoC4/CapSense_1_CSHL.c ****     while(rawIndex < numOfSensors);
ARM GAS  C:\Users\Jakob\AppData\Local\Temp\cc5GwTcI.s 			page 54


 1746              		.loc 1 1263 0 discriminator 1
 1747 004c 3A1C     		mov	r2, r7
 1748 004e 0F32     		add	r2, r2, #15
 1749 0050 3B1C     		mov	r3, r7
 1750 0052 0E33     		add	r3, r3, #14
 1751 0054 1278     		ldrb	r2, [r2]
 1752 0056 1B78     		ldrb	r3, [r3]
 1753 0058 9A42     		cmp	r2, r3
 1754 005a E7D3     		bcc	.L106
1264:.\Generated_Source\PSoC4/CapSense_1_CSHL.c **** }
 1755              		.loc 1 1264 0
 1756 005c BD46     		mov	sp, r7
 1757 005e 04B0     		add	sp, sp, #16
 1758              		@ sp needed for prologue
 1759 0060 80BD     		pop	{r7, pc}
 1760              	.L108:
 1761 0062 C046     		.align	2
 1762              	.L107:
 1763 0064 00000000 		.word	CapSense_1_rawDataIndex
 1764 0068 00000000 		.word	CapSense_1_numberOfSensors
 1765 006c 00000000 		.word	CapSense_1_sensorEnableMask
 1766              		.cfi_endproc
 1767              	.LFE57:
 1768              		.size	CapSense_1_EnableWidget, .-CapSense_1_EnableWidget
 1769              		.section	.text.CapSense_1_DisableWidget,"ax",%progbits
 1770              		.align	2
 1771              		.global	CapSense_1_DisableWidget
 1772              		.code	16
 1773              		.thumb_func
 1774              		.type	CapSense_1_DisableWidget, %function
 1775              	CapSense_1_DisableWidget:
 1776              	.LFB58:
1265:.\Generated_Source\PSoC4/CapSense_1_CSHL.c **** 
1266:.\Generated_Source\PSoC4/CapSense_1_CSHL.c **** 
1267:.\Generated_Source\PSoC4/CapSense_1_CSHL.c **** /*******************************************************************************
1268:.\Generated_Source\PSoC4/CapSense_1_CSHL.c **** * Function Name: CapSense_1_DisableWidget
1269:.\Generated_Source\PSoC4/CapSense_1_CSHL.c **** ********************************************************************************
1270:.\Generated_Source\PSoC4/CapSense_1_CSHL.c **** *
1271:.\Generated_Source\PSoC4/CapSense_1_CSHL.c **** * Summary:
1272:.\Generated_Source\PSoC4/CapSense_1_CSHL.c **** *  Disables all the widget elements (sensors) from the scanning process.
1273:.\Generated_Source\PSoC4/CapSense_1_CSHL.c **** *
1274:.\Generated_Source\PSoC4/CapSense_1_CSHL.c **** * Parameters:
1275:.\Generated_Source\PSoC4/CapSense_1_CSHL.c **** *  widget:  widget number.
1276:.\Generated_Source\PSoC4/CapSense_1_CSHL.c **** *
1277:.\Generated_Source\PSoC4/CapSense_1_CSHL.c **** * Return:
1278:.\Generated_Source\PSoC4/CapSense_1_CSHL.c **** *  None
1279:.\Generated_Source\PSoC4/CapSense_1_CSHL.c **** *
1280:.\Generated_Source\PSoC4/CapSense_1_CSHL.c **** * Global Variables:
1281:.\Generated_Source\PSoC4/CapSense_1_CSHL.c **** *  CapSense_1_sensorEnableMask[] - used to store the sensor scanning 
1282:.\Generated_Source\PSoC4/CapSense_1_CSHL.c **** *  state.
1283:.\Generated_Source\PSoC4/CapSense_1_CSHL.c **** *  CapSense_1_sensorEnableMask[0] contains the masked bits for sensors 
1284:.\Generated_Source\PSoC4/CapSense_1_CSHL.c **** *  0 through 7 (sensor 0 is bit 0, sensor 1 is bit 1).
1285:.\Generated_Source\PSoC4/CapSense_1_CSHL.c **** *  CapSense_1_sensorEnableMask[1] contains the masked bits for 
1286:.\Generated_Source\PSoC4/CapSense_1_CSHL.c **** *  sensors 8 through 15 (if needed), and so on.
1287:.\Generated_Source\PSoC4/CapSense_1_CSHL.c **** *  0 - sensor isn't scanned by CapSense_1_ScanEnabledWidgets().
1288:.\Generated_Source\PSoC4/CapSense_1_CSHL.c **** *  1 - sensor is scanned by CapSense_1_ScanEnabledWidgets().
1289:.\Generated_Source\PSoC4/CapSense_1_CSHL.c **** * 
ARM GAS  C:\Users\Jakob\AppData\Local\Temp\cc5GwTcI.s 			page 55


1290:.\Generated_Source\PSoC4/CapSense_1_CSHL.c **** * Side Effects:
1291:.\Generated_Source\PSoC4/CapSense_1_CSHL.c **** *  None
1292:.\Generated_Source\PSoC4/CapSense_1_CSHL.c **** *
1293:.\Generated_Source\PSoC4/CapSense_1_CSHL.c **** *******************************************************************************/
1294:.\Generated_Source\PSoC4/CapSense_1_CSHL.c **** void CapSense_1_DisableWidget(uint32 widget)
1295:.\Generated_Source\PSoC4/CapSense_1_CSHL.c **** {
 1777              		.loc 1 1295 0
 1778              		.cfi_startproc
 1779 0000 80B5     		push	{r7, lr}
 1780              	.LCFI75:
 1781              		.cfi_def_cfa_offset 8
 1782              		.cfi_offset 7, -8
 1783              		.cfi_offset 14, -4
 1784 0002 84B0     		sub	sp, sp, #16
 1785              	.LCFI76:
 1786              		.cfi_def_cfa_offset 24
 1787 0004 00AF     		add	r7, sp, #0
 1788              	.LCFI77:
 1789              		.cfi_def_cfa_register 7
 1790 0006 7860     		str	r0, [r7, #4]
1296:.\Generated_Source\PSoC4/CapSense_1_CSHL.c ****     uint8 rawIndex = CapSense_1_rawDataIndex[widget];
 1791              		.loc 1 1296 0
 1792 0008 3B1C     		mov	r3, r7
 1793 000a 0F33     		add	r3, r3, #15
 1794 000c 1549     		ldr	r1, .L111
 1795 000e 7A68     		ldr	r2, [r7, #4]
 1796 0010 8A18     		add	r2, r1, r2
 1797 0012 1278     		ldrb	r2, [r2]
 1798 0014 1A70     		strb	r2, [r3]
1297:.\Generated_Source\PSoC4/CapSense_1_CSHL.c ****     uint8 numOfSensors = CapSense_1_numberOfSensors[widget] + rawIndex;
 1799              		.loc 1 1297 0
 1800 0016 144A     		ldr	r2, .L111+4
 1801 0018 7B68     		ldr	r3, [r7, #4]
 1802 001a D318     		add	r3, r2, r3
 1803 001c 1978     		ldrb	r1, [r3]
 1804 001e 3B1C     		mov	r3, r7
 1805 0020 0E33     		add	r3, r3, #14
 1806 0022 3A1C     		mov	r2, r7
 1807 0024 0F32     		add	r2, r2, #15
 1808 0026 1278     		ldrb	r2, [r2]
 1809 0028 8A18     		add	r2, r1, r2
 1810 002a 1A70     		strb	r2, [r3]
 1811              	.L110:
1298:.\Generated_Source\PSoC4/CapSense_1_CSHL.c ****    
1299:.\Generated_Source\PSoC4/CapSense_1_CSHL.c ****     /* Disable all sensors of widget */
1300:.\Generated_Source\PSoC4/CapSense_1_CSHL.c ****     do
1301:.\Generated_Source\PSoC4/CapSense_1_CSHL.c ****     {
1302:.\Generated_Source\PSoC4/CapSense_1_CSHL.c **** 
1303:.\Generated_Source\PSoC4/CapSense_1_CSHL.c ****         CapSense_1_SetBitValue(CapSense_1_sensorEnableMask, (uint32)rawIndex, 0u);
 1812              		.loc 1 1303 0 discriminator 1
 1813 002c 3B1C     		mov	r3, r7
 1814 002e 0F33     		add	r3, r3, #15
 1815 0030 1B78     		ldrb	r3, [r3]
 1816 0032 0E4A     		ldr	r2, .L111+8
 1817 0034 101C     		mov	r0, r2
 1818 0036 191C     		mov	r1, r3
 1819 0038 0022     		mov	r2, #0
ARM GAS  C:\Users\Jakob\AppData\Local\Temp\cc5GwTcI.s 			page 56


 1820 003a FFF7FEFF 		bl	CapSense_1_SetBitValue
1304:.\Generated_Source\PSoC4/CapSense_1_CSHL.c ****         rawIndex++;
 1821              		.loc 1 1304 0 discriminator 1
 1822 003e 3B1C     		mov	r3, r7
 1823 0040 0F33     		add	r3, r3, #15
 1824 0042 3A1C     		mov	r2, r7
 1825 0044 0F32     		add	r2, r2, #15
 1826 0046 1278     		ldrb	r2, [r2]
 1827 0048 0132     		add	r2, r2, #1
 1828 004a 1A70     		strb	r2, [r3]
1305:.\Generated_Source\PSoC4/CapSense_1_CSHL.c ****     }
1306:.\Generated_Source\PSoC4/CapSense_1_CSHL.c ****     while(rawIndex < numOfSensors);
 1829              		.loc 1 1306 0 discriminator 1
 1830 004c 3A1C     		mov	r2, r7
 1831 004e 0F32     		add	r2, r2, #15
 1832 0050 3B1C     		mov	r3, r7
 1833 0052 0E33     		add	r3, r3, #14
 1834 0054 1278     		ldrb	r2, [r2]
 1835 0056 1B78     		ldrb	r3, [r3]
 1836 0058 9A42     		cmp	r2, r3
 1837 005a E7D3     		bcc	.L110
1307:.\Generated_Source\PSoC4/CapSense_1_CSHL.c **** }
 1838              		.loc 1 1307 0
 1839 005c BD46     		mov	sp, r7
 1840 005e 04B0     		add	sp, sp, #16
 1841              		@ sp needed for prologue
 1842 0060 80BD     		pop	{r7, pc}
 1843              	.L112:
 1844 0062 C046     		.align	2
 1845              	.L111:
 1846 0064 00000000 		.word	CapSense_1_rawDataIndex
 1847 0068 00000000 		.word	CapSense_1_numberOfSensors
 1848 006c 00000000 		.word	CapSense_1_sensorEnableMask
 1849              		.cfi_endproc
 1850              	.LFE58:
 1851              		.size	CapSense_1_DisableWidget, .-CapSense_1_DisableWidget
 1852              		.section	.text.CapSense_1_MedianFilter,"ax",%progbits
 1853              		.align	2
 1854              		.global	CapSense_1_MedianFilter
 1855              		.code	16
 1856              		.thumb_func
 1857              		.type	CapSense_1_MedianFilter, %function
 1858              	CapSense_1_MedianFilter:
 1859              	.LFB59:
1308:.\Generated_Source\PSoC4/CapSense_1_CSHL.c **** 
1309:.\Generated_Source\PSoC4/CapSense_1_CSHL.c **** 
1310:.\Generated_Source\PSoC4/CapSense_1_CSHL.c **** #if(CapSense_1_TOTAL_CENTROIDS_COUNT)
1311:.\Generated_Source\PSoC4/CapSense_1_CSHL.c ****     /*******************************************************************************
1312:.\Generated_Source\PSoC4/CapSense_1_CSHL.c ****     * Function Name: CapSense_1_FindMaximum
1313:.\Generated_Source\PSoC4/CapSense_1_CSHL.c ****     ********************************************************************************
1314:.\Generated_Source\PSoC4/CapSense_1_CSHL.c ****     *
1315:.\Generated_Source\PSoC4/CapSense_1_CSHL.c ****     * Summary:
1316:.\Generated_Source\PSoC4/CapSense_1_CSHL.c ****     *  Finds the index of the maximum element within a defined centroid. Checks 
1317:.\Generated_Source\PSoC4/CapSense_1_CSHL.c ****     *  CapSense_1_sensorSignal[] within a defined centroid and 
1318:.\Generated_Source\PSoC4/CapSense_1_CSHL.c ****     *  returns the index of the maximum element. The values below the finger threshold are 
1319:.\Generated_Source\PSoC4/CapSense_1_CSHL.c ****     *  ignored.
1320:.\Generated_Source\PSoC4/CapSense_1_CSHL.c ****     *  The centroid is defined by offset of the first element and a number of elements - count.
ARM GAS  C:\Users\Jakob\AppData\Local\Temp\cc5GwTcI.s 			page 57


1321:.\Generated_Source\PSoC4/CapSense_1_CSHL.c ****     *  The diplexed centroid requires at least two consecutive elements above
1322:.\Generated_Source\PSoC4/CapSense_1_CSHL.c ****     *  FingerThreshold to find the index of the maximum element.
1323:.\Generated_Source\PSoC4/CapSense_1_CSHL.c ****     * 
1324:.\Generated_Source\PSoC4/CapSense_1_CSHL.c ****     * Parameters:
1325:.\Generated_Source\PSoC4/CapSense_1_CSHL.c ****     *  offset:  Start index of centroid in CapSense_1_sensorSignal[] array.
1326:.\Generated_Source\PSoC4/CapSense_1_CSHL.c ****     *  count:   number of elements within centroid.
1327:.\Generated_Source\PSoC4/CapSense_1_CSHL.c ****     *  fingerThreshold:  Finger threshold.
1328:.\Generated_Source\PSoC4/CapSense_1_CSHL.c ****     *  diplex:   pointer to diplex table.
1329:.\Generated_Source\PSoC4/CapSense_1_CSHL.c ****     * 
1330:.\Generated_Source\PSoC4/CapSense_1_CSHL.c ****     * Return:
1331:.\Generated_Source\PSoC4/CapSense_1_CSHL.c ****     *  Returns the index of the maximum element within a defined centroid.
1332:.\Generated_Source\PSoC4/CapSense_1_CSHL.c ****     *  If the index of the maximum element isn't found it returns 0xFF.
1333:.\Generated_Source\PSoC4/CapSense_1_CSHL.c **** 	*
1334:.\Generated_Source\PSoC4/CapSense_1_CSHL.c **** 	* Global Variables:
1335:.\Generated_Source\PSoC4/CapSense_1_CSHL.c **** 	*  CapSense_1_startOfSlider[] - contains the index of the first slider element
1336:.\Generated_Source\PSoC4/CapSense_1_CSHL.c **** 	* 
1337:.\Generated_Source\PSoC4/CapSense_1_CSHL.c **** 	* Side Effects: 
1338:.\Generated_Source\PSoC4/CapSense_1_CSHL.c **** 	*  None
1339:.\Generated_Source\PSoC4/CapSense_1_CSHL.c **** 	* 
1340:.\Generated_Source\PSoC4/CapSense_1_CSHL.c ****     *******************************************************************************/
1341:.\Generated_Source\PSoC4/CapSense_1_CSHL.c **** 	#if (CapSense_1_IS_DIPLEX_SLIDER)
1342:.\Generated_Source\PSoC4/CapSense_1_CSHL.c **** 		uint8 CapSense_1_FindMaximum(uint8 offset, uint8 count, uint8 fingerThreshold, const uint8 *diple
1343:.\Generated_Source\PSoC4/CapSense_1_CSHL.c **** 	#else 
1344:.\Generated_Source\PSoC4/CapSense_1_CSHL.c **** 		uint8 CapSense_1_FindMaximum(uint8 offset, uint8 count, uint8 fingerThreshold)
1345:.\Generated_Source\PSoC4/CapSense_1_CSHL.c **** 	#endif /* (CapSense_1_IS_DIPLEX_SLIDER) */
1346:.\Generated_Source\PSoC4/CapSense_1_CSHL.c ****     {
1347:.\Generated_Source\PSoC4/CapSense_1_CSHL.c ****         uint8 i;
1348:.\Generated_Source\PSoC4/CapSense_1_CSHL.c ****         #if (CapSense_1_IS_DIPLEX_SLIDER)        
1349:.\Generated_Source\PSoC4/CapSense_1_CSHL.c ****             uint8 curPos = 0u;
1350:.\Generated_Source\PSoC4/CapSense_1_CSHL.c ****             /* No centroid at Start */
1351:.\Generated_Source\PSoC4/CapSense_1_CSHL.c ****             uint8 curCntrdSize = 0u;
1352:.\Generated_Source\PSoC4/CapSense_1_CSHL.c ****             uint8 curCtrdStartPos = CapSense_1_MAXIMUM_CENTROID;
1353:.\Generated_Source\PSoC4/CapSense_1_CSHL.c ****             /* Biggest centroid is zero */
1354:.\Generated_Source\PSoC4/CapSense_1_CSHL.c ****             uint8 biggestCtrdSize = 0u;
1355:.\Generated_Source\PSoC4/CapSense_1_CSHL.c ****             uint8 biggestCtrdStartPos = 0u;
1356:.\Generated_Source\PSoC4/CapSense_1_CSHL.c ****         #endif /* (CapSense_1_IS_DIPLEX_SLIDER) */
1357:.\Generated_Source\PSoC4/CapSense_1_CSHL.c ****         uint8 maximum = CapSense_1_MAXIMUM_CENTROID;
1358:.\Generated_Source\PSoC4/CapSense_1_CSHL.c **** 		
1359:.\Generated_Source\PSoC4/CapSense_1_CSHL.c ****         uint8 temp = 0u;
1360:.\Generated_Source\PSoC4/CapSense_1_CSHL.c ****         uint8 *startOfSlider = &CapSense_1_sensorSignal[offset];
1361:.\Generated_Source\PSoC4/CapSense_1_CSHL.c **** 
1362:.\Generated_Source\PSoC4/CapSense_1_CSHL.c ****         #if (CapSense_1_IS_DIPLEX_SLIDER)        
1363:.\Generated_Source\PSoC4/CapSense_1_CSHL.c ****             if(diplex != 0u)
1364:.\Generated_Source\PSoC4/CapSense_1_CSHL.c ****             {
1365:.\Generated_Source\PSoC4/CapSense_1_CSHL.c ****                 /* Initialize */
1366:.\Generated_Source\PSoC4/CapSense_1_CSHL.c ****                 i = 0u;
1367:.\Generated_Source\PSoC4/CapSense_1_CSHL.c ****                 
1368:.\Generated_Source\PSoC4/CapSense_1_CSHL.c ****                 /* Make slider x2 as Diplexed */
1369:.\Generated_Source\PSoC4/CapSense_1_CSHL.c ****                 count <<= 1u;
1370:.\Generated_Source\PSoC4/CapSense_1_CSHL.c ****                 while(1u)
1371:.\Generated_Source\PSoC4/CapSense_1_CSHL.c ****                 { 
1372:.\Generated_Source\PSoC4/CapSense_1_CSHL.c ****                     if (startOfSlider[curPos] > 0u)    /* Looking for centroids */
1373:.\Generated_Source\PSoC4/CapSense_1_CSHL.c ****                     {
1374:.\Generated_Source\PSoC4/CapSense_1_CSHL.c ****                         if (curCtrdStartPos == CapSense_1_MAXIMUM_CENTROID)
1375:.\Generated_Source\PSoC4/CapSense_1_CSHL.c ****                         {
1376:.\Generated_Source\PSoC4/CapSense_1_CSHL.c ****                             /* Start of centroid */
1377:.\Generated_Source\PSoC4/CapSense_1_CSHL.c ****                             curCtrdStartPos = i;
ARM GAS  C:\Users\Jakob\AppData\Local\Temp\cc5GwTcI.s 			page 58


1378:.\Generated_Source\PSoC4/CapSense_1_CSHL.c ****                             curCntrdSize++;
1379:.\Generated_Source\PSoC4/CapSense_1_CSHL.c ****                         }
1380:.\Generated_Source\PSoC4/CapSense_1_CSHL.c ****                         else
1381:.\Generated_Source\PSoC4/CapSense_1_CSHL.c ****                         {
1382:.\Generated_Source\PSoC4/CapSense_1_CSHL.c ****                             curCntrdSize++;
1383:.\Generated_Source\PSoC4/CapSense_1_CSHL.c ****                         }
1384:.\Generated_Source\PSoC4/CapSense_1_CSHL.c ****                     }
1385:.\Generated_Source\PSoC4/CapSense_1_CSHL.c ****                     else   /* Select biggest and indicate zero start */
1386:.\Generated_Source\PSoC4/CapSense_1_CSHL.c ****                     {          
1387:.\Generated_Source\PSoC4/CapSense_1_CSHL.c ****                         if(curCntrdSize > 0u)
1388:.\Generated_Source\PSoC4/CapSense_1_CSHL.c ****                         {
1389:.\Generated_Source\PSoC4/CapSense_1_CSHL.c ****                             /* We are at the end of current */
1390:.\Generated_Source\PSoC4/CapSense_1_CSHL.c ****                             if(curCntrdSize > biggestCtrdSize)
1391:.\Generated_Source\PSoC4/CapSense_1_CSHL.c ****                             {
1392:.\Generated_Source\PSoC4/CapSense_1_CSHL.c ****                                 biggestCtrdSize = curCntrdSize;
1393:.\Generated_Source\PSoC4/CapSense_1_CSHL.c ****                                 biggestCtrdStartPos = curCtrdStartPos;
1394:.\Generated_Source\PSoC4/CapSense_1_CSHL.c ****                             }
1395:.\Generated_Source\PSoC4/CapSense_1_CSHL.c ****                             
1396:.\Generated_Source\PSoC4/CapSense_1_CSHL.c ****                             curCntrdSize = 0u;
1397:.\Generated_Source\PSoC4/CapSense_1_CSHL.c ****                             curCtrdStartPos = CapSense_1_MAXIMUM_CENTROID;
1398:.\Generated_Source\PSoC4/CapSense_1_CSHL.c ****                         }
1399:.\Generated_Source\PSoC4/CapSense_1_CSHL.c ****                     }
1400:.\Generated_Source\PSoC4/CapSense_1_CSHL.c ****                     
1401:.\Generated_Source\PSoC4/CapSense_1_CSHL.c ****                     i++; 
1402:.\Generated_Source\PSoC4/CapSense_1_CSHL.c ****                     curPos = diplex[i];
1403:.\Generated_Source\PSoC4/CapSense_1_CSHL.c ****                     if(i == count)
1404:.\Generated_Source\PSoC4/CapSense_1_CSHL.c ****                     {
1405:.\Generated_Source\PSoC4/CapSense_1_CSHL.c ****                         break;
1406:.\Generated_Source\PSoC4/CapSense_1_CSHL.c ****                     }            
1407:.\Generated_Source\PSoC4/CapSense_1_CSHL.c ****                 }
1408:.\Generated_Source\PSoC4/CapSense_1_CSHL.c ****                     
1409:.\Generated_Source\PSoC4/CapSense_1_CSHL.c ****                     /* Find biggest centroid if two are same size, last one wins
1410:.\Generated_Source\PSoC4/CapSense_1_CSHL.c ****                        We are at the end of current */
1411:.\Generated_Source\PSoC4/CapSense_1_CSHL.c ****                 if (curCntrdSize >= biggestCtrdSize) 
1412:.\Generated_Source\PSoC4/CapSense_1_CSHL.c ****                 {
1413:.\Generated_Source\PSoC4/CapSense_1_CSHL.c ****                     biggestCtrdSize = curCntrdSize;
1414:.\Generated_Source\PSoC4/CapSense_1_CSHL.c ****                     biggestCtrdStartPos = curCtrdStartPos;
1415:.\Generated_Source\PSoC4/CapSense_1_CSHL.c ****                 }
1416:.\Generated_Source\PSoC4/CapSense_1_CSHL.c ****             }
1417:.\Generated_Source\PSoC4/CapSense_1_CSHL.c ****             else
1418:.\Generated_Source\PSoC4/CapSense_1_CSHL.c ****             {
1419:.\Generated_Source\PSoC4/CapSense_1_CSHL.c ****                 /* Without diplexing */ 
1420:.\Generated_Source\PSoC4/CapSense_1_CSHL.c ****                 biggestCtrdSize = count;
1421:.\Generated_Source\PSoC4/CapSense_1_CSHL.c ****             }
1422:.\Generated_Source\PSoC4/CapSense_1_CSHL.c ****                         
1423:.\Generated_Source\PSoC4/CapSense_1_CSHL.c **** 
1424:.\Generated_Source\PSoC4/CapSense_1_CSHL.c ****             /* Check centroid size */
1425:.\Generated_Source\PSoC4/CapSense_1_CSHL.c ****             #if (CapSense_1_IS_NON_DIPLEX_SLIDER)
1426:.\Generated_Source\PSoC4/CapSense_1_CSHL.c ****                 if((biggestCtrdSize >= 2u) || ((biggestCtrdSize == 1u) && (diplex == 0u)))
1427:.\Generated_Source\PSoC4/CapSense_1_CSHL.c ****             #else                    
1428:.\Generated_Source\PSoC4/CapSense_1_CSHL.c ****                 if(biggestCtrdSize >= 2u)
1429:.\Generated_Source\PSoC4/CapSense_1_CSHL.c ****             #endif /* (CapSense_1_IS_NON_DIPLEX_SLIDER) */
1430:.\Generated_Source\PSoC4/CapSense_1_CSHL.c ****                 {
1431:.\Generated_Source\PSoC4/CapSense_1_CSHL.c ****                     for (i = biggestCtrdStartPos; i < (biggestCtrdStartPos + biggestCtrdSize); i++)
1432:.\Generated_Source\PSoC4/CapSense_1_CSHL.c ****                     {
1433:.\Generated_Source\PSoC4/CapSense_1_CSHL.c ****                         #if (CapSense_1_IS_DIPLEX_SLIDER && CapSense_1_IS_NON_DIPLEX_SLIDER)
1434:.\Generated_Source\PSoC4/CapSense_1_CSHL.c ****                             if (diplex == 0u)
ARM GAS  C:\Users\Jakob\AppData\Local\Temp\cc5GwTcI.s 			page 59


1435:.\Generated_Source\PSoC4/CapSense_1_CSHL.c ****                             {
1436:.\Generated_Source\PSoC4/CapSense_1_CSHL.c ****                                 curPos = i;
1437:.\Generated_Source\PSoC4/CapSense_1_CSHL.c ****                             }
1438:.\Generated_Source\PSoC4/CapSense_1_CSHL.c ****                             else
1439:.\Generated_Source\PSoC4/CapSense_1_CSHL.c ****                             {
1440:.\Generated_Source\PSoC4/CapSense_1_CSHL.c ****                                 curPos = diplex[i];
1441:.\Generated_Source\PSoC4/CapSense_1_CSHL.c ****                             }                    
1442:.\Generated_Source\PSoC4/CapSense_1_CSHL.c ****                         #elif (CapSense_1_IS_DIPLEX_SLIDER)                    
1443:.\Generated_Source\PSoC4/CapSense_1_CSHL.c ****                             curPos = diplex[i];                    
1444:.\Generated_Source\PSoC4/CapSense_1_CSHL.c ****                         #endif /* (CapSense_1_IS_DIPLEX_SLIDER && CapSense_1_IS_NON_DIPLEX_SLIDER) 
1445:.\Generated_Source\PSoC4/CapSense_1_CSHL.c ****                         /* Looking for greater element within centroid */
1446:.\Generated_Source\PSoC4/CapSense_1_CSHL.c ****                         if(startOfSlider[curPos] > fingerThreshold)
1447:.\Generated_Source\PSoC4/CapSense_1_CSHL.c ****                         {
1448:.\Generated_Source\PSoC4/CapSense_1_CSHL.c ****                             if(startOfSlider[curPos] > temp)
1449:.\Generated_Source\PSoC4/CapSense_1_CSHL.c ****                             {
1450:.\Generated_Source\PSoC4/CapSense_1_CSHL.c ****                                 maximum = i;
1451:.\Generated_Source\PSoC4/CapSense_1_CSHL.c ****                                 temp = startOfSlider[curPos];
1452:.\Generated_Source\PSoC4/CapSense_1_CSHL.c ****                             }
1453:.\Generated_Source\PSoC4/CapSense_1_CSHL.c ****                         }
1454:.\Generated_Source\PSoC4/CapSense_1_CSHL.c ****                     }
1455:.\Generated_Source\PSoC4/CapSense_1_CSHL.c ****                 } 
1456:.\Generated_Source\PSoC4/CapSense_1_CSHL.c ****         #else
1457:.\Generated_Source\PSoC4/CapSense_1_CSHL.c ****             for (i = 0u; i < count; i++)
1458:.\Generated_Source\PSoC4/CapSense_1_CSHL.c ****             {                      
1459:.\Generated_Source\PSoC4/CapSense_1_CSHL.c ****                 /* Looking for greater element within centroid */
1460:.\Generated_Source\PSoC4/CapSense_1_CSHL.c ****                 if(startOfSlider[i] > fingerThreshold)
1461:.\Generated_Source\PSoC4/CapSense_1_CSHL.c ****                 {
1462:.\Generated_Source\PSoC4/CapSense_1_CSHL.c ****                     if(startOfSlider[i] > temp)
1463:.\Generated_Source\PSoC4/CapSense_1_CSHL.c ****                     {
1464:.\Generated_Source\PSoC4/CapSense_1_CSHL.c ****                         maximum = i;
1465:.\Generated_Source\PSoC4/CapSense_1_CSHL.c ****                         temp = startOfSlider[i];
1466:.\Generated_Source\PSoC4/CapSense_1_CSHL.c ****                     }
1467:.\Generated_Source\PSoC4/CapSense_1_CSHL.c ****                 }
1468:.\Generated_Source\PSoC4/CapSense_1_CSHL.c ****             }    
1469:.\Generated_Source\PSoC4/CapSense_1_CSHL.c ****         #endif /* (CapSense_1_IS_DIPLEX_SLIDER) */
1470:.\Generated_Source\PSoC4/CapSense_1_CSHL.c ****         return (maximum);
1471:.\Generated_Source\PSoC4/CapSense_1_CSHL.c ****     }
1472:.\Generated_Source\PSoC4/CapSense_1_CSHL.c ****     
1473:.\Generated_Source\PSoC4/CapSense_1_CSHL.c ****     
1474:.\Generated_Source\PSoC4/CapSense_1_CSHL.c ****     /*******************************************************************************
1475:.\Generated_Source\PSoC4/CapSense_1_CSHL.c ****     * Function Name: CapSense_1_CalcCentroid
1476:.\Generated_Source\PSoC4/CapSense_1_CSHL.c ****     ********************************************************************************
1477:.\Generated_Source\PSoC4/CapSense_1_CSHL.c ****     *
1478:.\Generated_Source\PSoC4/CapSense_1_CSHL.c ****     * Summary:
1479:.\Generated_Source\PSoC4/CapSense_1_CSHL.c ****     *  Returns a position value calculated according to the index of the maximum element and API
1480:.\Generated_Source\PSoC4/CapSense_1_CSHL.c ****     *  resolution.
1481:.\Generated_Source\PSoC4/CapSense_1_CSHL.c ****     *
1482:.\Generated_Source\PSoC4/CapSense_1_CSHL.c ****     * Parameters:
1483:.\Generated_Source\PSoC4/CapSense_1_CSHL.c ****     *  type:  widget type.
1484:.\Generated_Source\PSoC4/CapSense_1_CSHL.c ****     *  diplex:  pointer to diplex table.
1485:.\Generated_Source\PSoC4/CapSense_1_CSHL.c ****     *  maximum:  Index of maximum element within centroid.
1486:.\Generated_Source\PSoC4/CapSense_1_CSHL.c ****     *  offset:   Start index of centroid in CapSense_1_sensorSignal[] array.
1487:.\Generated_Source\PSoC4/CapSense_1_CSHL.c ****     *  count:    Number of elements within centroid.
1488:.\Generated_Source\PSoC4/CapSense_1_CSHL.c ****     *  resolution:  multiplicator calculated according to centroid type and
1489:.\Generated_Source\PSoC4/CapSense_1_CSHL.c ****     *  API resolution.
1490:.\Generated_Source\PSoC4/CapSense_1_CSHL.c ****     *  noiseThreshold:  Noise threshold.
1491:.\Generated_Source\PSoC4/CapSense_1_CSHL.c ****     * 
ARM GAS  C:\Users\Jakob\AppData\Local\Temp\cc5GwTcI.s 			page 60


1492:.\Generated_Source\PSoC4/CapSense_1_CSHL.c ****     * Return:
1493:.\Generated_Source\PSoC4/CapSense_1_CSHL.c ****     *  Returns a position value of the slider.
1494:.\Generated_Source\PSoC4/CapSense_1_CSHL.c **** 	*
1495:.\Generated_Source\PSoC4/CapSense_1_CSHL.c **** 	* Side Effects: 
1496:.\Generated_Source\PSoC4/CapSense_1_CSHL.c **** 	*  None
1497:.\Generated_Source\PSoC4/CapSense_1_CSHL.c **** 	* 
1498:.\Generated_Source\PSoC4/CapSense_1_CSHL.c ****     *******************************************************************************/
1499:.\Generated_Source\PSoC4/CapSense_1_CSHL.c ****     uint8 CapSense_1_CalcCentroid(uint8 maximum, uint8 offset, 
1500:.\Generated_Source\PSoC4/CapSense_1_CSHL.c ****                                         uint8 count, uint16 resolution, uint8 noiseThreshold)
1501:.\Generated_Source\PSoC4/CapSense_1_CSHL.c ****     {
1502:.\Generated_Source\PSoC4/CapSense_1_CSHL.c ****         #if ((CapSense_1_TOTAL_LINEAR_SLIDERS_COUNT > 0u) || (CapSense_1_TOTAL_TOUCH_PADS_COUNT > 0
1503:.\Generated_Source\PSoC4/CapSense_1_CSHL.c ****             uint8 posPrev;
1504:.\Generated_Source\PSoC4/CapSense_1_CSHL.c ****             uint8 posNext;
1505:.\Generated_Source\PSoC4/CapSense_1_CSHL.c ****         #endif /* ((CapSense_1_TOTAL_LINEAR_SLIDERS_COUNT>0u) || (CapSense_1_TOTAL_TOUCH_PADS_COUNT
1506:.\Generated_Source\PSoC4/CapSense_1_CSHL.c ****         
1507:.\Generated_Source\PSoC4/CapSense_1_CSHL.c ****         /* Helps during centroid calculation */
1508:.\Generated_Source\PSoC4/CapSense_1_CSHL.c ****         #if (CapSense_1_TOTAL_CENTROIDS_COUNT)
1509:.\Generated_Source\PSoC4/CapSense_1_CSHL.c **** 		    static uint8 CapSense_1_centroid[3u];
1510:.\Generated_Source\PSoC4/CapSense_1_CSHL.c ****         #endif  /* (CapSense_1_TOTAL_CENTROIDS_COUNT) */
1511:.\Generated_Source\PSoC4/CapSense_1_CSHL.c ****                
1512:.\Generated_Source\PSoC4/CapSense_1_CSHL.c ****         #if (CapSense_1_IS_DIPLEX_SLIDER)                
1513:.\Generated_Source\PSoC4/CapSense_1_CSHL.c ****             uint8 pos;
1514:.\Generated_Source\PSoC4/CapSense_1_CSHL.c ****         #endif /* (CapSense_1_IS_DIPLEX_SLIDER) */
1515:.\Generated_Source\PSoC4/CapSense_1_CSHL.c **** 
1516:.\Generated_Source\PSoC4/CapSense_1_CSHL.c ****         uint8 position;
1517:.\Generated_Source\PSoC4/CapSense_1_CSHL.c ****         uint32 numerator;
1518:.\Generated_Source\PSoC4/CapSense_1_CSHL.c ****         int32 denominator;
1519:.\Generated_Source\PSoC4/CapSense_1_CSHL.c **** 		
1520:.\Generated_Source\PSoC4/CapSense_1_CSHL.c **** 		uint8  *startOfSlider = &CapSense_1_sensorSignal[offset];
1521:.\Generated_Source\PSoC4/CapSense_1_CSHL.c **** 		
1522:.\Generated_Source\PSoC4/CapSense_1_CSHL.c ****         #if ((CapSense_1_TOTAL_LINEAR_SLIDERS_COUNT > 0u) || (CapSense_1_TOTAL_TOUCH_PADS_COUNT > 0
1523:.\Generated_Source\PSoC4/CapSense_1_CSHL.c ****             posPrev = 0u;
1524:.\Generated_Source\PSoC4/CapSense_1_CSHL.c ****             posNext = 0u;
1525:.\Generated_Source\PSoC4/CapSense_1_CSHL.c ****         #endif /* ((CapSense_1_TOTAL_LINEAR_SLIDERS_COUNT>0u) || (CapSense_1_TOTAL_TOUCH_PADS_COUNT
1526:.\Generated_Source\PSoC4/CapSense_1_CSHL.c ****      
1527:.\Generated_Source\PSoC4/CapSense_1_CSHL.c ****         #if (CapSense_1_ADD_SLIDER_TYPE)
1528:.\Generated_Source\PSoC4/CapSense_1_CSHL.c ****             if(type == CapSense_1_TYPE_RADIAL_SLIDER)
1529:.\Generated_Source\PSoC4/CapSense_1_CSHL.c ****             {
1530:.\Generated_Source\PSoC4/CapSense_1_CSHL.c ****         #endif /* (CapSense_1_ADD_SLIDER_TYPE) */
1531:.\Generated_Source\PSoC4/CapSense_1_CSHL.c **** 
1532:.\Generated_Source\PSoC4/CapSense_1_CSHL.c ****             #if (CapSense_1_TOTAL_RADIAL_SLIDERS_COUNT > 0u)                
1533:.\Generated_Source\PSoC4/CapSense_1_CSHL.c ****                 /* Copy Signal to the centroid array */
1534:.\Generated_Source\PSoC4/CapSense_1_CSHL.c ****                 CapSense_1_centroid[CapSense_1_POS] = startOfSlider[maximum];
1535:.\Generated_Source\PSoC4/CapSense_1_CSHL.c ****                  
1536:.\Generated_Source\PSoC4/CapSense_1_CSHL.c ****                 /* Check borders for ROTARY Slider */
1537:.\Generated_Source\PSoC4/CapSense_1_CSHL.c ****                 if (maximum == 0u)                   /* Start of centroid */
1538:.\Generated_Source\PSoC4/CapSense_1_CSHL.c ****                 { 
1539:.\Generated_Source\PSoC4/CapSense_1_CSHL.c ****                     CapSense_1_centroid[CapSense_1_POS_PREV] = startOfSlider[count - 1u];
1540:.\Generated_Source\PSoC4/CapSense_1_CSHL.c ****                     CapSense_1_centroid[CapSense_1_POS_NEXT] = startOfSlider[1u];
1541:.\Generated_Source\PSoC4/CapSense_1_CSHL.c ****                 }
1542:.\Generated_Source\PSoC4/CapSense_1_CSHL.c ****                 else if (maximum == (count - 1u))    /* End of centroid */
1543:.\Generated_Source\PSoC4/CapSense_1_CSHL.c ****                 {
1544:.\Generated_Source\PSoC4/CapSense_1_CSHL.c ****                     CapSense_1_centroid[CapSense_1_POS_PREV] = startOfSlider[maximum - 1u];
1545:.\Generated_Source\PSoC4/CapSense_1_CSHL.c ****                     CapSense_1_centroid[CapSense_1_POS_NEXT] = startOfSlider[0u];
1546:.\Generated_Source\PSoC4/CapSense_1_CSHL.c ****                 }
1547:.\Generated_Source\PSoC4/CapSense_1_CSHL.c ****                 else                                /* Not first Not last */
1548:.\Generated_Source\PSoC4/CapSense_1_CSHL.c ****                 {
ARM GAS  C:\Users\Jakob\AppData\Local\Temp\cc5GwTcI.s 			page 61


1549:.\Generated_Source\PSoC4/CapSense_1_CSHL.c ****                     CapSense_1_centroid[CapSense_1_POS_PREV] = startOfSlider[maximum - 1u];
1550:.\Generated_Source\PSoC4/CapSense_1_CSHL.c ****                     CapSense_1_centroid[CapSense_1_POS_NEXT] = startOfSlider[maximum + 1u];
1551:.\Generated_Source\PSoC4/CapSense_1_CSHL.c ****                 }
1552:.\Generated_Source\PSoC4/CapSense_1_CSHL.c ****             #endif /* (CapSense_1_TOTAL_RADIAL_SLIDERS_COUNT > 0u) */
1553:.\Generated_Source\PSoC4/CapSense_1_CSHL.c **** 
1554:.\Generated_Source\PSoC4/CapSense_1_CSHL.c ****         #if (CapSense_1_ADD_SLIDER_TYPE)
1555:.\Generated_Source\PSoC4/CapSense_1_CSHL.c ****             }
1556:.\Generated_Source\PSoC4/CapSense_1_CSHL.c ****             else
1557:.\Generated_Source\PSoC4/CapSense_1_CSHL.c ****             {
1558:.\Generated_Source\PSoC4/CapSense_1_CSHL.c ****         #endif /* (CapSense_1_ADD_SLIDER_TYPE) */
1559:.\Generated_Source\PSoC4/CapSense_1_CSHL.c **** 
1560:.\Generated_Source\PSoC4/CapSense_1_CSHL.c ****             #if ((CapSense_1_TOTAL_LINEAR_SLIDERS_COUNT > 0u) || (CapSense_1_TOTAL_TOUCH_PADS_COUNT
1561:.\Generated_Source\PSoC4/CapSense_1_CSHL.c ****                 #if (CapSense_1_IS_DIPLEX_SLIDER && CapSense_1_IS_NON_DIPLEX_SLIDER)               
1562:.\Generated_Source\PSoC4/CapSense_1_CSHL.c ****                     /* Calculate next and previous near to maximum */
1563:.\Generated_Source\PSoC4/CapSense_1_CSHL.c ****                     if(diplex == 0u)
1564:.\Generated_Source\PSoC4/CapSense_1_CSHL.c ****                     {
1565:.\Generated_Source\PSoC4/CapSense_1_CSHL.c ****                         pos     = maximum;
1566:.\Generated_Source\PSoC4/CapSense_1_CSHL.c ****                         posPrev = maximum - 1u;
1567:.\Generated_Source\PSoC4/CapSense_1_CSHL.c ****                         posNext = maximum + 1u; 
1568:.\Generated_Source\PSoC4/CapSense_1_CSHL.c ****                     }
1569:.\Generated_Source\PSoC4/CapSense_1_CSHL.c ****                     else
1570:.\Generated_Source\PSoC4/CapSense_1_CSHL.c ****                     {
1571:.\Generated_Source\PSoC4/CapSense_1_CSHL.c ****                         pos     = diplex[maximum];
1572:.\Generated_Source\PSoC4/CapSense_1_CSHL.c ****                         posPrev = diplex[maximum - 1u];
1573:.\Generated_Source\PSoC4/CapSense_1_CSHL.c ****                         posNext = diplex[maximum + 1u];
1574:.\Generated_Source\PSoC4/CapSense_1_CSHL.c ****                         count <<= 1u;
1575:.\Generated_Source\PSoC4/CapSense_1_CSHL.c ****                     }                    
1576:.\Generated_Source\PSoC4/CapSense_1_CSHL.c ****                 #elif (CapSense_1_IS_DIPLEX_SLIDER)
1577:.\Generated_Source\PSoC4/CapSense_1_CSHL.c ****                     /* Calculate next and previous near to maximum */
1578:.\Generated_Source\PSoC4/CapSense_1_CSHL.c ****                     pos     = diplex[maximum];
1579:.\Generated_Source\PSoC4/CapSense_1_CSHL.c ****                     posPrev = diplex[maximum - 1u];
1580:.\Generated_Source\PSoC4/CapSense_1_CSHL.c ****                     posNext = diplex[maximum + 1u];
1581:.\Generated_Source\PSoC4/CapSense_1_CSHL.c ****                     count <<= 1u;                    
1582:.\Generated_Source\PSoC4/CapSense_1_CSHL.c ****                 #else                    
1583:.\Generated_Source\PSoC4/CapSense_1_CSHL.c ****                     /* Calculate next and previous near to maximum */
1584:.\Generated_Source\PSoC4/CapSense_1_CSHL.c ****                     if (maximum >= 1u)
1585:.\Generated_Source\PSoC4/CapSense_1_CSHL.c ****                     {
1586:.\Generated_Source\PSoC4/CapSense_1_CSHL.c ****                         posPrev = maximum - 1u;
1587:.\Generated_Source\PSoC4/CapSense_1_CSHL.c ****                     }
1588:.\Generated_Source\PSoC4/CapSense_1_CSHL.c ****                     posNext = maximum + 1u;
1589:.\Generated_Source\PSoC4/CapSense_1_CSHL.c ****                 #endif /* (CapSense_1_IS_DIPLEX_SLIDER && CapSense_1_IS_NON_DIPLEX_SLIDER) */
1590:.\Generated_Source\PSoC4/CapSense_1_CSHL.c ****                         
1591:.\Generated_Source\PSoC4/CapSense_1_CSHL.c ****                 /* Copy Signal to the centroid array */
1592:.\Generated_Source\PSoC4/CapSense_1_CSHL.c ****                 #if (CapSense_1_IS_DIPLEX_SLIDER)
1593:.\Generated_Source\PSoC4/CapSense_1_CSHL.c ****                     CapSense_1_centroid[CapSense_1_POS] = startOfSlider[pos];
1594:.\Generated_Source\PSoC4/CapSense_1_CSHL.c ****                 #else
1595:.\Generated_Source\PSoC4/CapSense_1_CSHL.c ****                     CapSense_1_centroid[CapSense_1_POS] = startOfSlider[maximum];
1596:.\Generated_Source\PSoC4/CapSense_1_CSHL.c ****                 #endif /* (CapSense_1_IS_DIPLEX_SLIDER) */
1597:.\Generated_Source\PSoC4/CapSense_1_CSHL.c ****                     
1598:.\Generated_Source\PSoC4/CapSense_1_CSHL.c ****                 /* Check borders for LINEAR Slider */
1599:.\Generated_Source\PSoC4/CapSense_1_CSHL.c ****                 if (maximum == 0u)                   /* Start of centroid */
1600:.\Generated_Source\PSoC4/CapSense_1_CSHL.c ****                 { 
1601:.\Generated_Source\PSoC4/CapSense_1_CSHL.c ****                     CapSense_1_centroid[CapSense_1_POS_PREV] = 0u;
1602:.\Generated_Source\PSoC4/CapSense_1_CSHL.c ****                     CapSense_1_centroid[CapSense_1_POS_NEXT] = startOfSlider[posNext];
1603:.\Generated_Source\PSoC4/CapSense_1_CSHL.c ****                 }
1604:.\Generated_Source\PSoC4/CapSense_1_CSHL.c ****                 else if (maximum == ((count) - 1u)) /* End of centroid */
1605:.\Generated_Source\PSoC4/CapSense_1_CSHL.c ****                 {
ARM GAS  C:\Users\Jakob\AppData\Local\Temp\cc5GwTcI.s 			page 62


1606:.\Generated_Source\PSoC4/CapSense_1_CSHL.c ****                     CapSense_1_centroid[CapSense_1_POS_PREV] = startOfSlider[posPrev];
1607:.\Generated_Source\PSoC4/CapSense_1_CSHL.c ****                     CapSense_1_centroid[CapSense_1_POS_NEXT] = 0u;
1608:.\Generated_Source\PSoC4/CapSense_1_CSHL.c ****                 }
1609:.\Generated_Source\PSoC4/CapSense_1_CSHL.c ****                 else                                /* Not first Not last */
1610:.\Generated_Source\PSoC4/CapSense_1_CSHL.c ****                 {
1611:.\Generated_Source\PSoC4/CapSense_1_CSHL.c ****                     CapSense_1_centroid[CapSense_1_POS_PREV] = startOfSlider[posPrev];
1612:.\Generated_Source\PSoC4/CapSense_1_CSHL.c ****                     CapSense_1_centroid[CapSense_1_POS_NEXT] = startOfSlider[posNext];
1613:.\Generated_Source\PSoC4/CapSense_1_CSHL.c ****                 }
1614:.\Generated_Source\PSoC4/CapSense_1_CSHL.c ****             #endif /* ((CapSense_1_TOTAL_LINEAR_SLIDERS_COUNT>0u)||(CapSense_1_TOTAL_TOUCH_PADS_COU
1615:.\Generated_Source\PSoC4/CapSense_1_CSHL.c **** 
1616:.\Generated_Source\PSoC4/CapSense_1_CSHL.c ****         #if (CapSense_1_ADD_SLIDER_TYPE)
1617:.\Generated_Source\PSoC4/CapSense_1_CSHL.c ****             }
1618:.\Generated_Source\PSoC4/CapSense_1_CSHL.c ****         #endif /* (CapSense_1_ADD_SLIDER_TYPE) */
1619:.\Generated_Source\PSoC4/CapSense_1_CSHL.c ****     
1620:.\Generated_Source\PSoC4/CapSense_1_CSHL.c ****         /* Subtract noiseThreshold */
1621:.\Generated_Source\PSoC4/CapSense_1_CSHL.c ****         if(CapSense_1_centroid[CapSense_1_POS_PREV] > noiseThreshold)
1622:.\Generated_Source\PSoC4/CapSense_1_CSHL.c ****         {
1623:.\Generated_Source\PSoC4/CapSense_1_CSHL.c ****             CapSense_1_centroid[CapSense_1_POS_PREV] -= noiseThreshold;
1624:.\Generated_Source\PSoC4/CapSense_1_CSHL.c ****         }
1625:.\Generated_Source\PSoC4/CapSense_1_CSHL.c ****         else
1626:.\Generated_Source\PSoC4/CapSense_1_CSHL.c ****         {
1627:.\Generated_Source\PSoC4/CapSense_1_CSHL.c ****             CapSense_1_centroid[CapSense_1_POS_PREV] = 0u;
1628:.\Generated_Source\PSoC4/CapSense_1_CSHL.c ****         }
1629:.\Generated_Source\PSoC4/CapSense_1_CSHL.c ****         
1630:.\Generated_Source\PSoC4/CapSense_1_CSHL.c ****         /* Maximum always greater than fingerThreshold, so greater than noiseThreshold */
1631:.\Generated_Source\PSoC4/CapSense_1_CSHL.c ****         CapSense_1_centroid[CapSense_1_POS] -= noiseThreshold;
1632:.\Generated_Source\PSoC4/CapSense_1_CSHL.c ****         
1633:.\Generated_Source\PSoC4/CapSense_1_CSHL.c ****         /* Subtract noiseThreshold */
1634:.\Generated_Source\PSoC4/CapSense_1_CSHL.c ****         if(CapSense_1_centroid[CapSense_1_POS_NEXT] > noiseThreshold)
1635:.\Generated_Source\PSoC4/CapSense_1_CSHL.c ****         {
1636:.\Generated_Source\PSoC4/CapSense_1_CSHL.c ****             CapSense_1_centroid[CapSense_1_POS_NEXT] -= noiseThreshold;
1637:.\Generated_Source\PSoC4/CapSense_1_CSHL.c ****         }
1638:.\Generated_Source\PSoC4/CapSense_1_CSHL.c ****         else
1639:.\Generated_Source\PSoC4/CapSense_1_CSHL.c ****         {
1640:.\Generated_Source\PSoC4/CapSense_1_CSHL.c ****             CapSense_1_centroid[CapSense_1_POS_NEXT] = 0u;
1641:.\Generated_Source\PSoC4/CapSense_1_CSHL.c ****         }
1642:.\Generated_Source\PSoC4/CapSense_1_CSHL.c ****         
1643:.\Generated_Source\PSoC4/CapSense_1_CSHL.c ****         
1644:.\Generated_Source\PSoC4/CapSense_1_CSHL.c ****         /* Si+1 - Si-1 */
1645:.\Generated_Source\PSoC4/CapSense_1_CSHL.c ****         numerator = (uint32) CapSense_1_centroid[CapSense_1_POS_NEXT] -
1646:.\Generated_Source\PSoC4/CapSense_1_CSHL.c ****                     (uint32) CapSense_1_centroid[CapSense_1_POS_PREV];
1647:.\Generated_Source\PSoC4/CapSense_1_CSHL.c **** 
1648:.\Generated_Source\PSoC4/CapSense_1_CSHL.c ****         /* Si+1 + Si + Si-1 */
1649:.\Generated_Source\PSoC4/CapSense_1_CSHL.c ****         denominator = (int32) CapSense_1_centroid[CapSense_1_POS_PREV] + 
1650:.\Generated_Source\PSoC4/CapSense_1_CSHL.c ****                       (int32) CapSense_1_centroid[CapSense_1_POS] + 
1651:.\Generated_Source\PSoC4/CapSense_1_CSHL.c ****                       (int32) CapSense_1_centroid[CapSense_1_POS_NEXT];
1652:.\Generated_Source\PSoC4/CapSense_1_CSHL.c ****         
1653:.\Generated_Source\PSoC4/CapSense_1_CSHL.c ****         /* (numerator/denominator) + maximum */
1654:.\Generated_Source\PSoC4/CapSense_1_CSHL.c ****         denominator = (((int32)(uint32)((uint32)numerator << 8u)/denominator) + (int32)(uint32)((ui
1655:.\Generated_Source\PSoC4/CapSense_1_CSHL.c **** 
1656:.\Generated_Source\PSoC4/CapSense_1_CSHL.c ****         #if(CapSense_1_TOTAL_RADIAL_SLIDERS_COUNT > 0u)
1657:.\Generated_Source\PSoC4/CapSense_1_CSHL.c ****             /* Only required for RADIAL Slider */
1658:.\Generated_Source\PSoC4/CapSense_1_CSHL.c ****             if(denominator < 0)
1659:.\Generated_Source\PSoC4/CapSense_1_CSHL.c ****             {
1660:.\Generated_Source\PSoC4/CapSense_1_CSHL.c ****                 denominator += (int32)((uint16)((uint16) count << 8u));
1661:.\Generated_Source\PSoC4/CapSense_1_CSHL.c ****             }
1662:.\Generated_Source\PSoC4/CapSense_1_CSHL.c ****         #endif /* (CapSense_1_TOTAL_RADIAL_SLIDERS_COUNT > 0u) */
ARM GAS  C:\Users\Jakob\AppData\Local\Temp\cc5GwTcI.s 			page 63


1663:.\Generated_Source\PSoC4/CapSense_1_CSHL.c ****         
1664:.\Generated_Source\PSoC4/CapSense_1_CSHL.c ****         denominator *= (int16)resolution;
1665:.\Generated_Source\PSoC4/CapSense_1_CSHL.c ****         
1666:.\Generated_Source\PSoC4/CapSense_1_CSHL.c ****         /* Round result and put it to uint8 */
1667:.\Generated_Source\PSoC4/CapSense_1_CSHL.c ****         position = ((uint8) HI16((uint32)denominator + CapSense_1_CENTROID_ROUND_VALUE));
1668:.\Generated_Source\PSoC4/CapSense_1_CSHL.c **** 
1669:.\Generated_Source\PSoC4/CapSense_1_CSHL.c ****         return (position);
1670:.\Generated_Source\PSoC4/CapSense_1_CSHL.c ****     }    
1671:.\Generated_Source\PSoC4/CapSense_1_CSHL.c **** #endif /* (CapSense_1_TOTAL_CENTROIDS_COUNT) */
1672:.\Generated_Source\PSoC4/CapSense_1_CSHL.c **** 
1673:.\Generated_Source\PSoC4/CapSense_1_CSHL.c **** 
1674:.\Generated_Source\PSoC4/CapSense_1_CSHL.c **** #if((CapSense_1_TOTAL_RADIAL_SLIDERS_COUNT > 0u) || (CapSense_1_TOTAL_LINEAR_SLIDERS_COUNT > 0u))
1675:.\Generated_Source\PSoC4/CapSense_1_CSHL.c ****     /*******************************************************************************
1676:.\Generated_Source\PSoC4/CapSense_1_CSHL.c ****     * Function Name: CapSense_1_GetCentroidPos
1677:.\Generated_Source\PSoC4/CapSense_1_CSHL.c ****     ********************************************************************************
1678:.\Generated_Source\PSoC4/CapSense_1_CSHL.c ****     *
1679:.\Generated_Source\PSoC4/CapSense_1_CSHL.c ****     * Summary:
1680:.\Generated_Source\PSoC4/CapSense_1_CSHL.c ****     *  Checks the CapSense_1_Signal[ ] array for a centroid within
1681:.\Generated_Source\PSoC4/CapSense_1_CSHL.c ****     *  a slider specified range. The centroid position is calculated according to the resolution
1682:.\Generated_Source\PSoC4/CapSense_1_CSHL.c ****     *  specified in the CapSense customizer. The position filters are applied to the
1683:.\Generated_Source\PSoC4/CapSense_1_CSHL.c ****     *  result if enabled.
1684:.\Generated_Source\PSoC4/CapSense_1_CSHL.c ****     *
1685:.\Generated_Source\PSoC4/CapSense_1_CSHL.c ****     * Parameters:
1686:.\Generated_Source\PSoC4/CapSense_1_CSHL.c ****     *  widget:  Widget number.
1687:.\Generated_Source\PSoC4/CapSense_1_CSHL.c ****     *  For every linear slider widget there are defines in this format:
1688:.\Generated_Source\PSoC4/CapSense_1_CSHL.c ****     *  #define CapSense_1_"widget_name"__LS           5
1689:.\Generated_Source\PSoC4/CapSense_1_CSHL.c ****     * 
1690:.\Generated_Source\PSoC4/CapSense_1_CSHL.c ****     * Return:
1691:.\Generated_Source\PSoC4/CapSense_1_CSHL.c ****     *  Returns a position value of the linear slider.
1692:.\Generated_Source\PSoC4/CapSense_1_CSHL.c **** 	*
1693:.\Generated_Source\PSoC4/CapSense_1_CSHL.c **** 	* Global Variables:
1694:.\Generated_Source\PSoC4/CapSense_1_CSHL.c **** 	*  None
1695:.\Generated_Source\PSoC4/CapSense_1_CSHL.c **** 	*
1696:.\Generated_Source\PSoC4/CapSense_1_CSHL.c ****     * Side Effects:
1697:.\Generated_Source\PSoC4/CapSense_1_CSHL.c ****     *  If any sensor within the slider widget is active, the function returns values
1698:.\Generated_Source\PSoC4/CapSense_1_CSHL.c ****     *  from zero to the API resolution value set in the CapSense customizer. If no
1699:.\Generated_Source\PSoC4/CapSense_1_CSHL.c ****     *  sensors are active, the function returns 0xFFFF. If an error occurs during
1700:.\Generated_Source\PSoC4/CapSense_1_CSHL.c ****     *  execution of the centroid/diplexing algorithm, the function returns 0xFFFF.
1701:.\Generated_Source\PSoC4/CapSense_1_CSHL.c ****     *  There are no checks of the widget type argument provided to this function.
1702:.\Generated_Source\PSoC4/CapSense_1_CSHL.c ****     *  The unproper widget type provided will cause unexpected position calculations.
1703:.\Generated_Source\PSoC4/CapSense_1_CSHL.c ****     *
1704:.\Generated_Source\PSoC4/CapSense_1_CSHL.c ****     * Note:
1705:.\Generated_Source\PSoC4/CapSense_1_CSHL.c ****     *  If noise counts on the slider segments are greater than the noise
1706:.\Generated_Source\PSoC4/CapSense_1_CSHL.c ****     *  threshold, this subroutine may generate a false centroid result. The noise
1707:.\Generated_Source\PSoC4/CapSense_1_CSHL.c ****     *  threshold should be set carefully (high enough above the noise level) so
1708:.\Generated_Source\PSoC4/CapSense_1_CSHL.c ****     *  that noise will not generate a false centroid.
1709:.\Generated_Source\PSoC4/CapSense_1_CSHL.c ****     *******************************************************************************/
1710:.\Generated_Source\PSoC4/CapSense_1_CSHL.c ****     uint16 CapSense_1_GetCentroidPos(uint32 widget)
1711:.\Generated_Source\PSoC4/CapSense_1_CSHL.c ****     {
1712:.\Generated_Source\PSoC4/CapSense_1_CSHL.c ****         #if (CapSense_1_IS_DIPLEX_SLIDER)
1713:.\Generated_Source\PSoC4/CapSense_1_CSHL.c ****             const uint8 *diplex;
1714:.\Generated_Source\PSoC4/CapSense_1_CSHL.c ****         #endif /* (CapSense_1_IS_DIPLEX_SLIDER) */
1715:.\Generated_Source\PSoC4/CapSense_1_CSHL.c ****                 
1716:.\Generated_Source\PSoC4/CapSense_1_CSHL.c ****         #if (0u != CapSense_1_LINEAR_SLIDERS_POS_FILTERS_MASK)
1717:.\Generated_Source\PSoC4/CapSense_1_CSHL.c ****             uint8 posIndex;
1718:.\Generated_Source\PSoC4/CapSense_1_CSHL.c ****             uint8 firstTimeIndex = CapSense_1_posFiltersData[widget];
1719:.\Generated_Source\PSoC4/CapSense_1_CSHL.c ****             uint8 posFiltersMask = CapSense_1_posFiltersMask[widget];  
ARM GAS  C:\Users\Jakob\AppData\Local\Temp\cc5GwTcI.s 			page 64


1720:.\Generated_Source\PSoC4/CapSense_1_CSHL.c ****         #endif /* (0u != CapSense_1_LINEAR_SLIDERS_POS_FILTERS_MASK) */
1721:.\Generated_Source\PSoC4/CapSense_1_CSHL.c **** 
1722:.\Generated_Source\PSoC4/CapSense_1_CSHL.c ****         #if ((0u != (CapSense_1_MEDIAN_FILTER & CapSense_1_LINEAR_SLIDERS_POS_FILTERS_MASK)) || \
1723:.\Generated_Source\PSoC4/CapSense_1_CSHL.c ****              (0u != (CapSense_1_AVERAGING_FILTER & CapSense_1_LINEAR_SLIDERS_POS_FILTERS_MASK)))
1724:.\Generated_Source\PSoC4/CapSense_1_CSHL.c ****             uint8 tempPos;
1725:.\Generated_Source\PSoC4/CapSense_1_CSHL.c ****         #endif /* ((0u != (CapSense_1_MEDIAN_FILTER & CapSense_1_LINEAR_SLIDERS_POS_FILTERS_MASK)) 
1726:.\Generated_Source\PSoC4/CapSense_1_CSHL.c ****                *   (0u != (CapSense_1_AVERAGING_FILTER & CapSense_1_LINEAR_SLIDERS_POS_FILTERS_MASK
1727:.\Generated_Source\PSoC4/CapSense_1_CSHL.c ****                */
1728:.\Generated_Source\PSoC4/CapSense_1_CSHL.c **** 
1729:.\Generated_Source\PSoC4/CapSense_1_CSHL.c ****         uint8 maximum;
1730:.\Generated_Source\PSoC4/CapSense_1_CSHL.c ****         uint16 position;
1731:.\Generated_Source\PSoC4/CapSense_1_CSHL.c ****         uint8 offset = CapSense_1_rawDataIndex[widget];
1732:.\Generated_Source\PSoC4/CapSense_1_CSHL.c ****         uint8 count = CapSense_1_numberOfSensors[widget];
1733:.\Generated_Source\PSoC4/CapSense_1_CSHL.c ****                         
1734:.\Generated_Source\PSoC4/CapSense_1_CSHL.c ****         #if (CapSense_1_IS_DIPLEX_SLIDER)
1735:.\Generated_Source\PSoC4/CapSense_1_CSHL.c ****             if(widget < CapSense_1_TOTAL_DIPLEXED_SLIDERS_COUNT)
1736:.\Generated_Source\PSoC4/CapSense_1_CSHL.c ****             {
1737:.\Generated_Source\PSoC4/CapSense_1_CSHL.c ****                 maximum = CapSense_1_diplexTable[widget];
1738:.\Generated_Source\PSoC4/CapSense_1_CSHL.c ****                 diplex = &CapSense_1_diplexTable[maximum];
1739:.\Generated_Source\PSoC4/CapSense_1_CSHL.c ****             }
1740:.\Generated_Source\PSoC4/CapSense_1_CSHL.c ****             else
1741:.\Generated_Source\PSoC4/CapSense_1_CSHL.c ****             {
1742:.\Generated_Source\PSoC4/CapSense_1_CSHL.c ****                 diplex = 0u;
1743:.\Generated_Source\PSoC4/CapSense_1_CSHL.c ****             }
1744:.\Generated_Source\PSoC4/CapSense_1_CSHL.c ****         #endif /* (CapSense_1_IS_DIPLEX_SLIDER) */
1745:.\Generated_Source\PSoC4/CapSense_1_CSHL.c **** 
1746:.\Generated_Source\PSoC4/CapSense_1_CSHL.c **** 		/* Find Maximum within centroid */      
1747:.\Generated_Source\PSoC4/CapSense_1_CSHL.c **** 		#if (CapSense_1_IS_DIPLEX_SLIDER)        
1748:.\Generated_Source\PSoC4/CapSense_1_CSHL.c **** 			maximum = CapSense_1_FindMaximum(offset, count, (uint8)CapSense_1_fingerThreshold[widget], diple
1749:.\Generated_Source\PSoC4/CapSense_1_CSHL.c **** 		#else
1750:.\Generated_Source\PSoC4/CapSense_1_CSHL.c **** 			maximum = CapSense_1_FindMaximum(offset, count, (uint8)CapSense_1_fingerThreshold[widget]);
1751:.\Generated_Source\PSoC4/CapSense_1_CSHL.c **** 		#endif /* (CapSense_1_IS_DIPLEX_SLIDER) */
1752:.\Generated_Source\PSoC4/CapSense_1_CSHL.c **** 
1753:.\Generated_Source\PSoC4/CapSense_1_CSHL.c ****         if (maximum != 0xFFu)
1754:.\Generated_Source\PSoC4/CapSense_1_CSHL.c ****         {
1755:.\Generated_Source\PSoC4/CapSense_1_CSHL.c ****             /* Calculate centroid */
1756:.\Generated_Source\PSoC4/CapSense_1_CSHL.c ****             position = (uint16) CapSense_1_CalcCentroid(maximum, 
1757:.\Generated_Source\PSoC4/CapSense_1_CSHL.c ****                          offset, count, CapSense_1_centroidMult[widget], CapSense_1_noiseThreshold[
1758:.\Generated_Source\PSoC4/CapSense_1_CSHL.c **** 
1759:.\Generated_Source\PSoC4/CapSense_1_CSHL.c ****             #if (0u != CapSense_1_LINEAR_SLIDERS_POS_FILTERS_MASK)
1760:.\Generated_Source\PSoC4/CapSense_1_CSHL.c ****                 /* Check if this linear slider has enabled filters */
1761:.\Generated_Source\PSoC4/CapSense_1_CSHL.c ****                 if (0u != (posFiltersMask & CapSense_1_ANY_POS_FILTER))
1762:.\Generated_Source\PSoC4/CapSense_1_CSHL.c ****                 {
1763:.\Generated_Source\PSoC4/CapSense_1_CSHL.c ****                     /* Calculate position to store filters data */
1764:.\Generated_Source\PSoC4/CapSense_1_CSHL.c ****                     posIndex  = firstTimeIndex + 1u;
1765:.\Generated_Source\PSoC4/CapSense_1_CSHL.c ****                     
1766:.\Generated_Source\PSoC4/CapSense_1_CSHL.c ****                     if (0u == CapSense_1_posFiltersData[firstTimeIndex])
1767:.\Generated_Source\PSoC4/CapSense_1_CSHL.c ****                     {
1768:.\Generated_Source\PSoC4/CapSense_1_CSHL.c ****                         /* Init filters */
1769:.\Generated_Source\PSoC4/CapSense_1_CSHL.c ****                         CapSense_1_posFiltersData[posIndex] = (uint8) position;
1770:.\Generated_Source\PSoC4/CapSense_1_CSHL.c ****                         #if ((0u != (CapSense_1_MEDIAN_FILTER & \
1771:.\Generated_Source\PSoC4/CapSense_1_CSHL.c ****                                      CapSense_1_LINEAR_SLIDERS_POS_FILTERS_MASK)) || \
1772:.\Generated_Source\PSoC4/CapSense_1_CSHL.c ****                              (0u != (CapSense_1_AVERAGING_FILTER & \
1773:.\Generated_Source\PSoC4/CapSense_1_CSHL.c ****                                      CapSense_1_LINEAR_SLIDERS_POS_FILTERS_MASK)))
1774:.\Generated_Source\PSoC4/CapSense_1_CSHL.c **** 
1775:.\Generated_Source\PSoC4/CapSense_1_CSHL.c ****                             if ( (0u != (posFiltersMask & CapSense_1_MEDIAN_FILTER)) || 
1776:.\Generated_Source\PSoC4/CapSense_1_CSHL.c ****                                  (0u != (posFiltersMask & CapSense_1_AVERAGING_FILTER)) )
ARM GAS  C:\Users\Jakob\AppData\Local\Temp\cc5GwTcI.s 			page 65


1777:.\Generated_Source\PSoC4/CapSense_1_CSHL.c ****                             {
1778:.\Generated_Source\PSoC4/CapSense_1_CSHL.c ****                                 CapSense_1_posFiltersData[posIndex + 1u] = (uint8) position;
1779:.\Generated_Source\PSoC4/CapSense_1_CSHL.c ****                             }
1780:.\Generated_Source\PSoC4/CapSense_1_CSHL.c ****                         #endif /* ((0u != (CapSense_1_MEDIAN_FILTER & \
1781:.\Generated_Source\PSoC4/CapSense_1_CSHL.c ****                                *           CapSense_1_LINEAR_SLIDERS_POS_FILTERS_MASK)) || \
1782:.\Generated_Source\PSoC4/CapSense_1_CSHL.c ****                                *   (0u != (CapSense_1_AVERAGING_FILTER & \
1783:.\Generated_Source\PSoC4/CapSense_1_CSHL.c ****                                *           CapSense_1_LINEAR_SLIDERS_POS_FILTERS_MASK)))
1784:.\Generated_Source\PSoC4/CapSense_1_CSHL.c ****                                */
1785:.\Generated_Source\PSoC4/CapSense_1_CSHL.c ****                         
1786:.\Generated_Source\PSoC4/CapSense_1_CSHL.c ****                         CapSense_1_posFiltersData[firstTimeIndex] = 1u;
1787:.\Generated_Source\PSoC4/CapSense_1_CSHL.c ****                     }
1788:.\Generated_Source\PSoC4/CapSense_1_CSHL.c ****                     else
1789:.\Generated_Source\PSoC4/CapSense_1_CSHL.c ****                     {
1790:.\Generated_Source\PSoC4/CapSense_1_CSHL.c ****                         /* Do filtering */
1791:.\Generated_Source\PSoC4/CapSense_1_CSHL.c ****                         #if (0u != (CapSense_1_MEDIAN_FILTER & CapSense_1_LINEAR_SLIDERS_POS_FILTER
1792:.\Generated_Source\PSoC4/CapSense_1_CSHL.c ****                             if (0u != (posFiltersMask & CapSense_1_MEDIAN_FILTER))
1793:.\Generated_Source\PSoC4/CapSense_1_CSHL.c ****                             {
1794:.\Generated_Source\PSoC4/CapSense_1_CSHL.c ****                                 tempPos = (uint8) position;
1795:.\Generated_Source\PSoC4/CapSense_1_CSHL.c ****                                 position = CapSense_1_MedianFilter(position,
1796:.\Generated_Source\PSoC4/CapSense_1_CSHL.c ****                                                                 (uint16)CapSense_1_posFiltersData[p
1797:.\Generated_Source\PSoC4/CapSense_1_CSHL.c ****                                                                 (uint16)CapSense_1_posFiltersData[p
1798:.\Generated_Source\PSoC4/CapSense_1_CSHL.c ****                                 CapSense_1_posFiltersData[posIndex + 1u] =
1799:.\Generated_Source\PSoC4/CapSense_1_CSHL.c ****                                                                              CapSense_1_posFiltersD
1800:.\Generated_Source\PSoC4/CapSense_1_CSHL.c ****                                 CapSense_1_posFiltersData[posIndex] = tempPos;
1801:.\Generated_Source\PSoC4/CapSense_1_CSHL.c ****                             }
1802:.\Generated_Source\PSoC4/CapSense_1_CSHL.c ****                         #endif /*(0u != (CapSense_1_MEDIAN_FILTER &
1803:.\Generated_Source\PSoC4/CapSense_1_CSHL.c ****                                *         CapSense_1_LINEAR_SLIDERS_POS_FILTERS_MASK))
1804:.\Generated_Source\PSoC4/CapSense_1_CSHL.c ****                                */
1805:.\Generated_Source\PSoC4/CapSense_1_CSHL.c **** 
1806:.\Generated_Source\PSoC4/CapSense_1_CSHL.c ****                         #if(0u!=(CapSense_1_AVERAGING_FILTER & CapSense_1_LINEAR_SLIDERS_POS_FILTER
1807:.\Generated_Source\PSoC4/CapSense_1_CSHL.c ****                             if (0u != (posFiltersMask & CapSense_1_AVERAGING_FILTER)) 
1808:.\Generated_Source\PSoC4/CapSense_1_CSHL.c ****                             {
1809:.\Generated_Source\PSoC4/CapSense_1_CSHL.c ****                                 tempPos = (uint8) position;
1810:.\Generated_Source\PSoC4/CapSense_1_CSHL.c ****                                 position = CapSense_1_AveragingFilter(position,
1811:.\Generated_Source\PSoC4/CapSense_1_CSHL.c ****                                                                 (uint16)CapSense_1_posFiltersData[p
1812:.\Generated_Source\PSoC4/CapSense_1_CSHL.c ****                                                                 (uint16)CapSense_1_posFiltersData[p
1813:.\Generated_Source\PSoC4/CapSense_1_CSHL.c ****                                 CapSense_1_posFiltersData[posIndex+1u]=CapSense_1_posFiltersData[po
1814:.\Generated_Source\PSoC4/CapSense_1_CSHL.c ****                                 CapSense_1_posFiltersData[posIndex] = tempPos;
1815:.\Generated_Source\PSoC4/CapSense_1_CSHL.c ****                             }
1816:.\Generated_Source\PSoC4/CapSense_1_CSHL.c ****                         #endif /* (0u != (CapSense_1_AVERAGING_FILTER & \
1817:.\Generated_Source\PSoC4/CapSense_1_CSHL.c ****                                *           CapSense_1_LINEAR_SLIDERS_POS_FILTERS_MASK))
1818:.\Generated_Source\PSoC4/CapSense_1_CSHL.c ****                                */
1819:.\Generated_Source\PSoC4/CapSense_1_CSHL.c **** 
1820:.\Generated_Source\PSoC4/CapSense_1_CSHL.c ****                         #if (0u != (CapSense_1_IIR2_FILTER & CapSense_1_LINEAR_SLIDERS_POS_FILTERS_
1821:.\Generated_Source\PSoC4/CapSense_1_CSHL.c ****                             if (0u != (posFiltersMask & CapSense_1_IIR2_FILTER)) 
1822:.\Generated_Source\PSoC4/CapSense_1_CSHL.c ****                             {
1823:.\Generated_Source\PSoC4/CapSense_1_CSHL.c ****                                 position = CapSense_1_IIR2Filter(position,
1824:.\Generated_Source\PSoC4/CapSense_1_CSHL.c ****                                                                     (uint16)CapSense_1_posFiltersDa
1825:.\Generated_Source\PSoC4/CapSense_1_CSHL.c ****                                 CapSense_1_posFiltersData[posIndex] = (uint8) position;
1826:.\Generated_Source\PSoC4/CapSense_1_CSHL.c ****                             }
1827:.\Generated_Source\PSoC4/CapSense_1_CSHL.c ****                         #endif /* (0u != (CapSense_1_IIR2_FILTER & \
1828:.\Generated_Source\PSoC4/CapSense_1_CSHL.c ****                                *          CapSense_1_LINEAR_SLIDERS_POS_FILTERS_MASK))
1829:.\Generated_Source\PSoC4/CapSense_1_CSHL.c ****                                */
1830:.\Generated_Source\PSoC4/CapSense_1_CSHL.c **** 
1831:.\Generated_Source\PSoC4/CapSense_1_CSHL.c ****                         #if (0u != (CapSense_1_IIR4_FILTER & CapSense_1_LINEAR_SLIDERS_POS_FILTERS_
1832:.\Generated_Source\PSoC4/CapSense_1_CSHL.c ****                             if (0u != (posFiltersMask & CapSense_1_IIR4_FILTER))
1833:.\Generated_Source\PSoC4/CapSense_1_CSHL.c ****                             {
ARM GAS  C:\Users\Jakob\AppData\Local\Temp\cc5GwTcI.s 			page 66


1834:.\Generated_Source\PSoC4/CapSense_1_CSHL.c ****                                 position = CapSense_1_IIR4Filter(position,
1835:.\Generated_Source\PSoC4/CapSense_1_CSHL.c ****                                                                     (uint16)CapSense_1_posFiltersDa
1836:.\Generated_Source\PSoC4/CapSense_1_CSHL.c ****                                 CapSense_1_posFiltersData[posIndex] = (uint8) position;
1837:.\Generated_Source\PSoC4/CapSense_1_CSHL.c ****                             }                                
1838:.\Generated_Source\PSoC4/CapSense_1_CSHL.c ****                         #endif /* (0u != (CapSense_1_IIR4_FILTER & \
1839:.\Generated_Source\PSoC4/CapSense_1_CSHL.c ****                                *          CapSense_1_LINEAR_SLIDERS_POS_FILTERS_MASK))
1840:.\Generated_Source\PSoC4/CapSense_1_CSHL.c ****                                */
1841:.\Generated_Source\PSoC4/CapSense_1_CSHL.c **** 
1842:.\Generated_Source\PSoC4/CapSense_1_CSHL.c ****                         #if (0u != (CapSense_1_JITTER_FILTER & CapSense_1_LINEAR_SLIDERS_POS_FILTER
1843:.\Generated_Source\PSoC4/CapSense_1_CSHL.c ****                             if (0u != (posFiltersMask & CapSense_1_JITTER_FILTER))
1844:.\Generated_Source\PSoC4/CapSense_1_CSHL.c ****                             {
1845:.\Generated_Source\PSoC4/CapSense_1_CSHL.c ****                                 position = CapSense_1_JitterFilter(position,
1846:.\Generated_Source\PSoC4/CapSense_1_CSHL.c ****                                                                     (uint16)CapSense_1_posFiltersDa
1847:.\Generated_Source\PSoC4/CapSense_1_CSHL.c ****                                 CapSense_1_posFiltersData[posIndex] = (uint8) position;
1848:.\Generated_Source\PSoC4/CapSense_1_CSHL.c ****                             }
1849:.\Generated_Source\PSoC4/CapSense_1_CSHL.c ****                         #endif /* (0u != (CapSense_1_JITTER_FILTER & \
1850:.\Generated_Source\PSoC4/CapSense_1_CSHL.c ****                                *           CapSense_1_LINEAR_SLIDERS_POS_FILTERS_MASK))
1851:.\Generated_Source\PSoC4/CapSense_1_CSHL.c ****                                */
1852:.\Generated_Source\PSoC4/CapSense_1_CSHL.c ****                     }
1853:.\Generated_Source\PSoC4/CapSense_1_CSHL.c ****                 }
1854:.\Generated_Source\PSoC4/CapSense_1_CSHL.c ****             #endif /* (0u != CapSense_1_LINEAR_SLIDERS_POS_FILTERS_MASK) */
1855:.\Generated_Source\PSoC4/CapSense_1_CSHL.c **** 
1856:.\Generated_Source\PSoC4/CapSense_1_CSHL.c ****         }
1857:.\Generated_Source\PSoC4/CapSense_1_CSHL.c ****         else
1858:.\Generated_Source\PSoC4/CapSense_1_CSHL.c ****         {
1859:.\Generated_Source\PSoC4/CapSense_1_CSHL.c ****             /* Maximum wasn't found */
1860:.\Generated_Source\PSoC4/CapSense_1_CSHL.c ****             position = 0xFFFFu;
1861:.\Generated_Source\PSoC4/CapSense_1_CSHL.c **** 
1862:.\Generated_Source\PSoC4/CapSense_1_CSHL.c ****             #if(0u != CapSense_1_LINEAR_SLIDERS_POS_FILTERS_MASK)
1863:.\Generated_Source\PSoC4/CapSense_1_CSHL.c ****                 /* Reset filters */
1864:.\Generated_Source\PSoC4/CapSense_1_CSHL.c ****                 if(0u != (posFiltersMask & CapSense_1_ANY_POS_FILTER))
1865:.\Generated_Source\PSoC4/CapSense_1_CSHL.c ****                 {
