ARM GAS  C:\Users\JAKOB-~1\AppData\Local\Temp\cc1V8NJt.s 			page 1


   1              		.cpu cortex-m0
   2              		.fpu softvfp
   3              		.eabi_attribute 20, 1
   4              		.eabi_attribute 21, 1
   5              		.eabi_attribute 23, 3
   6              		.eabi_attribute 24, 1
   7              		.eabi_attribute 25, 1
   8              		.eabi_attribute 26, 1
   9              		.eabi_attribute 30, 6
  10              		.eabi_attribute 34, 0
  11              		.eabi_attribute 18, 4
  12              		.code	16
  13              		.file	"main.c"
  14              		.text
  15              	.Ltext0:
  16              		.cfi_sections	.debug_frame
  17              		.section	.text.main,"ax",%progbits
  18              		.align	2
  19              		.global	main
  20              		.code	16
  21              		.thumb_func
  22              		.type	main, %function
  23              	main:
  24              	.LFB33:
  25              		.file 1 ".\\main.c"
   1:.\main.c      **** #include <project.h>
   2:.\main.c      **** #include "sensorPackage.h"
   3:.\main.c      **** 
   4:.\main.c      **** int main()
   5:.\main.c      **** {  
  26              		.loc 1 5 0
  27              		.cfi_startproc
  28 0000 80B5     		push	{r7, lr}
  29              	.LCFI0:
  30              		.cfi_def_cfa_offset 8
  31              		.cfi_offset 7, -8
  32              		.cfi_offset 14, -4
  33 0002 82B0     		sub	sp, sp, #8
  34              	.LCFI1:
  35              		.cfi_def_cfa_offset 16
  36 0004 00AF     		add	r7, sp, #0
  37              	.LCFI2:
  38              		.cfi_def_cfa_register 7
  39              	.L2:
  40              	.LBB2:
   6:.\main.c      ****     for(;;)
   7:.\main.c      ****     {
   8:.\main.c      ****     sensorPackage_init();
  41              		.loc 1 8 0 discriminator 1
  42 0006 FFF7FEFF 		bl	sensorPackage_init
   9:.\main.c      ****     
  10:.\main.c      ****     //Varibles to hold sensor data
  11:.\main.c      ****     float temp = 0;
  43              		.loc 1 11 0 discriminator 1
  44 000a 0023     		mov	r3, #0
  45 000c 7B60     		str	r3, [r7, #4]
  12:.\main.c      ****     float humi = 0;
ARM GAS  C:\Users\JAKOB-~1\AppData\Local\Temp\cc1V8NJt.s 			page 2


  46              		.loc 1 12 0 discriminator 1
  47 000e 0023     		mov	r3, #0
  48 0010 3B60     		str	r3, [r7]
  13:.\main.c      ****     
  14:.\main.c      ****     sensorPackage_getData(&temp, &humi);  
  49              		.loc 1 14 0 discriminator 1
  50 0012 3A1D     		add	r2, r7, #4
  51 0014 3B1C     		mov	r3, r7
  52 0016 101C     		mov	r0, r2
  53 0018 191C     		mov	r1, r3
  54 001a FFF7FEFF 		bl	sensorPackage_getData
  55              	.LBE2:
  15:.\main.c      ****     }
  56              		.loc 1 15 0 discriminator 1
  57 001e F2E7     		b	.L2
  58              		.cfi_endproc
  59              	.LFE33:
  60              		.size	main, .-main
  61              		.text
  62              	.Letext0: