ARM GAS  C:\Users\JAKOB-~1\AppData\Local\Temp\cchgN1kW.s 			page 1


   1              		.cpu cortex-m0
   2              		.fpu softvfp
   3              		.eabi_attribute 20, 1
   4              		.eabi_attribute 21, 1
   5              		.eabi_attribute 23, 3
   6              		.eabi_attribute 24, 1
   7              		.eabi_attribute 25, 1
   8              		.eabi_attribute 26, 1
   9              		.eabi_attribute 30, 6
  10              		.eabi_attribute 34, 0
  11              		.eabi_attribute 18, 4
  12              		.code	16
  13              		.file	"tempSensor.c"
  14              		.text
  15              	.Ltext0:
  16              		.cfi_sections	.debug_frame
  17              		.section	.text.tempSensor_init,"ax",%progbits
  18              		.align	2
  19              		.global	tempSensor_init
  20              		.code	16
  21              		.thumb_func
  22              		.type	tempSensor_init, %function
  23              	tempSensor_init:
  24              	.LFB33:
  25              		.file 1 ".\\tempSensor.c"
   1:.\tempSensor.c **** //tempSensor.c
   2:.\tempSensor.c **** //
   3:.\tempSensor.c **** //Author: Jakob Schmidt
   4:.\tempSensor.c **** //Version: 1.2
   5:.\tempSensor.c **** //Date: 14-11-14
   6:.\tempSensor.c **** 
   7:.\tempSensor.c **** #include "tempSensor.h"
   8:.\tempSensor.c **** #include "sensorPackage.h"
   9:.\tempSensor.c **** 
  10:.\tempSensor.c **** #define CHANNEL_1 0
  11:.\tempSensor.c **** 
  12:.\tempSensor.c **** void tempSensor_init()
  13:.\tempSensor.c **** {
  26              		.loc 1 13 0
  27              		.cfi_startproc
  28 0000 80B5     		push	{r7, lr}
  29              	.LCFI0:
  30              		.cfi_def_cfa_offset 8
  31              		.cfi_offset 7, -8
  32              		.cfi_offset 14, -4
  33 0002 00AF     		add	r7, sp, #0
  34              	.LCFI1:
  35              		.cfi_def_cfa_register 7
  14:.\tempSensor.c ****    //Do nothing
  15:.\tempSensor.c **** }
  36              		.loc 1 15 0
  37 0004 BD46     		mov	sp, r7
  38              		@ sp needed for prologue
  39 0006 80BD     		pop	{r7, pc}
  40              		.cfi_endproc
  41              	.LFE33:
  42              		.size	tempSensor_init, .-tempSensor_init
ARM GAS  C:\Users\JAKOB-~1\AppData\Local\Temp\cchgN1kW.s 			page 2


  43              		.section	.text.tempSensor_exit,"ax",%progbits
  44              		.align	2
  45              		.global	tempSensor_exit
  46              		.code	16
  47              		.thumb_func
  48              		.type	tempSensor_exit, %function
  49              	tempSensor_exit:
  50              	.LFB34:
  16:.\tempSensor.c **** 
  17:.\tempSensor.c **** 
  18:.\tempSensor.c **** void tempSensor_exit()
  19:.\tempSensor.c **** {
  51              		.loc 1 19 0
  52              		.cfi_startproc
  53 0000 80B5     		push	{r7, lr}
  54              	.LCFI2:
  55              		.cfi_def_cfa_offset 8
  56              		.cfi_offset 7, -8
  57              		.cfi_offset 14, -4
  58 0002 00AF     		add	r7, sp, #0
  59              	.LCFI3:
  60              		.cfi_def_cfa_register 7
  20:.\tempSensor.c ****     //Do nothing
  21:.\tempSensor.c **** }
  61              		.loc 1 21 0
  62 0004 BD46     		mov	sp, r7
  63              		@ sp needed for prologue
  64 0006 80BD     		pop	{r7, pc}
  65              		.cfi_endproc
  66              	.LFE34:
  67              		.size	tempSensor_exit, .-tempSensor_exit
  68              		.global	__aeabi_f2d
  69              		.global	__aeabi_ddiv
  70              		.global	__aeabi_d2f
  71              		.global	__aeabi_dmul
  72              		.global	__aeabi_dsub
  73              		.section	.text.tempSensor_getValue,"ax",%progbits
  74              		.align	2
  75              		.global	tempSensor_getValue
  76              		.code	16
  77              		.thumb_func
  78              		.type	tempSensor_getValue, %function
  79              	tempSensor_getValue:
  80              	.LFB35:
  22:.\tempSensor.c **** 
  23:.\tempSensor.c **** 
  24:.\tempSensor.c **** //Public methods implementation
  25:.\tempSensor.c **** int tempSensor_getValue(float *val)
  26:.\tempSensor.c **** {
  81              		.loc 1 26 0
  82              		.cfi_startproc
  83 0000 90B5     		push	{r4, r7, lr}
  84              	.LCFI4:
  85              		.cfi_def_cfa_offset 12
  86              		.cfi_offset 4, -12
  87              		.cfi_offset 7, -8
  88              		.cfi_offset 14, -4
ARM GAS  C:\Users\JAKOB-~1\AppData\Local\Temp\cchgN1kW.s 			page 3


  89 0002 87B0     		sub	sp, sp, #28
  90              	.LCFI5:
  91              		.cfi_def_cfa_offset 40
  92 0004 00AF     		add	r7, sp, #0
  93              	.LCFI6:
  94              		.cfi_def_cfa_register 7
  95 0006 7860     		str	r0, [r7, #4]
  27:.\tempSensor.c ****     //Varibles
  28:.\tempSensor.c ****     int16 ADCresult;
  29:.\tempSensor.c ****     //uint8 ADC_Channel = 0;
  30:.\tempSensor.c ****     uint8 select = 0;
  96              		.loc 1 30 0
  97 0008 3B1C     		mov	r3, r7
  98 000a 1733     		add	r3, r3, #23
  99 000c 0022     		mov	r2, #0
 100 000e 1A70     		strb	r2, [r3]
  31:.\tempSensor.c ****     float vin_result;
  32:.\tempSensor.c ****     float pwm_result;
  33:.\tempSensor.c ****     
  34:.\tempSensor.c ****     //Set SCL low for temp data out
  35:.\tempSensor.c ****     P_FT2_Write(select);
 101              		.loc 1 35 0
 102 0010 3B1C     		mov	r3, r7
 103 0012 1733     		add	r3, r3, #23
 104 0014 1B78     		ldrb	r3, [r3]
 105 0016 181C     		mov	r0, r3
 106 0018 FFF7FEFF 		bl	P_FT2_Write
  36:.\tempSensor.c ****     
  37:.\tempSensor.c ****     //Wait 1000 ms
  38:.\tempSensor.c ****     CyDelay(1000);
 107              		.loc 1 38 0
 108 001c FA23     		mov	r3, #250
 109 001e 9B00     		lsl	r3, r3, #2
 110 0020 181C     		mov	r0, r3
 111 0022 FFF7FEFF 		bl	CyDelay
  39:.\tempSensor.c ****     
  40:.\tempSensor.c ****     //Start conversion
  41:.\tempSensor.c ****     ADC_SAR_Seq_0_StartConvert();
 112              		.loc 1 41 0
 113 0026 FFF7FEFF 		bl	ADC_SAR_Seq_0_StartConvert
  42:.\tempSensor.c ****     
  43:.\tempSensor.c ****     //Wait until conversion is done
  44:.\tempSensor.c ****     ADC_SAR_Seq_0_IsEndConversion(ADC_SAR_Seq_0_WAIT_FOR_RESULT);
 114              		.loc 1 44 0
 115 002a 0220     		mov	r0, #2
 116 002c FFF7FEFF 		bl	ADC_SAR_Seq_0_IsEndConversion
  45:.\tempSensor.c ****     
  46:.\tempSensor.c ****     //Read value from ADC register
  47:.\tempSensor.c ****     ADCresult = ADC_SAR_Seq_0_GetResult16(CHANNEL_1);
 117              		.loc 1 47 0
 118 0030 3C1C     		mov	r4, r7
 119 0032 1434     		add	r4, r4, #20
 120 0034 0020     		mov	r0, #0
 121 0036 FFF7FEFF 		bl	ADC_SAR_Seq_0_GetResult16
 122 003a 031C     		mov	r3, r0
 123 003c 2380     		strh	r3, [r4]
  48:.\tempSensor.c **** 
ARM GAS  C:\Users\JAKOB-~1\AppData\Local\Temp\cchgN1kW.s 			page 4


  49:.\tempSensor.c ****     //Convert to voltage
  50:.\tempSensor.c ****     vin_result = ADC_SAR_Seq_0_CountsTo_Volts(CHANNEL_1, ADCresult);
 124              		.loc 1 50 0
 125 003e 3B1C     		mov	r3, r7
 126 0040 1433     		add	r3, r3, #20
 127 0042 0022     		mov	r2, #0
 128 0044 9B5E     		ldrsh	r3, [r3, r2]
 129 0046 0020     		mov	r0, #0
 130 0048 191C     		mov	r1, r3
 131 004a FFF7FEFF 		bl	ADC_SAR_Seq_0_CountsTo_Volts
 132 004e 031C     		add	r3, r0, #0
 133 0050 3B61     		str	r3, [r7, #16]
  51:.\tempSensor.c **** 
  52:.\tempSensor.c ****     //Conver from voltage to PWM
  53:.\tempSensor.c ****     pwm_result = (vin_result/vin_max);
 134              		.loc 1 53 0
 135 0052 3869     		ldr	r0, [r7, #16]
 136 0054 FFF7FEFF 		bl	__aeabi_f2d
 137 0058 031C     		mov	r3, r0
 138 005a 0C1C     		mov	r4, r1
 139 005c 181C     		mov	r0, r3
 140 005e 211C     		mov	r1, r4
 141 0060 184B     		ldr	r3, .L5+4
 142 0062 174A     		ldr	r2, .L5
 143 0064 FFF7FEFF 		bl	__aeabi_ddiv
 144 0068 031C     		mov	r3, r0
 145 006a 0C1C     		mov	r4, r1
 146 006c 181C     		mov	r0, r3
 147 006e 211C     		mov	r1, r4
 148 0070 FFF7FEFF 		bl	__aeabi_d2f
 149 0074 031C     		add	r3, r0, #0
 150 0076 FB60     		str	r3, [r7, #12]
  54:.\tempSensor.c ****     
  55:.\tempSensor.c ****     //Store trueData in val pointer
  56:.\tempSensor.c ****     *val = -46.85+175.72*(pwm_result);
 151              		.loc 1 56 0
 152 0078 F868     		ldr	r0, [r7, #12]
 153 007a FFF7FEFF 		bl	__aeabi_f2d
 154 007e 031C     		mov	r3, r0
 155 0080 0C1C     		mov	r4, r1
 156 0082 181C     		mov	r0, r3
 157 0084 211C     		mov	r1, r4
 158 0086 104A     		ldr	r2, .L5+8
 159 0088 104B     		ldr	r3, .L5+12
 160 008a FFF7FEFF 		bl	__aeabi_dmul
 161 008e 031C     		mov	r3, r0
 162 0090 0C1C     		mov	r4, r1
 163 0092 181C     		mov	r0, r3
 164 0094 211C     		mov	r1, r4
 165 0096 0E4A     		ldr	r2, .L5+16
 166 0098 0E4B     		ldr	r3, .L5+20
 167 009a FFF7FEFF 		bl	__aeabi_dsub
 168 009e 031C     		mov	r3, r0
 169 00a0 0C1C     		mov	r4, r1
 170 00a2 181C     		mov	r0, r3
 171 00a4 211C     		mov	r1, r4
 172 00a6 FFF7FEFF 		bl	__aeabi_d2f
ARM GAS  C:\Users\JAKOB-~1\AppData\Local\Temp\cchgN1kW.s 			page 5


 173 00aa 021C     		add	r2, r0, #0
 174 00ac 7B68     		ldr	r3, [r7, #4]
 175 00ae 1A60     		str	r2, [r3]
  57:.\tempSensor.c ****     
  58:.\tempSensor.c ****     return 0;
 176              		.loc 1 58 0
 177 00b0 0023     		mov	r3, #0
  59:.\tempSensor.c **** }...
 178              		.loc 1 59 0
 179 00b2 181C     		mov	r0, r3
 180 00b4 BD46     		mov	sp, r7
 181 00b6 07B0     		add	sp, sp, #28
 182              		@ sp needed for prologue
 183 00b8 90BD     		pop	{r4, r7, pc}
 184              	.L6:
 185 00ba C046C046 		.align	3
 185      C046
 186              	.L5:
 187 00c0 66666666 		.word	1717986918
 188 00c4 66660A40 		.word	1074423398
 189 00c8 D7A3703D 		.word	1030792151
 190 00cc 0AF76540 		.word	1080424202
 191 00d0 CDCCCCCC 		.word	-858993459
 192 00d4 CC6C4740 		.word	1078422732
 193              		.cfi_endproc
 194              	.LFE35:
 195              		.size	tempSensor_getValue, .-tempSensor_getValue
 196              		.text
 197              	.Letext0:
 198              		.file 2 "./Generated_Source/PSoC4/cytypes.h"