ARM GAS  C:\Users\BJRN~1\AppData\Local\Temp\ccalFP9S.s 			page 1


   1              		.cpu cortex-m0
   2              		.fpu softvfp
   3              		.eabi_attribute 20, 1
   4              		.eabi_attribute 21, 1
   5              		.eabi_attribute 23, 3
   6              		.eabi_attribute 24, 1
   7              		.eabi_attribute 25, 1
   8              		.eabi_attribute 26, 1
   9              		.eabi_attribute 30, 6
  10              		.eabi_attribute 34, 0
  11              		.eabi_attribute 18, 4
  12              		.code	16
  13              		.file	"test_controllers.c"
  14              		.text
  15              	.Ltext0:
  16              		.cfi_sections	.debug_frame
  17              		.section	.text.main,"ax",%progbits
  18              		.align	2
  19              		.global	main
  20              		.code	16
  21              		.thumb_func
  22              		.type	main, %function
  23              	main:
  24              	.LFB33:
  25              		.file 1 ".\\test_controllers.c"
   1:.\test_controllers.c **** /*
   2:.\test_controllers.c **** * File: test_controllers.c
   3:.\test_controllers.c **** * Description: Test program for controller classes
   4:.\test_controllers.c **** * Project: PRJ3
   5:.\test_controllers.c **** * 
   6:.\test_controllers.c **** * Author: Bjørn Sørensen
   7:.\test_controllers.c **** */
   8:.\test_controllers.c **** 
   9:.\test_controllers.c **** 
  10:.\test_controllers.c **** #include <project.h>
  11:.\test_controllers.c **** // Controllers
  12:.\test_controllers.c **** #include "loadData.h"
  13:.\test_controllers.c **** #include "onOff.h"
  14:.\test_controllers.c **** #include "config.h"
  15:.\test_controllers.c **** #include "addRemove.h"
  16:.\test_controllers.c **** 
  17:.\test_controllers.c **** // Domain
  18:.\test_controllers.c **** #include "buffer.h"
  19:.\test_controllers.c **** #include "parameters.h"
  20:.\test_controllers.c **** 
  21:.\test_controllers.c **** int main()
  22:.\test_controllers.c **** {
  26              		.loc 1 22 0
  27              		.cfi_startproc
  28 0000 80B5     		push	{r7, lr}
  29              	.LCFI0:
  30              		.cfi_def_cfa_offset 8
  31              		.cfi_offset 7, -8
  32              		.cfi_offset 14, -4
  33 0002 82B0     		sub	sp, sp, #8
  34              	.LCFI1:
  35              		.cfi_def_cfa_offset 16
ARM GAS  C:\Users\BJRN~1\AppData\Local\Temp\ccalFP9S.s 			page 2


  36 0004 00AF     		add	r7, sp, #0
  37              	.LCFI2:
  38              		.cfi_def_cfa_register 7
  39              	.LBB2:
  23:.\test_controllers.c ****     /* Test of class addRemove */
  24:.\test_controllers.c ****     {
  25:.\test_controllers.c ****         int ret;
  26:.\test_controllers.c ****         ret = -1;
  40              		.loc 1 26 0
  41 0006 0123     		mov	r3, #1
  42 0008 5B42     		neg	r3, r3
  43 000a 7B60     		str	r3, [r7, #4]
  27:.\test_controllers.c ****         addRemove_init();           // Init controller (nothing done)
  44              		.loc 1 27 0
  45 000c FFF7FEFF 		bl	addRemove_init
  28:.\test_controllers.c ****         ret = addRemove_verify();   // Verify, return 0
  46              		.loc 1 28 0
  47 0010 FFF7FEFF 		bl	addRemove_verify
  48 0014 031C     		mov	r3, r0
  49 0016 7B60     		str	r3, [r7, #4]
  29:.\test_controllers.c ****         ret = 0;                    // Dummy
  50              		.loc 1 29 0
  51 0018 0023     		mov	r3, #0
  52 001a 7B60     		str	r3, [r7, #4]
  53              	.LBE2:
  30:.\test_controllers.c ****         
  31:.\test_controllers.c ****     }
  32:.\test_controllers.c ****     
  33:.\test_controllers.c ****     /* Test of class config */
  34:.\test_controllers.c ****     {
  35:.\test_controllers.c **** //        // Create objects
  36:.\test_controllers.c **** //        buffer bufferObj;
  37:.\test_controllers.c **** //        buffer_init(&bufferObj);
  38:.\test_controllers.c **** //        parameters paramObj;
  39:.\test_controllers.c **** //        parameters_init(&paramObj);
  40:.\test_controllers.c **** //        
  41:.\test_controllers.c **** //        // Create/init controller
  42:.\test_controllers.c **** //        config_init(&paramObj, &bufferObj);
  43:.\test_controllers.c **** //        
  44:.\test_controllers.c **** //        float readT, readH, t, h;
  45:.\test_controllers.c **** //        parameters_getTemp(&paramObj, &readT);      // Get temp
  46:.\test_controllers.c **** //        parameters_getHumi(&paramObj, &readH);      // Get humi
  47:.\test_controllers.c **** //        
  48:.\test_controllers.c **** //        t = 20.2;
  49:.\test_controllers.c **** //        h = 40.6;
  50:.\test_controllers.c **** //        config_config(&t, &h);                      // Set data
  51:.\test_controllers.c **** //        parameters_getTemp(&paramObj, &readT);      // Get temp
  52:.\test_controllers.c **** //        parameters_getHumi(&paramObj, &readH);      // Get humi
  53:.\test_controllers.c **** //        
  54:.\test_controllers.c **** //        t = 2.2;
  55:.\test_controllers.c **** //        h = 40;        
  56:.\test_controllers.c **** //        config_config(&t, &h);                      // Set data
  57:.\test_controllers.c **** //        parameters_getTemp(&paramObj, &readT);      // Get temp
  58:.\test_controllers.c **** //        parameters_getHumi(&paramObj, &readH);      // Get humi
  59:.\test_controllers.c **** //        
  60:.\test_controllers.c ****     }
  61:.\test_controllers.c ****     
ARM GAS  C:\Users\BJRN~1\AppData\Local\Temp\ccalFP9S.s 			page 3


  62:.\test_controllers.c ****     /* Test of class onOff */
  63:.\test_controllers.c ****     {
  64:.\test_controllers.c **** //        // Create objects
  65:.\test_controllers.c **** //        buffer bufferObj;
  66:.\test_controllers.c **** //        buffer_init(&bufferObj);
  67:.\test_controllers.c **** //        parameters paramObj;
  68:.\test_controllers.c **** //        parameters_init(&paramObj);
  69:.\test_controllers.c **** //        
  70:.\test_controllers.c **** //        // Create/init controller
  71:.\test_controllers.c **** //        onOff_init(&paramObj, &bufferObj);
  72:.\test_controllers.c **** //        
  73:.\test_controllers.c **** //        unsigned char read;
  74:.\test_controllers.c **** //        parameters_getActive(&paramObj, &read);     // Get active
  75:.\test_controllers.c **** //        
  76:.\test_controllers.c **** //        onOff_turnOnOff(1);                         // Turn ON
  77:.\test_controllers.c **** //        parameters_getActive(&paramObj, &read);     // Get active
  78:.\test_controllers.c **** //        
  79:.\test_controllers.c **** //        onOff_turnOnOff(0);                         // Turn OFF
  80:.\test_controllers.c **** //        parameters_getActive(&paramObj, &read);     // Get active
  81:.\test_controllers.c **** //        
  82:.\test_controllers.c **** //        onOff_turnOnOff(10);                        // Call with invalid argument
  83:.\test_controllers.c **** //        parameters_getActive(&paramObj, &read);     // Get active, no change should appear
  84:.\test_controllers.c **** //                                                    // Look up the buffer and verify error 23
  85:.\test_controllers.c ****     }
  86:.\test_controllers.c ****     
  87:.\test_controllers.c ****     /* Test of class loadData */
  88:.\test_controllers.c ****     {
  89:.\test_controllers.c **** //            
  90:.\test_controllers.c **** //        CyGlobalIntEnable;
  91:.\test_controllers.c **** //        // Create objects
  92:.\test_controllers.c **** //        buffer bufferObj;
  93:.\test_controllers.c **** //        buffer_init(&bufferObj);
  94:.\test_controllers.c **** //        parameters paramObj;
  95:.\test_controllers.c **** //        parameters_init(&paramObj);
  96:.\test_controllers.c **** //        sensorPackage_init();
  97:.\test_controllers.c **** //        parameters_setActive(&paramObj, 1);
  98:.\test_controllers.c **** //        
  99:.\test_controllers.c **** //        // Init controller
 100:.\test_controllers.c **** //        loadData_init(&paramObj, &bufferObj);
 101:.\test_controllers.c **** //        
 102:.\test_controllers.c **** //        // Read variables
 103:.\test_controllers.c **** //        char * read;
 104:.\test_controllers.c **** //        unsigned int read_len;
 105:.\test_controllers.c **** //        int ret;
 106:.\test_controllers.c **** //        while(1)
 107:.\test_controllers.c **** //        {
 108:.\test_controllers.c **** //            loadData_movementDetect();
 109:.\test_controllers.c **** //            CyDelay(20000);
 110:.\test_controllers.c **** //            ret = buffer_getData(&bufferObj, &read, &read_len);
 111:.\test_controllers.c **** //            
 112:.\test_controllers.c **** //        }
 113:.\test_controllers.c ****     }
 114:.\test_controllers.c ****     
 115:.\test_controllers.c ****     return 0;
  54              		.loc 1 115 0
  55 001c 0023     		mov	r3, #0
 116:.\test_controllers.c **** }...
ARM GAS  C:\Users\BJRN~1\AppData\Local\Temp\ccalFP9S.s 			page 4


  56              		.loc 1 116 0
  57 001e 181C     		mov	r0, r3
  58 0020 BD46     		mov	sp, r7
  59 0022 02B0     		add	sp, sp, #8
  60              		@ sp needed for prologue
  61 0024 80BD     		pop	{r7, pc}
  62              		.cfi_endproc
  63              	.LFE33:
  64              		.size	main, .-main
  65 0026 C046     		.text
  66              	.Letext0: